/*
 * Copyright 2018-2025 Yury Gribov
 *
 * The MIT License (MIT)
 *
 * Use of this source code is governed by MIT license that can be
 * found in the LICENSE.txt file.
 */

  .section .note.GNU-stack,"",%progbits

  .data

  .globl _libX11_so_tramp_table
  .hidden _libX11_so_tramp_table
  .align 4
_libX11_so_tramp_table:
  .zero 4708

  .text

  .globl _libX11_so_tramp_resolve
  .hidden _libX11_so_tramp_resolve

  .globl _libX11_so_save_regs_and_resolve
  .hidden _libX11_so_save_regs_and_resolve
  .type _libX11_so_save_regs_and_resolve, %function
_libX11_so_save_regs_and_resolve:
  .cfi_startproc

#define PUSH_REG(reg) push {reg}; .cfi_adjust_cfa_offset 4; .cfi_rel_offset reg, 0
#define POP_REG(reg) pop {reg} ; .cfi_adjust_cfa_offset -4; .cfi_restore reg

// Binutils 2.30 does not like q0 in .cfi_rel_offset
#define PUSH_DREG_PAIR(reg1, reg2) vpush {reg1, reg2}; .cfi_adjust_cfa_offset 16; .cfi_rel_offset reg1, 0; .cfi_rel_offset reg2, 8
#define POP_DREG_PAIR(reg1, reg2) vpop {reg1, reg2}; .cfi_adjust_cfa_offset -16; .cfi_restore reg1; .cfi_restore reg2

  // Slow path which calls dlsym, taken only on first call.
  // Registers are saved acc. to "Procedure Call Standard for the ARM Architecture".
  // For DWARF directives, read https://www.imperialviolet.org/2017/01/18/cfi.html.

  // Stack is aligned at 16 bytes at this point

  // Save only arguments (and lr)
  PUSH_REG(r0)
  ldr r0, [sp, #8]
  PUSH_REG(r1)
  PUSH_REG(r2)
  PUSH_REG(r3)
  PUSH_REG(lr)
  PUSH_REG(lr)  // Align to 8 bytes

  // Arguments can be passed in VFP registers only when hard-float ABI is used
  // for arm-gnueabihf target // (http://android-doc.github.io/ndk/guides/abis.html#v7a).
  // Use compiler macro to detect this case.
#ifdef __ARM_PCS_VFP
  PUSH_DREG_PAIR(d0, d1)
  PUSH_DREG_PAIR(d2, d3)
  PUSH_DREG_PAIR(d4, d5)
  PUSH_DREG_PAIR(d6, d7)
  PUSH_DREG_PAIR(d8, d9)
  PUSH_DREG_PAIR(d10, d11)
  PUSH_DREG_PAIR(d12, d13)
  PUSH_DREG_PAIR(d14, d15)
  // FIXME: NEON actually supports 32 D-registers but it's unclear how to detect this
#endif

  bl _libX11_so_tramp_resolve(PLT)
  mov ip, r0

#ifdef __ARM_PCS_VFP
  POP_DREG_PAIR(d14, d15)
  POP_DREG_PAIR(d12, d13)
  POP_DREG_PAIR(d10, d11)
  POP_DREG_PAIR(d8, d9)
  POP_DREG_PAIR(d6, d7)
  POP_DREG_PAIR(d4, d5)
  POP_DREG_PAIR(d2, d3)
  POP_DREG_PAIR(d0, d1)
#endif

  POP_REG(lr)  // TODO: pop pc?
  POP_REG(lr)
  POP_REG(r3)
  POP_REG(r2)
  POP_REG(r1)
  POP_REG(r0)

  bx lr

  .cfi_endproc

/*
 * Copyright 2018-2025 Yury Gribov
 *
 * The MIT License (MIT)
 *
 * Use of this source code is governed by MIT license that can be
 * found in the LICENSE.txt file.
 */

  .globl KeySymToUcs4
  .p2align 4
  .type KeySymToUcs4, %function
#ifndef IMPLIB_EXPORT_SHIMS
  .hidden KeySymToUcs4
#endif
KeySymToUcs4:
  .cfi_startproc

1:
  // Load address
  // TODO: can we do this faster on newer ARMs?
  ldr ip, 3f
2:
  add ip, pc, ip
  ldr ip, [ip]

  cmp ip, #0

  // Fast path
  bxne ip

  // Slow path
  ldr ip, =0
  push {ip}
  .cfi_adjust_cfa_offset 4
  PUSH_REG(lr)
  bl _libX11_so_save_regs_and_resolve
  POP_REG(lr)
  add sp, #4
  .cfi_adjust_cfa_offset -4
  bx ip

  // Force constant pool for ldr above
  .ltorg

  .cfi_endproc

3:
  .word _libX11_so_tramp_table - (2b + 8) + 0

/*
 * Copyright 2018-2025 Yury Gribov
 *
 * The MIT License (MIT)
 *
 * Use of this source code is governed by MIT license that can be
 * found in the LICENSE.txt file.
 */

  .globl XActivateScreenSaver
  .p2align 4
  .type XActivateScreenSaver, %function
#ifndef IMPLIB_EXPORT_SHIMS
  .hidden XActivateScreenSaver
#endif
XActivateScreenSaver:
  .cfi_startproc

1:
  // Load address
  // TODO: can we do this faster on newer ARMs?
  ldr ip, 3f
2:
  add ip, pc, ip
  ldr ip, [ip]

  cmp ip, #0

  // Fast path
  bxne ip

  // Slow path
  ldr ip, =1
  push {ip}
  .cfi_adjust_cfa_offset 4
  PUSH_REG(lr)
  bl _libX11_so_save_regs_and_resolve
  POP_REG(lr)
  add sp, #4
  .cfi_adjust_cfa_offset -4
  bx ip

  // Force constant pool for ldr above
  .ltorg

  .cfi_endproc

3:
  .word _libX11_so_tramp_table - (2b + 8) + 4

/*
 * Copyright 2018-2025 Yury Gribov
 *
 * The MIT License (MIT)
 *
 * Use of this source code is governed by MIT license that can be
 * found in the LICENSE.txt file.
 */

  .globl XAddConnectionWatch
  .p2align 4
  .type XAddConnectionWatch, %function
#ifndef IMPLIB_EXPORT_SHIMS
  .hidden XAddConnectionWatch
#endif
XAddConnectionWatch:
  .cfi_startproc

1:
  // Load address
  // TODO: can we do this faster on newer ARMs?
  ldr ip, 3f
2:
  add ip, pc, ip
  ldr ip, [ip]

  cmp ip, #0

  // Fast path
  bxne ip

  // Slow path
  ldr ip, =2
  push {ip}
  .cfi_adjust_cfa_offset 4
  PUSH_REG(lr)
  bl _libX11_so_save_regs_and_resolve
  POP_REG(lr)
  add sp, #4
  .cfi_adjust_cfa_offset -4
  bx ip

  // Force constant pool for ldr above
  .ltorg

  .cfi_endproc

3:
  .word _libX11_so_tramp_table - (2b + 8) + 8

/*
 * Copyright 2018-2025 Yury Gribov
 *
 * The MIT License (MIT)
 *
 * Use of this source code is governed by MIT license that can be
 * found in the LICENSE.txt file.
 */

  .globl XAddExtension
  .p2align 4
  .type XAddExtension, %function
#ifndef IMPLIB_EXPORT_SHIMS
  .hidden XAddExtension
#endif
XAddExtension:
  .cfi_startproc

1:
  // Load address
  // TODO: can we do this faster on newer ARMs?
  ldr ip, 3f
2:
  add ip, pc, ip
  ldr ip, [ip]

  cmp ip, #0

  // Fast path
  bxne ip

  // Slow path
  ldr ip, =3
  push {ip}
  .cfi_adjust_cfa_offset 4
  PUSH_REG(lr)
  bl _libX11_so_save_regs_and_resolve
  POP_REG(lr)
  add sp, #4
  .cfi_adjust_cfa_offset -4
  bx ip

  // Force constant pool for ldr above
  .ltorg

  .cfi_endproc

3:
  .word _libX11_so_tramp_table - (2b + 8) + 12

/*
 * Copyright 2018-2025 Yury Gribov
 *
 * The MIT License (MIT)
 *
 * Use of this source code is governed by MIT license that can be
 * found in the LICENSE.txt file.
 */

  .globl XAddHost
  .p2align 4
  .type XAddHost, %function
#ifndef IMPLIB_EXPORT_SHIMS
  .hidden XAddHost
#endif
XAddHost:
  .cfi_startproc

1:
  // Load address
  // TODO: can we do this faster on newer ARMs?
  ldr ip, 3f
2:
  add ip, pc, ip
  ldr ip, [ip]

  cmp ip, #0

  // Fast path
  bxne ip

  // Slow path
  ldr ip, =4
  push {ip}
  .cfi_adjust_cfa_offset 4
  PUSH_REG(lr)
  bl _libX11_so_save_regs_and_resolve
  POP_REG(lr)
  add sp, #4
  .cfi_adjust_cfa_offset -4
  bx ip

  // Force constant pool for ldr above
  .ltorg

  .cfi_endproc

3:
  .word _libX11_so_tramp_table - (2b + 8) + 16

/*
 * Copyright 2018-2025 Yury Gribov
 *
 * The MIT License (MIT)
 *
 * Use of this source code is governed by MIT license that can be
 * found in the LICENSE.txt file.
 */

  .globl XAddHosts
  .p2align 4
  .type XAddHosts, %function
#ifndef IMPLIB_EXPORT_SHIMS
  .hidden XAddHosts
#endif
XAddHosts:
  .cfi_startproc

1:
  // Load address
  // TODO: can we do this faster on newer ARMs?
  ldr ip, 3f
2:
  add ip, pc, ip
  ldr ip, [ip]

  cmp ip, #0

  // Fast path
  bxne ip

  // Slow path
  ldr ip, =5
  push {ip}
  .cfi_adjust_cfa_offset 4
  PUSH_REG(lr)
  bl _libX11_so_save_regs_and_resolve
  POP_REG(lr)
  add sp, #4
  .cfi_adjust_cfa_offset -4
  bx ip

  // Force constant pool for ldr above
  .ltorg

  .cfi_endproc

3:
  .word _libX11_so_tramp_table - (2b + 8) + 20

/*
 * Copyright 2018-2025 Yury Gribov
 *
 * The MIT License (MIT)
 *
 * Use of this source code is governed by MIT license that can be
 * found in the LICENSE.txt file.
 */

  .globl XAddPixel
  .p2align 4
  .type XAddPixel, %function
#ifndef IMPLIB_EXPORT_SHIMS
  .hidden XAddPixel
#endif
XAddPixel:
  .cfi_startproc

1:
  // Load address
  // TODO: can we do this faster on newer ARMs?
  ldr ip, 3f
2:
  add ip, pc, ip
  ldr ip, [ip]

  cmp ip, #0

  // Fast path
  bxne ip

  // Slow path
  ldr ip, =6
  push {ip}
  .cfi_adjust_cfa_offset 4
  PUSH_REG(lr)
  bl _libX11_so_save_regs_and_resolve
  POP_REG(lr)
  add sp, #4
  .cfi_adjust_cfa_offset -4
  bx ip

  // Force constant pool for ldr above
  .ltorg

  .cfi_endproc

3:
  .word _libX11_so_tramp_table - (2b + 8) + 24

/*
 * Copyright 2018-2025 Yury Gribov
 *
 * The MIT License (MIT)
 *
 * Use of this source code is governed by MIT license that can be
 * found in the LICENSE.txt file.
 */

  .globl XAddToExtensionList
  .p2align 4
  .type XAddToExtensionList, %function
#ifndef IMPLIB_EXPORT_SHIMS
  .hidden XAddToExtensionList
#endif
XAddToExtensionList:
  .cfi_startproc

1:
  // Load address
  // TODO: can we do this faster on newer ARMs?
  ldr ip, 3f
2:
  add ip, pc, ip
  ldr ip, [ip]

  cmp ip, #0

  // Fast path
  bxne ip

  // Slow path
  ldr ip, =7
  push {ip}
  .cfi_adjust_cfa_offset 4
  PUSH_REG(lr)
  bl _libX11_so_save_regs_and_resolve
  POP_REG(lr)
  add sp, #4
  .cfi_adjust_cfa_offset -4
  bx ip

  // Force constant pool for ldr above
  .ltorg

  .cfi_endproc

3:
  .word _libX11_so_tramp_table - (2b + 8) + 28

/*
 * Copyright 2018-2025 Yury Gribov
 *
 * The MIT License (MIT)
 *
 * Use of this source code is governed by MIT license that can be
 * found in the LICENSE.txt file.
 */

  .globl XAddToSaveSet
  .p2align 4
  .type XAddToSaveSet, %function
#ifndef IMPLIB_EXPORT_SHIMS
  .hidden XAddToSaveSet
#endif
XAddToSaveSet:
  .cfi_startproc

1:
  // Load address
  // TODO: can we do this faster on newer ARMs?
  ldr ip, 3f
2:
  add ip, pc, ip
  ldr ip, [ip]

  cmp ip, #0

  // Fast path
  bxne ip

  // Slow path
  ldr ip, =8
  push {ip}
  .cfi_adjust_cfa_offset 4
  PUSH_REG(lr)
  bl _libX11_so_save_regs_and_resolve
  POP_REG(lr)
  add sp, #4
  .cfi_adjust_cfa_offset -4
  bx ip

  // Force constant pool for ldr above
  .ltorg

  .cfi_endproc

3:
  .word _libX11_so_tramp_table - (2b + 8) + 32

/*
 * Copyright 2018-2025 Yury Gribov
 *
 * The MIT License (MIT)
 *
 * Use of this source code is governed by MIT license that can be
 * found in the LICENSE.txt file.
 */

  .globl XAllPlanes
  .p2align 4
  .type XAllPlanes, %function
#ifndef IMPLIB_EXPORT_SHIMS
  .hidden XAllPlanes
#endif
XAllPlanes:
  .cfi_startproc

1:
  // Load address
  // TODO: can we do this faster on newer ARMs?
  ldr ip, 3f
2:
  add ip, pc, ip
  ldr ip, [ip]

  cmp ip, #0

  // Fast path
  bxne ip

  // Slow path
  ldr ip, =9
  push {ip}
  .cfi_adjust_cfa_offset 4
  PUSH_REG(lr)
  bl _libX11_so_save_regs_and_resolve
  POP_REG(lr)
  add sp, #4
  .cfi_adjust_cfa_offset -4
  bx ip

  // Force constant pool for ldr above
  .ltorg

  .cfi_endproc

3:
  .word _libX11_so_tramp_table - (2b + 8) + 36

/*
 * Copyright 2018-2025 Yury Gribov
 *
 * The MIT License (MIT)
 *
 * Use of this source code is governed by MIT license that can be
 * found in the LICENSE.txt file.
 */

  .globl XAllocClassHint
  .p2align 4
  .type XAllocClassHint, %function
#ifndef IMPLIB_EXPORT_SHIMS
  .hidden XAllocClassHint
#endif
XAllocClassHint:
  .cfi_startproc

1:
  // Load address
  // TODO: can we do this faster on newer ARMs?
  ldr ip, 3f
2:
  add ip, pc, ip
  ldr ip, [ip]

  cmp ip, #0

  // Fast path
  bxne ip

  // Slow path
  ldr ip, =10
  push {ip}
  .cfi_adjust_cfa_offset 4
  PUSH_REG(lr)
  bl _libX11_so_save_regs_and_resolve
  POP_REG(lr)
  add sp, #4
  .cfi_adjust_cfa_offset -4
  bx ip

  // Force constant pool for ldr above
  .ltorg

  .cfi_endproc

3:
  .word _libX11_so_tramp_table - (2b + 8) + 40

/*
 * Copyright 2018-2025 Yury Gribov
 *
 * The MIT License (MIT)
 *
 * Use of this source code is governed by MIT license that can be
 * found in the LICENSE.txt file.
 */

  .globl XAllocColor
  .p2align 4
  .type XAllocColor, %function
#ifndef IMPLIB_EXPORT_SHIMS
  .hidden XAllocColor
#endif
XAllocColor:
  .cfi_startproc

1:
  // Load address
  // TODO: can we do this faster on newer ARMs?
  ldr ip, 3f
2:
  add ip, pc, ip
  ldr ip, [ip]

  cmp ip, #0

  // Fast path
  bxne ip

  // Slow path
  ldr ip, =11
  push {ip}
  .cfi_adjust_cfa_offset 4
  PUSH_REG(lr)
  bl _libX11_so_save_regs_and_resolve
  POP_REG(lr)
  add sp, #4
  .cfi_adjust_cfa_offset -4
  bx ip

  // Force constant pool for ldr above
  .ltorg

  .cfi_endproc

3:
  .word _libX11_so_tramp_table - (2b + 8) + 44

/*
 * Copyright 2018-2025 Yury Gribov
 *
 * The MIT License (MIT)
 *
 * Use of this source code is governed by MIT license that can be
 * found in the LICENSE.txt file.
 */

  .globl XAllocColorCells
  .p2align 4
  .type XAllocColorCells, %function
#ifndef IMPLIB_EXPORT_SHIMS
  .hidden XAllocColorCells
#endif
XAllocColorCells:
  .cfi_startproc

1:
  // Load address
  // TODO: can we do this faster on newer ARMs?
  ldr ip, 3f
2:
  add ip, pc, ip
  ldr ip, [ip]

  cmp ip, #0

  // Fast path
  bxne ip

  // Slow path
  ldr ip, =12
  push {ip}
  .cfi_adjust_cfa_offset 4
  PUSH_REG(lr)
  bl _libX11_so_save_regs_and_resolve
  POP_REG(lr)
  add sp, #4
  .cfi_adjust_cfa_offset -4
  bx ip

  // Force constant pool for ldr above
  .ltorg

  .cfi_endproc

3:
  .word _libX11_so_tramp_table - (2b + 8) + 48

/*
 * Copyright 2018-2025 Yury Gribov
 *
 * The MIT License (MIT)
 *
 * Use of this source code is governed by MIT license that can be
 * found in the LICENSE.txt file.
 */

  .globl XAllocColorPlanes
  .p2align 4
  .type XAllocColorPlanes, %function
#ifndef IMPLIB_EXPORT_SHIMS
  .hidden XAllocColorPlanes
#endif
XAllocColorPlanes:
  .cfi_startproc

1:
  // Load address
  // TODO: can we do this faster on newer ARMs?
  ldr ip, 3f
2:
  add ip, pc, ip
  ldr ip, [ip]

  cmp ip, #0

  // Fast path
  bxne ip

  // Slow path
  ldr ip, =13
  push {ip}
  .cfi_adjust_cfa_offset 4
  PUSH_REG(lr)
  bl _libX11_so_save_regs_and_resolve
  POP_REG(lr)
  add sp, #4
  .cfi_adjust_cfa_offset -4
  bx ip

  // Force constant pool for ldr above
  .ltorg

  .cfi_endproc

3:
  .word _libX11_so_tramp_table - (2b + 8) + 52

/*
 * Copyright 2018-2025 Yury Gribov
 *
 * The MIT License (MIT)
 *
 * Use of this source code is governed by MIT license that can be
 * found in the LICENSE.txt file.
 */

  .globl XAllocIconSize
  .p2align 4
  .type XAllocIconSize, %function
#ifndef IMPLIB_EXPORT_SHIMS
  .hidden XAllocIconSize
#endif
XAllocIconSize:
  .cfi_startproc

1:
  // Load address
  // TODO: can we do this faster on newer ARMs?
  ldr ip, 3f
2:
  add ip, pc, ip
  ldr ip, [ip]

  cmp ip, #0

  // Fast path
  bxne ip

  // Slow path
  ldr ip, =14
  push {ip}
  .cfi_adjust_cfa_offset 4
  PUSH_REG(lr)
  bl _libX11_so_save_regs_and_resolve
  POP_REG(lr)
  add sp, #4
  .cfi_adjust_cfa_offset -4
  bx ip

  // Force constant pool for ldr above
  .ltorg

  .cfi_endproc

3:
  .word _libX11_so_tramp_table - (2b + 8) + 56

/*
 * Copyright 2018-2025 Yury Gribov
 *
 * The MIT License (MIT)
 *
 * Use of this source code is governed by MIT license that can be
 * found in the LICENSE.txt file.
 */

  .globl XAllocNamedColor
  .p2align 4
  .type XAllocNamedColor, %function
#ifndef IMPLIB_EXPORT_SHIMS
  .hidden XAllocNamedColor
#endif
XAllocNamedColor:
  .cfi_startproc

1:
  // Load address
  // TODO: can we do this faster on newer ARMs?
  ldr ip, 3f
2:
  add ip, pc, ip
  ldr ip, [ip]

  cmp ip, #0

  // Fast path
  bxne ip

  // Slow path
  ldr ip, =15
  push {ip}
  .cfi_adjust_cfa_offset 4
  PUSH_REG(lr)
  bl _libX11_so_save_regs_and_resolve
  POP_REG(lr)
  add sp, #4
  .cfi_adjust_cfa_offset -4
  bx ip

  // Force constant pool for ldr above
  .ltorg

  .cfi_endproc

3:
  .word _libX11_so_tramp_table - (2b + 8) + 60

/*
 * Copyright 2018-2025 Yury Gribov
 *
 * The MIT License (MIT)
 *
 * Use of this source code is governed by MIT license that can be
 * found in the LICENSE.txt file.
 */

  .globl XAllocSizeHints
  .p2align 4
  .type XAllocSizeHints, %function
#ifndef IMPLIB_EXPORT_SHIMS
  .hidden XAllocSizeHints
#endif
XAllocSizeHints:
  .cfi_startproc

1:
  // Load address
  // TODO: can we do this faster on newer ARMs?
  ldr ip, 3f
2:
  add ip, pc, ip
  ldr ip, [ip]

  cmp ip, #0

  // Fast path
  bxne ip

  // Slow path
  ldr ip, =16
  push {ip}
  .cfi_adjust_cfa_offset 4
  PUSH_REG(lr)
  bl _libX11_so_save_regs_and_resolve
  POP_REG(lr)
  add sp, #4
  .cfi_adjust_cfa_offset -4
  bx ip

  // Force constant pool for ldr above
  .ltorg

  .cfi_endproc

3:
  .word _libX11_so_tramp_table - (2b + 8) + 64

/*
 * Copyright 2018-2025 Yury Gribov
 *
 * The MIT License (MIT)
 *
 * Use of this source code is governed by MIT license that can be
 * found in the LICENSE.txt file.
 */

  .globl XAllocStandardColormap
  .p2align 4
  .type XAllocStandardColormap, %function
#ifndef IMPLIB_EXPORT_SHIMS
  .hidden XAllocStandardColormap
#endif
XAllocStandardColormap:
  .cfi_startproc

1:
  // Load address
  // TODO: can we do this faster on newer ARMs?
  ldr ip, 3f
2:
  add ip, pc, ip
  ldr ip, [ip]

  cmp ip, #0

  // Fast path
  bxne ip

  // Slow path
  ldr ip, =17
  push {ip}
  .cfi_adjust_cfa_offset 4
  PUSH_REG(lr)
  bl _libX11_so_save_regs_and_resolve
  POP_REG(lr)
  add sp, #4
  .cfi_adjust_cfa_offset -4
  bx ip

  // Force constant pool for ldr above
  .ltorg

  .cfi_endproc

3:
  .word _libX11_so_tramp_table - (2b + 8) + 68

/*
 * Copyright 2018-2025 Yury Gribov
 *
 * The MIT License (MIT)
 *
 * Use of this source code is governed by MIT license that can be
 * found in the LICENSE.txt file.
 */

  .globl XAllocWMHints
  .p2align 4
  .type XAllocWMHints, %function
#ifndef IMPLIB_EXPORT_SHIMS
  .hidden XAllocWMHints
#endif
XAllocWMHints:
  .cfi_startproc

1:
  // Load address
  // TODO: can we do this faster on newer ARMs?
  ldr ip, 3f
2:
  add ip, pc, ip
  ldr ip, [ip]

  cmp ip, #0

  // Fast path
  bxne ip

  // Slow path
  ldr ip, =18
  push {ip}
  .cfi_adjust_cfa_offset 4
  PUSH_REG(lr)
  bl _libX11_so_save_regs_and_resolve
  POP_REG(lr)
  add sp, #4
  .cfi_adjust_cfa_offset -4
  bx ip

  // Force constant pool for ldr above
  .ltorg

  .cfi_endproc

3:
  .word _libX11_so_tramp_table - (2b + 8) + 72

/*
 * Copyright 2018-2025 Yury Gribov
 *
 * The MIT License (MIT)
 *
 * Use of this source code is governed by MIT license that can be
 * found in the LICENSE.txt file.
 */

  .globl XAllowEvents
  .p2align 4
  .type XAllowEvents, %function
#ifndef IMPLIB_EXPORT_SHIMS
  .hidden XAllowEvents
#endif
XAllowEvents:
  .cfi_startproc

1:
  // Load address
  // TODO: can we do this faster on newer ARMs?
  ldr ip, 3f
2:
  add ip, pc, ip
  ldr ip, [ip]

  cmp ip, #0

  // Fast path
  bxne ip

  // Slow path
  ldr ip, =19
  push {ip}
  .cfi_adjust_cfa_offset 4
  PUSH_REG(lr)
  bl _libX11_so_save_regs_and_resolve
  POP_REG(lr)
  add sp, #4
  .cfi_adjust_cfa_offset -4
  bx ip

  // Force constant pool for ldr above
  .ltorg

  .cfi_endproc

3:
  .word _libX11_so_tramp_table - (2b + 8) + 76

/*
 * Copyright 2018-2025 Yury Gribov
 *
 * The MIT License (MIT)
 *
 * Use of this source code is governed by MIT license that can be
 * found in the LICENSE.txt file.
 */

  .globl XAutoRepeatOff
  .p2align 4
  .type XAutoRepeatOff, %function
#ifndef IMPLIB_EXPORT_SHIMS
  .hidden XAutoRepeatOff
#endif
XAutoRepeatOff:
  .cfi_startproc

1:
  // Load address
  // TODO: can we do this faster on newer ARMs?
  ldr ip, 3f
2:
  add ip, pc, ip
  ldr ip, [ip]

  cmp ip, #0

  // Fast path
  bxne ip

  // Slow path
  ldr ip, =20
  push {ip}
  .cfi_adjust_cfa_offset 4
  PUSH_REG(lr)
  bl _libX11_so_save_regs_and_resolve
  POP_REG(lr)
  add sp, #4
  .cfi_adjust_cfa_offset -4
  bx ip

  // Force constant pool for ldr above
  .ltorg

  .cfi_endproc

3:
  .word _libX11_so_tramp_table - (2b + 8) + 80

/*
 * Copyright 2018-2025 Yury Gribov
 *
 * The MIT License (MIT)
 *
 * Use of this source code is governed by MIT license that can be
 * found in the LICENSE.txt file.
 */

  .globl XAutoRepeatOn
  .p2align 4
  .type XAutoRepeatOn, %function
#ifndef IMPLIB_EXPORT_SHIMS
  .hidden XAutoRepeatOn
#endif
XAutoRepeatOn:
  .cfi_startproc

1:
  // Load address
  // TODO: can we do this faster on newer ARMs?
  ldr ip, 3f
2:
  add ip, pc, ip
  ldr ip, [ip]

  cmp ip, #0

  // Fast path
  bxne ip

  // Slow path
  ldr ip, =21
  push {ip}
  .cfi_adjust_cfa_offset 4
  PUSH_REG(lr)
  bl _libX11_so_save_regs_and_resolve
  POP_REG(lr)
  add sp, #4
  .cfi_adjust_cfa_offset -4
  bx ip

  // Force constant pool for ldr above
  .ltorg

  .cfi_endproc

3:
  .word _libX11_so_tramp_table - (2b + 8) + 84

/*
 * Copyright 2018-2025 Yury Gribov
 *
 * The MIT License (MIT)
 *
 * Use of this source code is governed by MIT license that can be
 * found in the LICENSE.txt file.
 */

  .globl XBaseFontNameListOfFontSet
  .p2align 4
  .type XBaseFontNameListOfFontSet, %function
#ifndef IMPLIB_EXPORT_SHIMS
  .hidden XBaseFontNameListOfFontSet
#endif
XBaseFontNameListOfFontSet:
  .cfi_startproc

1:
  // Load address
  // TODO: can we do this faster on newer ARMs?
  ldr ip, 3f
2:
  add ip, pc, ip
  ldr ip, [ip]

  cmp ip, #0

  // Fast path
  bxne ip

  // Slow path
  ldr ip, =22
  push {ip}
  .cfi_adjust_cfa_offset 4
  PUSH_REG(lr)
  bl _libX11_so_save_regs_and_resolve
  POP_REG(lr)
  add sp, #4
  .cfi_adjust_cfa_offset -4
  bx ip

  // Force constant pool for ldr above
  .ltorg

  .cfi_endproc

3:
  .word _libX11_so_tramp_table - (2b + 8) + 88

/*
 * Copyright 2018-2025 Yury Gribov
 *
 * The MIT License (MIT)
 *
 * Use of this source code is governed by MIT license that can be
 * found in the LICENSE.txt file.
 */

  .globl XBell
  .p2align 4
  .type XBell, %function
#ifndef IMPLIB_EXPORT_SHIMS
  .hidden XBell
#endif
XBell:
  .cfi_startproc

1:
  // Load address
  // TODO: can we do this faster on newer ARMs?
  ldr ip, 3f
2:
  add ip, pc, ip
  ldr ip, [ip]

  cmp ip, #0

  // Fast path
  bxne ip

  // Slow path
  ldr ip, =23
  push {ip}
  .cfi_adjust_cfa_offset 4
  PUSH_REG(lr)
  bl _libX11_so_save_regs_and_resolve
  POP_REG(lr)
  add sp, #4
  .cfi_adjust_cfa_offset -4
  bx ip

  // Force constant pool for ldr above
  .ltorg

  .cfi_endproc

3:
  .word _libX11_so_tramp_table - (2b + 8) + 92

/*
 * Copyright 2018-2025 Yury Gribov
 *
 * The MIT License (MIT)
 *
 * Use of this source code is governed by MIT license that can be
 * found in the LICENSE.txt file.
 */

  .globl XBitmapBitOrder
  .p2align 4
  .type XBitmapBitOrder, %function
#ifndef IMPLIB_EXPORT_SHIMS
  .hidden XBitmapBitOrder
#endif
XBitmapBitOrder:
  .cfi_startproc

1:
  // Load address
  // TODO: can we do this faster on newer ARMs?
  ldr ip, 3f
2:
  add ip, pc, ip
  ldr ip, [ip]

  cmp ip, #0

  // Fast path
  bxne ip

  // Slow path
  ldr ip, =24
  push {ip}
  .cfi_adjust_cfa_offset 4
  PUSH_REG(lr)
  bl _libX11_so_save_regs_and_resolve
  POP_REG(lr)
  add sp, #4
  .cfi_adjust_cfa_offset -4
  bx ip

  // Force constant pool for ldr above
  .ltorg

  .cfi_endproc

3:
  .word _libX11_so_tramp_table - (2b + 8) + 96

/*
 * Copyright 2018-2025 Yury Gribov
 *
 * The MIT License (MIT)
 *
 * Use of this source code is governed by MIT license that can be
 * found in the LICENSE.txt file.
 */

  .globl XBitmapPad
  .p2align 4
  .type XBitmapPad, %function
#ifndef IMPLIB_EXPORT_SHIMS
  .hidden XBitmapPad
#endif
XBitmapPad:
  .cfi_startproc

1:
  // Load address
  // TODO: can we do this faster on newer ARMs?
  ldr ip, 3f
2:
  add ip, pc, ip
  ldr ip, [ip]

  cmp ip, #0

  // Fast path
  bxne ip

  // Slow path
  ldr ip, =25
  push {ip}
  .cfi_adjust_cfa_offset 4
  PUSH_REG(lr)
  bl _libX11_so_save_regs_and_resolve
  POP_REG(lr)
  add sp, #4
  .cfi_adjust_cfa_offset -4
  bx ip

  // Force constant pool for ldr above
  .ltorg

  .cfi_endproc

3:
  .word _libX11_so_tramp_table - (2b + 8) + 100

/*
 * Copyright 2018-2025 Yury Gribov
 *
 * The MIT License (MIT)
 *
 * Use of this source code is governed by MIT license that can be
 * found in the LICENSE.txt file.
 */

  .globl XBitmapUnit
  .p2align 4
  .type XBitmapUnit, %function
#ifndef IMPLIB_EXPORT_SHIMS
  .hidden XBitmapUnit
#endif
XBitmapUnit:
  .cfi_startproc

1:
  // Load address
  // TODO: can we do this faster on newer ARMs?
  ldr ip, 3f
2:
  add ip, pc, ip
  ldr ip, [ip]

  cmp ip, #0

  // Fast path
  bxne ip

  // Slow path
  ldr ip, =26
  push {ip}
  .cfi_adjust_cfa_offset 4
  PUSH_REG(lr)
  bl _libX11_so_save_regs_and_resolve
  POP_REG(lr)
  add sp, #4
  .cfi_adjust_cfa_offset -4
  bx ip

  // Force constant pool for ldr above
  .ltorg

  .cfi_endproc

3:
  .word _libX11_so_tramp_table - (2b + 8) + 104

/*
 * Copyright 2018-2025 Yury Gribov
 *
 * The MIT License (MIT)
 *
 * Use of this source code is governed by MIT license that can be
 * found in the LICENSE.txt file.
 */

  .globl XBlackPixel
  .p2align 4
  .type XBlackPixel, %function
#ifndef IMPLIB_EXPORT_SHIMS
  .hidden XBlackPixel
#endif
XBlackPixel:
  .cfi_startproc

1:
  // Load address
  // TODO: can we do this faster on newer ARMs?
  ldr ip, 3f
2:
  add ip, pc, ip
  ldr ip, [ip]

  cmp ip, #0

  // Fast path
  bxne ip

  // Slow path
  ldr ip, =27
  push {ip}
  .cfi_adjust_cfa_offset 4
  PUSH_REG(lr)
  bl _libX11_so_save_regs_and_resolve
  POP_REG(lr)
  add sp, #4
  .cfi_adjust_cfa_offset -4
  bx ip

  // Force constant pool for ldr above
  .ltorg

  .cfi_endproc

3:
  .word _libX11_so_tramp_table - (2b + 8) + 108

/*
 * Copyright 2018-2025 Yury Gribov
 *
 * The MIT License (MIT)
 *
 * Use of this source code is governed by MIT license that can be
 * found in the LICENSE.txt file.
 */

  .globl XBlackPixelOfScreen
  .p2align 4
  .type XBlackPixelOfScreen, %function
#ifndef IMPLIB_EXPORT_SHIMS
  .hidden XBlackPixelOfScreen
#endif
XBlackPixelOfScreen:
  .cfi_startproc

1:
  // Load address
  // TODO: can we do this faster on newer ARMs?
  ldr ip, 3f
2:
  add ip, pc, ip
  ldr ip, [ip]

  cmp ip, #0

  // Fast path
  bxne ip

  // Slow path
  ldr ip, =28
  push {ip}
  .cfi_adjust_cfa_offset 4
  PUSH_REG(lr)
  bl _libX11_so_save_regs_and_resolve
  POP_REG(lr)
  add sp, #4
  .cfi_adjust_cfa_offset -4
  bx ip

  // Force constant pool for ldr above
  .ltorg

  .cfi_endproc

3:
  .word _libX11_so_tramp_table - (2b + 8) + 112

/*
 * Copyright 2018-2025 Yury Gribov
 *
 * The MIT License (MIT)
 *
 * Use of this source code is governed by MIT license that can be
 * found in the LICENSE.txt file.
 */

  .globl XCellsOfScreen
  .p2align 4
  .type XCellsOfScreen, %function
#ifndef IMPLIB_EXPORT_SHIMS
  .hidden XCellsOfScreen
#endif
XCellsOfScreen:
  .cfi_startproc

1:
  // Load address
  // TODO: can we do this faster on newer ARMs?
  ldr ip, 3f
2:
  add ip, pc, ip
  ldr ip, [ip]

  cmp ip, #0

  // Fast path
  bxne ip

  // Slow path
  ldr ip, =29
  push {ip}
  .cfi_adjust_cfa_offset 4
  PUSH_REG(lr)
  bl _libX11_so_save_regs_and_resolve
  POP_REG(lr)
  add sp, #4
  .cfi_adjust_cfa_offset -4
  bx ip

  // Force constant pool for ldr above
  .ltorg

  .cfi_endproc

3:
  .word _libX11_so_tramp_table - (2b + 8) + 116

/*
 * Copyright 2018-2025 Yury Gribov
 *
 * The MIT License (MIT)
 *
 * Use of this source code is governed by MIT license that can be
 * found in the LICENSE.txt file.
 */

  .globl XChangeActivePointerGrab
  .p2align 4
  .type XChangeActivePointerGrab, %function
#ifndef IMPLIB_EXPORT_SHIMS
  .hidden XChangeActivePointerGrab
#endif
XChangeActivePointerGrab:
  .cfi_startproc

1:
  // Load address
  // TODO: can we do this faster on newer ARMs?
  ldr ip, 3f
2:
  add ip, pc, ip
  ldr ip, [ip]

  cmp ip, #0

  // Fast path
  bxne ip

  // Slow path
  ldr ip, =30
  push {ip}
  .cfi_adjust_cfa_offset 4
  PUSH_REG(lr)
  bl _libX11_so_save_regs_and_resolve
  POP_REG(lr)
  add sp, #4
  .cfi_adjust_cfa_offset -4
  bx ip

  // Force constant pool for ldr above
  .ltorg

  .cfi_endproc

3:
  .word _libX11_so_tramp_table - (2b + 8) + 120

/*
 * Copyright 2018-2025 Yury Gribov
 *
 * The MIT License (MIT)
 *
 * Use of this source code is governed by MIT license that can be
 * found in the LICENSE.txt file.
 */

  .globl XChangeGC
  .p2align 4
  .type XChangeGC, %function
#ifndef IMPLIB_EXPORT_SHIMS
  .hidden XChangeGC
#endif
XChangeGC:
  .cfi_startproc

1:
  // Load address
  // TODO: can we do this faster on newer ARMs?
  ldr ip, 3f
2:
  add ip, pc, ip
  ldr ip, [ip]

  cmp ip, #0

  // Fast path
  bxne ip

  // Slow path
  ldr ip, =31
  push {ip}
  .cfi_adjust_cfa_offset 4
  PUSH_REG(lr)
  bl _libX11_so_save_regs_and_resolve
  POP_REG(lr)
  add sp, #4
  .cfi_adjust_cfa_offset -4
  bx ip

  // Force constant pool for ldr above
  .ltorg

  .cfi_endproc

3:
  .word _libX11_so_tramp_table - (2b + 8) + 124

/*
 * Copyright 2018-2025 Yury Gribov
 *
 * The MIT License (MIT)
 *
 * Use of this source code is governed by MIT license that can be
 * found in the LICENSE.txt file.
 */

  .globl XChangeKeyboardControl
  .p2align 4
  .type XChangeKeyboardControl, %function
#ifndef IMPLIB_EXPORT_SHIMS
  .hidden XChangeKeyboardControl
#endif
XChangeKeyboardControl:
  .cfi_startproc

1:
  // Load address
  // TODO: can we do this faster on newer ARMs?
  ldr ip, 3f
2:
  add ip, pc, ip
  ldr ip, [ip]

  cmp ip, #0

  // Fast path
  bxne ip

  // Slow path
  ldr ip, =32
  push {ip}
  .cfi_adjust_cfa_offset 4
  PUSH_REG(lr)
  bl _libX11_so_save_regs_and_resolve
  POP_REG(lr)
  add sp, #4
  .cfi_adjust_cfa_offset -4
  bx ip

  // Force constant pool for ldr above
  .ltorg

  .cfi_endproc

3:
  .word _libX11_so_tramp_table - (2b + 8) + 128

/*
 * Copyright 2018-2025 Yury Gribov
 *
 * The MIT License (MIT)
 *
 * Use of this source code is governed by MIT license that can be
 * found in the LICENSE.txt file.
 */

  .globl XChangeKeyboardMapping
  .p2align 4
  .type XChangeKeyboardMapping, %function
#ifndef IMPLIB_EXPORT_SHIMS
  .hidden XChangeKeyboardMapping
#endif
XChangeKeyboardMapping:
  .cfi_startproc

1:
  // Load address
  // TODO: can we do this faster on newer ARMs?
  ldr ip, 3f
2:
  add ip, pc, ip
  ldr ip, [ip]

  cmp ip, #0

  // Fast path
  bxne ip

  // Slow path
  ldr ip, =33
  push {ip}
  .cfi_adjust_cfa_offset 4
  PUSH_REG(lr)
  bl _libX11_so_save_regs_and_resolve
  POP_REG(lr)
  add sp, #4
  .cfi_adjust_cfa_offset -4
  bx ip

  // Force constant pool for ldr above
  .ltorg

  .cfi_endproc

3:
  .word _libX11_so_tramp_table - (2b + 8) + 132

/*
 * Copyright 2018-2025 Yury Gribov
 *
 * The MIT License (MIT)
 *
 * Use of this source code is governed by MIT license that can be
 * found in the LICENSE.txt file.
 */

  .globl XChangePointerControl
  .p2align 4
  .type XChangePointerControl, %function
#ifndef IMPLIB_EXPORT_SHIMS
  .hidden XChangePointerControl
#endif
XChangePointerControl:
  .cfi_startproc

1:
  // Load address
  // TODO: can we do this faster on newer ARMs?
  ldr ip, 3f
2:
  add ip, pc, ip
  ldr ip, [ip]

  cmp ip, #0

  // Fast path
  bxne ip

  // Slow path
  ldr ip, =34
  push {ip}
  .cfi_adjust_cfa_offset 4
  PUSH_REG(lr)
  bl _libX11_so_save_regs_and_resolve
  POP_REG(lr)
  add sp, #4
  .cfi_adjust_cfa_offset -4
  bx ip

  // Force constant pool for ldr above
  .ltorg

  .cfi_endproc

3:
  .word _libX11_so_tramp_table - (2b + 8) + 136

/*
 * Copyright 2018-2025 Yury Gribov
 *
 * The MIT License (MIT)
 *
 * Use of this source code is governed by MIT license that can be
 * found in the LICENSE.txt file.
 */

  .globl XChangeProperty
  .p2align 4
  .type XChangeProperty, %function
#ifndef IMPLIB_EXPORT_SHIMS
  .hidden XChangeProperty
#endif
XChangeProperty:
  .cfi_startproc

1:
  // Load address
  // TODO: can we do this faster on newer ARMs?
  ldr ip, 3f
2:
  add ip, pc, ip
  ldr ip, [ip]

  cmp ip, #0

  // Fast path
  bxne ip

  // Slow path
  ldr ip, =35
  push {ip}
  .cfi_adjust_cfa_offset 4
  PUSH_REG(lr)
  bl _libX11_so_save_regs_and_resolve
  POP_REG(lr)
  add sp, #4
  .cfi_adjust_cfa_offset -4
  bx ip

  // Force constant pool for ldr above
  .ltorg

  .cfi_endproc

3:
  .word _libX11_so_tramp_table - (2b + 8) + 140

/*
 * Copyright 2018-2025 Yury Gribov
 *
 * The MIT License (MIT)
 *
 * Use of this source code is governed by MIT license that can be
 * found in the LICENSE.txt file.
 */

  .globl XChangeSaveSet
  .p2align 4
  .type XChangeSaveSet, %function
#ifndef IMPLIB_EXPORT_SHIMS
  .hidden XChangeSaveSet
#endif
XChangeSaveSet:
  .cfi_startproc

1:
  // Load address
  // TODO: can we do this faster on newer ARMs?
  ldr ip, 3f
2:
  add ip, pc, ip
  ldr ip, [ip]

  cmp ip, #0

  // Fast path
  bxne ip

  // Slow path
  ldr ip, =36
  push {ip}
  .cfi_adjust_cfa_offset 4
  PUSH_REG(lr)
  bl _libX11_so_save_regs_and_resolve
  POP_REG(lr)
  add sp, #4
  .cfi_adjust_cfa_offset -4
  bx ip

  // Force constant pool for ldr above
  .ltorg

  .cfi_endproc

3:
  .word _libX11_so_tramp_table - (2b + 8) + 144

/*
 * Copyright 2018-2025 Yury Gribov
 *
 * The MIT License (MIT)
 *
 * Use of this source code is governed by MIT license that can be
 * found in the LICENSE.txt file.
 */

  .globl XChangeWindowAttributes
  .p2align 4
  .type XChangeWindowAttributes, %function
#ifndef IMPLIB_EXPORT_SHIMS
  .hidden XChangeWindowAttributes
#endif
XChangeWindowAttributes:
  .cfi_startproc

1:
  // Load address
  // TODO: can we do this faster on newer ARMs?
  ldr ip, 3f
2:
  add ip, pc, ip
  ldr ip, [ip]

  cmp ip, #0

  // Fast path
  bxne ip

  // Slow path
  ldr ip, =37
  push {ip}
  .cfi_adjust_cfa_offset 4
  PUSH_REG(lr)
  bl _libX11_so_save_regs_and_resolve
  POP_REG(lr)
  add sp, #4
  .cfi_adjust_cfa_offset -4
  bx ip

  // Force constant pool for ldr above
  .ltorg

  .cfi_endproc

3:
  .word _libX11_so_tramp_table - (2b + 8) + 148

/*
 * Copyright 2018-2025 Yury Gribov
 *
 * The MIT License (MIT)
 *
 * Use of this source code is governed by MIT license that can be
 * found in the LICENSE.txt file.
 */

  .globl XCheckIfEvent
  .p2align 4
  .type XCheckIfEvent, %function
#ifndef IMPLIB_EXPORT_SHIMS
  .hidden XCheckIfEvent
#endif
XCheckIfEvent:
  .cfi_startproc

1:
  // Load address
  // TODO: can we do this faster on newer ARMs?
  ldr ip, 3f
2:
  add ip, pc, ip
  ldr ip, [ip]

  cmp ip, #0

  // Fast path
  bxne ip

  // Slow path
  ldr ip, =38
  push {ip}
  .cfi_adjust_cfa_offset 4
  PUSH_REG(lr)
  bl _libX11_so_save_regs_and_resolve
  POP_REG(lr)
  add sp, #4
  .cfi_adjust_cfa_offset -4
  bx ip

  // Force constant pool for ldr above
  .ltorg

  .cfi_endproc

3:
  .word _libX11_so_tramp_table - (2b + 8) + 152

/*
 * Copyright 2018-2025 Yury Gribov
 *
 * The MIT License (MIT)
 *
 * Use of this source code is governed by MIT license that can be
 * found in the LICENSE.txt file.
 */

  .globl XCheckMaskEvent
  .p2align 4
  .type XCheckMaskEvent, %function
#ifndef IMPLIB_EXPORT_SHIMS
  .hidden XCheckMaskEvent
#endif
XCheckMaskEvent:
  .cfi_startproc

1:
  // Load address
  // TODO: can we do this faster on newer ARMs?
  ldr ip, 3f
2:
  add ip, pc, ip
  ldr ip, [ip]

  cmp ip, #0

  // Fast path
  bxne ip

  // Slow path
  ldr ip, =39
  push {ip}
  .cfi_adjust_cfa_offset 4
  PUSH_REG(lr)
  bl _libX11_so_save_regs_and_resolve
  POP_REG(lr)
  add sp, #4
  .cfi_adjust_cfa_offset -4
  bx ip

  // Force constant pool for ldr above
  .ltorg

  .cfi_endproc

3:
  .word _libX11_so_tramp_table - (2b + 8) + 156

/*
 * Copyright 2018-2025 Yury Gribov
 *
 * The MIT License (MIT)
 *
 * Use of this source code is governed by MIT license that can be
 * found in the LICENSE.txt file.
 */

  .globl XCheckTypedEvent
  .p2align 4
  .type XCheckTypedEvent, %function
#ifndef IMPLIB_EXPORT_SHIMS
  .hidden XCheckTypedEvent
#endif
XCheckTypedEvent:
  .cfi_startproc

1:
  // Load address
  // TODO: can we do this faster on newer ARMs?
  ldr ip, 3f
2:
  add ip, pc, ip
  ldr ip, [ip]

  cmp ip, #0

  // Fast path
  bxne ip

  // Slow path
  ldr ip, =40
  push {ip}
  .cfi_adjust_cfa_offset 4
  PUSH_REG(lr)
  bl _libX11_so_save_regs_and_resolve
  POP_REG(lr)
  add sp, #4
  .cfi_adjust_cfa_offset -4
  bx ip

  // Force constant pool for ldr above
  .ltorg

  .cfi_endproc

3:
  .word _libX11_so_tramp_table - (2b + 8) + 160

/*
 * Copyright 2018-2025 Yury Gribov
 *
 * The MIT License (MIT)
 *
 * Use of this source code is governed by MIT license that can be
 * found in the LICENSE.txt file.
 */

  .globl XCheckTypedWindowEvent
  .p2align 4
  .type XCheckTypedWindowEvent, %function
#ifndef IMPLIB_EXPORT_SHIMS
  .hidden XCheckTypedWindowEvent
#endif
XCheckTypedWindowEvent:
  .cfi_startproc

1:
  // Load address
  // TODO: can we do this faster on newer ARMs?
  ldr ip, 3f
2:
  add ip, pc, ip
  ldr ip, [ip]

  cmp ip, #0

  // Fast path
  bxne ip

  // Slow path
  ldr ip, =41
  push {ip}
  .cfi_adjust_cfa_offset 4
  PUSH_REG(lr)
  bl _libX11_so_save_regs_and_resolve
  POP_REG(lr)
  add sp, #4
  .cfi_adjust_cfa_offset -4
  bx ip

  // Force constant pool for ldr above
  .ltorg

  .cfi_endproc

3:
  .word _libX11_so_tramp_table - (2b + 8) + 164

/*
 * Copyright 2018-2025 Yury Gribov
 *
 * The MIT License (MIT)
 *
 * Use of this source code is governed by MIT license that can be
 * found in the LICENSE.txt file.
 */

  .globl XCheckWindowEvent
  .p2align 4
  .type XCheckWindowEvent, %function
#ifndef IMPLIB_EXPORT_SHIMS
  .hidden XCheckWindowEvent
#endif
XCheckWindowEvent:
  .cfi_startproc

1:
  // Load address
  // TODO: can we do this faster on newer ARMs?
  ldr ip, 3f
2:
  add ip, pc, ip
  ldr ip, [ip]

  cmp ip, #0

  // Fast path
  bxne ip

  // Slow path
  ldr ip, =42
  push {ip}
  .cfi_adjust_cfa_offset 4
  PUSH_REG(lr)
  bl _libX11_so_save_regs_and_resolve
  POP_REG(lr)
  add sp, #4
  .cfi_adjust_cfa_offset -4
  bx ip

  // Force constant pool for ldr above
  .ltorg

  .cfi_endproc

3:
  .word _libX11_so_tramp_table - (2b + 8) + 168

/*
 * Copyright 2018-2025 Yury Gribov
 *
 * The MIT License (MIT)
 *
 * Use of this source code is governed by MIT license that can be
 * found in the LICENSE.txt file.
 */

  .globl XCirculateSubwindows
  .p2align 4
  .type XCirculateSubwindows, %function
#ifndef IMPLIB_EXPORT_SHIMS
  .hidden XCirculateSubwindows
#endif
XCirculateSubwindows:
  .cfi_startproc

1:
  // Load address
  // TODO: can we do this faster on newer ARMs?
  ldr ip, 3f
2:
  add ip, pc, ip
  ldr ip, [ip]

  cmp ip, #0

  // Fast path
  bxne ip

  // Slow path
  ldr ip, =43
  push {ip}
  .cfi_adjust_cfa_offset 4
  PUSH_REG(lr)
  bl _libX11_so_save_regs_and_resolve
  POP_REG(lr)
  add sp, #4
  .cfi_adjust_cfa_offset -4
  bx ip

  // Force constant pool for ldr above
  .ltorg

  .cfi_endproc

3:
  .word _libX11_so_tramp_table - (2b + 8) + 172

/*
 * Copyright 2018-2025 Yury Gribov
 *
 * The MIT License (MIT)
 *
 * Use of this source code is governed by MIT license that can be
 * found in the LICENSE.txt file.
 */

  .globl XCirculateSubwindowsDown
  .p2align 4
  .type XCirculateSubwindowsDown, %function
#ifndef IMPLIB_EXPORT_SHIMS
  .hidden XCirculateSubwindowsDown
#endif
XCirculateSubwindowsDown:
  .cfi_startproc

1:
  // Load address
  // TODO: can we do this faster on newer ARMs?
  ldr ip, 3f
2:
  add ip, pc, ip
  ldr ip, [ip]

  cmp ip, #0

  // Fast path
  bxne ip

  // Slow path
  ldr ip, =44
  push {ip}
  .cfi_adjust_cfa_offset 4
  PUSH_REG(lr)
  bl _libX11_so_save_regs_and_resolve
  POP_REG(lr)
  add sp, #4
  .cfi_adjust_cfa_offset -4
  bx ip

  // Force constant pool for ldr above
  .ltorg

  .cfi_endproc

3:
  .word _libX11_so_tramp_table - (2b + 8) + 176

/*
 * Copyright 2018-2025 Yury Gribov
 *
 * The MIT License (MIT)
 *
 * Use of this source code is governed by MIT license that can be
 * found in the LICENSE.txt file.
 */

  .globl XCirculateSubwindowsUp
  .p2align 4
  .type XCirculateSubwindowsUp, %function
#ifndef IMPLIB_EXPORT_SHIMS
  .hidden XCirculateSubwindowsUp
#endif
XCirculateSubwindowsUp:
  .cfi_startproc

1:
  // Load address
  // TODO: can we do this faster on newer ARMs?
  ldr ip, 3f
2:
  add ip, pc, ip
  ldr ip, [ip]

  cmp ip, #0

  // Fast path
  bxne ip

  // Slow path
  ldr ip, =45
  push {ip}
  .cfi_adjust_cfa_offset 4
  PUSH_REG(lr)
  bl _libX11_so_save_regs_and_resolve
  POP_REG(lr)
  add sp, #4
  .cfi_adjust_cfa_offset -4
  bx ip

  // Force constant pool for ldr above
  .ltorg

  .cfi_endproc

3:
  .word _libX11_so_tramp_table - (2b + 8) + 180

/*
 * Copyright 2018-2025 Yury Gribov
 *
 * The MIT License (MIT)
 *
 * Use of this source code is governed by MIT license that can be
 * found in the LICENSE.txt file.
 */

  .globl XClearArea
  .p2align 4
  .type XClearArea, %function
#ifndef IMPLIB_EXPORT_SHIMS
  .hidden XClearArea
#endif
XClearArea:
  .cfi_startproc

1:
  // Load address
  // TODO: can we do this faster on newer ARMs?
  ldr ip, 3f
2:
  add ip, pc, ip
  ldr ip, [ip]

  cmp ip, #0

  // Fast path
  bxne ip

  // Slow path
  ldr ip, =46
  push {ip}
  .cfi_adjust_cfa_offset 4
  PUSH_REG(lr)
  bl _libX11_so_save_regs_and_resolve
  POP_REG(lr)
  add sp, #4
  .cfi_adjust_cfa_offset -4
  bx ip

  // Force constant pool for ldr above
  .ltorg

  .cfi_endproc

3:
  .word _libX11_so_tramp_table - (2b + 8) + 184

/*
 * Copyright 2018-2025 Yury Gribov
 *
 * The MIT License (MIT)
 *
 * Use of this source code is governed by MIT license that can be
 * found in the LICENSE.txt file.
 */

  .globl XClearWindow
  .p2align 4
  .type XClearWindow, %function
#ifndef IMPLIB_EXPORT_SHIMS
  .hidden XClearWindow
#endif
XClearWindow:
  .cfi_startproc

1:
  // Load address
  // TODO: can we do this faster on newer ARMs?
  ldr ip, 3f
2:
  add ip, pc, ip
  ldr ip, [ip]

  cmp ip, #0

  // Fast path
  bxne ip

  // Slow path
  ldr ip, =47
  push {ip}
  .cfi_adjust_cfa_offset 4
  PUSH_REG(lr)
  bl _libX11_so_save_regs_and_resolve
  POP_REG(lr)
  add sp, #4
  .cfi_adjust_cfa_offset -4
  bx ip

  // Force constant pool for ldr above
  .ltorg

  .cfi_endproc

3:
  .word _libX11_so_tramp_table - (2b + 8) + 188

/*
 * Copyright 2018-2025 Yury Gribov
 *
 * The MIT License (MIT)
 *
 * Use of this source code is governed by MIT license that can be
 * found in the LICENSE.txt file.
 */

  .globl XClipBox
  .p2align 4
  .type XClipBox, %function
#ifndef IMPLIB_EXPORT_SHIMS
  .hidden XClipBox
#endif
XClipBox:
  .cfi_startproc

1:
  // Load address
  // TODO: can we do this faster on newer ARMs?
  ldr ip, 3f
2:
  add ip, pc, ip
  ldr ip, [ip]

  cmp ip, #0

  // Fast path
  bxne ip

  // Slow path
  ldr ip, =48
  push {ip}
  .cfi_adjust_cfa_offset 4
  PUSH_REG(lr)
  bl _libX11_so_save_regs_and_resolve
  POP_REG(lr)
  add sp, #4
  .cfi_adjust_cfa_offset -4
  bx ip

  // Force constant pool for ldr above
  .ltorg

  .cfi_endproc

3:
  .word _libX11_so_tramp_table - (2b + 8) + 192

/*
 * Copyright 2018-2025 Yury Gribov
 *
 * The MIT License (MIT)
 *
 * Use of this source code is governed by MIT license that can be
 * found in the LICENSE.txt file.
 */

  .globl XCloseDisplay
  .p2align 4
  .type XCloseDisplay, %function
#ifndef IMPLIB_EXPORT_SHIMS
  .hidden XCloseDisplay
#endif
XCloseDisplay:
  .cfi_startproc

1:
  // Load address
  // TODO: can we do this faster on newer ARMs?
  ldr ip, 3f
2:
  add ip, pc, ip
  ldr ip, [ip]

  cmp ip, #0

  // Fast path
  bxne ip

  // Slow path
  ldr ip, =49
  push {ip}
  .cfi_adjust_cfa_offset 4
  PUSH_REG(lr)
  bl _libX11_so_save_regs_and_resolve
  POP_REG(lr)
  add sp, #4
  .cfi_adjust_cfa_offset -4
  bx ip

  // Force constant pool for ldr above
  .ltorg

  .cfi_endproc

3:
  .word _libX11_so_tramp_table - (2b + 8) + 196

/*
 * Copyright 2018-2025 Yury Gribov
 *
 * The MIT License (MIT)
 *
 * Use of this source code is governed by MIT license that can be
 * found in the LICENSE.txt file.
 */

  .globl XCloseIM
  .p2align 4
  .type XCloseIM, %function
#ifndef IMPLIB_EXPORT_SHIMS
  .hidden XCloseIM
#endif
XCloseIM:
  .cfi_startproc

1:
  // Load address
  // TODO: can we do this faster on newer ARMs?
  ldr ip, 3f
2:
  add ip, pc, ip
  ldr ip, [ip]

  cmp ip, #0

  // Fast path
  bxne ip

  // Slow path
  ldr ip, =50
  push {ip}
  .cfi_adjust_cfa_offset 4
  PUSH_REG(lr)
  bl _libX11_so_save_regs_and_resolve
  POP_REG(lr)
  add sp, #4
  .cfi_adjust_cfa_offset -4
  bx ip

  // Force constant pool for ldr above
  .ltorg

  .cfi_endproc

3:
  .word _libX11_so_tramp_table - (2b + 8) + 200

/*
 * Copyright 2018-2025 Yury Gribov
 *
 * The MIT License (MIT)
 *
 * Use of this source code is governed by MIT license that can be
 * found in the LICENSE.txt file.
 */

  .globl XCloseOM
  .p2align 4
  .type XCloseOM, %function
#ifndef IMPLIB_EXPORT_SHIMS
  .hidden XCloseOM
#endif
XCloseOM:
  .cfi_startproc

1:
  // Load address
  // TODO: can we do this faster on newer ARMs?
  ldr ip, 3f
2:
  add ip, pc, ip
  ldr ip, [ip]

  cmp ip, #0

  // Fast path
  bxne ip

  // Slow path
  ldr ip, =51
  push {ip}
  .cfi_adjust_cfa_offset 4
  PUSH_REG(lr)
  bl _libX11_so_save_regs_and_resolve
  POP_REG(lr)
  add sp, #4
  .cfi_adjust_cfa_offset -4
  bx ip

  // Force constant pool for ldr above
  .ltorg

  .cfi_endproc

3:
  .word _libX11_so_tramp_table - (2b + 8) + 204

/*
 * Copyright 2018-2025 Yury Gribov
 *
 * The MIT License (MIT)
 *
 * Use of this source code is governed by MIT license that can be
 * found in the LICENSE.txt file.
 */

  .globl XConfigureWindow
  .p2align 4
  .type XConfigureWindow, %function
#ifndef IMPLIB_EXPORT_SHIMS
  .hidden XConfigureWindow
#endif
XConfigureWindow:
  .cfi_startproc

1:
  // Load address
  // TODO: can we do this faster on newer ARMs?
  ldr ip, 3f
2:
  add ip, pc, ip
  ldr ip, [ip]

  cmp ip, #0

  // Fast path
  bxne ip

  // Slow path
  ldr ip, =52
  push {ip}
  .cfi_adjust_cfa_offset 4
  PUSH_REG(lr)
  bl _libX11_so_save_regs_and_resolve
  POP_REG(lr)
  add sp, #4
  .cfi_adjust_cfa_offset -4
  bx ip

  // Force constant pool for ldr above
  .ltorg

  .cfi_endproc

3:
  .word _libX11_so_tramp_table - (2b + 8) + 208

/*
 * Copyright 2018-2025 Yury Gribov
 *
 * The MIT License (MIT)
 *
 * Use of this source code is governed by MIT license that can be
 * found in the LICENSE.txt file.
 */

  .globl XConnectionNumber
  .p2align 4
  .type XConnectionNumber, %function
#ifndef IMPLIB_EXPORT_SHIMS
  .hidden XConnectionNumber
#endif
XConnectionNumber:
  .cfi_startproc

1:
  // Load address
  // TODO: can we do this faster on newer ARMs?
  ldr ip, 3f
2:
  add ip, pc, ip
  ldr ip, [ip]

  cmp ip, #0

  // Fast path
  bxne ip

  // Slow path
  ldr ip, =53
  push {ip}
  .cfi_adjust_cfa_offset 4
  PUSH_REG(lr)
  bl _libX11_so_save_regs_and_resolve
  POP_REG(lr)
  add sp, #4
  .cfi_adjust_cfa_offset -4
  bx ip

  // Force constant pool for ldr above
  .ltorg

  .cfi_endproc

3:
  .word _libX11_so_tramp_table - (2b + 8) + 212

/*
 * Copyright 2018-2025 Yury Gribov
 *
 * The MIT License (MIT)
 *
 * Use of this source code is governed by MIT license that can be
 * found in the LICENSE.txt file.
 */

  .globl XContextDependentDrawing
  .p2align 4
  .type XContextDependentDrawing, %function
#ifndef IMPLIB_EXPORT_SHIMS
  .hidden XContextDependentDrawing
#endif
XContextDependentDrawing:
  .cfi_startproc

1:
  // Load address
  // TODO: can we do this faster on newer ARMs?
  ldr ip, 3f
2:
  add ip, pc, ip
  ldr ip, [ip]

  cmp ip, #0

  // Fast path
  bxne ip

  // Slow path
  ldr ip, =54
  push {ip}
  .cfi_adjust_cfa_offset 4
  PUSH_REG(lr)
  bl _libX11_so_save_regs_and_resolve
  POP_REG(lr)
  add sp, #4
  .cfi_adjust_cfa_offset -4
  bx ip

  // Force constant pool for ldr above
  .ltorg

  .cfi_endproc

3:
  .word _libX11_so_tramp_table - (2b + 8) + 216

/*
 * Copyright 2018-2025 Yury Gribov
 *
 * The MIT License (MIT)
 *
 * Use of this source code is governed by MIT license that can be
 * found in the LICENSE.txt file.
 */

  .globl XContextualDrawing
  .p2align 4
  .type XContextualDrawing, %function
#ifndef IMPLIB_EXPORT_SHIMS
  .hidden XContextualDrawing
#endif
XContextualDrawing:
  .cfi_startproc

1:
  // Load address
  // TODO: can we do this faster on newer ARMs?
  ldr ip, 3f
2:
  add ip, pc, ip
  ldr ip, [ip]

  cmp ip, #0

  // Fast path
  bxne ip

  // Slow path
  ldr ip, =55
  push {ip}
  .cfi_adjust_cfa_offset 4
  PUSH_REG(lr)
  bl _libX11_so_save_regs_and_resolve
  POP_REG(lr)
  add sp, #4
  .cfi_adjust_cfa_offset -4
  bx ip

  // Force constant pool for ldr above
  .ltorg

  .cfi_endproc

3:
  .word _libX11_so_tramp_table - (2b + 8) + 220

/*
 * Copyright 2018-2025 Yury Gribov
 *
 * The MIT License (MIT)
 *
 * Use of this source code is governed by MIT license that can be
 * found in the LICENSE.txt file.
 */

  .globl XConvertCase
  .p2align 4
  .type XConvertCase, %function
#ifndef IMPLIB_EXPORT_SHIMS
  .hidden XConvertCase
#endif
XConvertCase:
  .cfi_startproc

1:
  // Load address
  // TODO: can we do this faster on newer ARMs?
  ldr ip, 3f
2:
  add ip, pc, ip
  ldr ip, [ip]

  cmp ip, #0

  // Fast path
  bxne ip

  // Slow path
  ldr ip, =56
  push {ip}
  .cfi_adjust_cfa_offset 4
  PUSH_REG(lr)
  bl _libX11_so_save_regs_and_resolve
  POP_REG(lr)
  add sp, #4
  .cfi_adjust_cfa_offset -4
  bx ip

  // Force constant pool for ldr above
  .ltorg

  .cfi_endproc

3:
  .word _libX11_so_tramp_table - (2b + 8) + 224

/*
 * Copyright 2018-2025 Yury Gribov
 *
 * The MIT License (MIT)
 *
 * Use of this source code is governed by MIT license that can be
 * found in the LICENSE.txt file.
 */

  .globl XConvertSelection
  .p2align 4
  .type XConvertSelection, %function
#ifndef IMPLIB_EXPORT_SHIMS
  .hidden XConvertSelection
#endif
XConvertSelection:
  .cfi_startproc

1:
  // Load address
  // TODO: can we do this faster on newer ARMs?
  ldr ip, 3f
2:
  add ip, pc, ip
  ldr ip, [ip]

  cmp ip, #0

  // Fast path
  bxne ip

  // Slow path
  ldr ip, =57
  push {ip}
  .cfi_adjust_cfa_offset 4
  PUSH_REG(lr)
  bl _libX11_so_save_regs_and_resolve
  POP_REG(lr)
  add sp, #4
  .cfi_adjust_cfa_offset -4
  bx ip

  // Force constant pool for ldr above
  .ltorg

  .cfi_endproc

3:
  .word _libX11_so_tramp_table - (2b + 8) + 228

/*
 * Copyright 2018-2025 Yury Gribov
 *
 * The MIT License (MIT)
 *
 * Use of this source code is governed by MIT license that can be
 * found in the LICENSE.txt file.
 */

  .globl XCopyArea
  .p2align 4
  .type XCopyArea, %function
#ifndef IMPLIB_EXPORT_SHIMS
  .hidden XCopyArea
#endif
XCopyArea:
  .cfi_startproc

1:
  // Load address
  // TODO: can we do this faster on newer ARMs?
  ldr ip, 3f
2:
  add ip, pc, ip
  ldr ip, [ip]

  cmp ip, #0

  // Fast path
  bxne ip

  // Slow path
  ldr ip, =58
  push {ip}
  .cfi_adjust_cfa_offset 4
  PUSH_REG(lr)
  bl _libX11_so_save_regs_and_resolve
  POP_REG(lr)
  add sp, #4
  .cfi_adjust_cfa_offset -4
  bx ip

  // Force constant pool for ldr above
  .ltorg

  .cfi_endproc

3:
  .word _libX11_so_tramp_table - (2b + 8) + 232

/*
 * Copyright 2018-2025 Yury Gribov
 *
 * The MIT License (MIT)
 *
 * Use of this source code is governed by MIT license that can be
 * found in the LICENSE.txt file.
 */

  .globl XCopyColormapAndFree
  .p2align 4
  .type XCopyColormapAndFree, %function
#ifndef IMPLIB_EXPORT_SHIMS
  .hidden XCopyColormapAndFree
#endif
XCopyColormapAndFree:
  .cfi_startproc

1:
  // Load address
  // TODO: can we do this faster on newer ARMs?
  ldr ip, 3f
2:
  add ip, pc, ip
  ldr ip, [ip]

  cmp ip, #0

  // Fast path
  bxne ip

  // Slow path
  ldr ip, =59
  push {ip}
  .cfi_adjust_cfa_offset 4
  PUSH_REG(lr)
  bl _libX11_so_save_regs_and_resolve
  POP_REG(lr)
  add sp, #4
  .cfi_adjust_cfa_offset -4
  bx ip

  // Force constant pool for ldr above
  .ltorg

  .cfi_endproc

3:
  .word _libX11_so_tramp_table - (2b + 8) + 236

/*
 * Copyright 2018-2025 Yury Gribov
 *
 * The MIT License (MIT)
 *
 * Use of this source code is governed by MIT license that can be
 * found in the LICENSE.txt file.
 */

  .globl XCopyGC
  .p2align 4
  .type XCopyGC, %function
#ifndef IMPLIB_EXPORT_SHIMS
  .hidden XCopyGC
#endif
XCopyGC:
  .cfi_startproc

1:
  // Load address
  // TODO: can we do this faster on newer ARMs?
  ldr ip, 3f
2:
  add ip, pc, ip
  ldr ip, [ip]

  cmp ip, #0

  // Fast path
  bxne ip

  // Slow path
  ldr ip, =60
  push {ip}
  .cfi_adjust_cfa_offset 4
  PUSH_REG(lr)
  bl _libX11_so_save_regs_and_resolve
  POP_REG(lr)
  add sp, #4
  .cfi_adjust_cfa_offset -4
  bx ip

  // Force constant pool for ldr above
  .ltorg

  .cfi_endproc

3:
  .word _libX11_so_tramp_table - (2b + 8) + 240

/*
 * Copyright 2018-2025 Yury Gribov
 *
 * The MIT License (MIT)
 *
 * Use of this source code is governed by MIT license that can be
 * found in the LICENSE.txt file.
 */

  .globl XCopyPlane
  .p2align 4
  .type XCopyPlane, %function
#ifndef IMPLIB_EXPORT_SHIMS
  .hidden XCopyPlane
#endif
XCopyPlane:
  .cfi_startproc

1:
  // Load address
  // TODO: can we do this faster on newer ARMs?
  ldr ip, 3f
2:
  add ip, pc, ip
  ldr ip, [ip]

  cmp ip, #0

  // Fast path
  bxne ip

  // Slow path
  ldr ip, =61
  push {ip}
  .cfi_adjust_cfa_offset 4
  PUSH_REG(lr)
  bl _libX11_so_save_regs_and_resolve
  POP_REG(lr)
  add sp, #4
  .cfi_adjust_cfa_offset -4
  bx ip

  // Force constant pool for ldr above
  .ltorg

  .cfi_endproc

3:
  .word _libX11_so_tramp_table - (2b + 8) + 244

/*
 * Copyright 2018-2025 Yury Gribov
 *
 * The MIT License (MIT)
 *
 * Use of this source code is governed by MIT license that can be
 * found in the LICENSE.txt file.
 */

  .globl XCreateBitmapFromData
  .p2align 4
  .type XCreateBitmapFromData, %function
#ifndef IMPLIB_EXPORT_SHIMS
  .hidden XCreateBitmapFromData
#endif
XCreateBitmapFromData:
  .cfi_startproc

1:
  // Load address
  // TODO: can we do this faster on newer ARMs?
  ldr ip, 3f
2:
  add ip, pc, ip
  ldr ip, [ip]

  cmp ip, #0

  // Fast path
  bxne ip

  // Slow path
  ldr ip, =62
  push {ip}
  .cfi_adjust_cfa_offset 4
  PUSH_REG(lr)
  bl _libX11_so_save_regs_and_resolve
  POP_REG(lr)
  add sp, #4
  .cfi_adjust_cfa_offset -4
  bx ip

  // Force constant pool for ldr above
  .ltorg

  .cfi_endproc

3:
  .word _libX11_so_tramp_table - (2b + 8) + 248

/*
 * Copyright 2018-2025 Yury Gribov
 *
 * The MIT License (MIT)
 *
 * Use of this source code is governed by MIT license that can be
 * found in the LICENSE.txt file.
 */

  .globl XCreateColormap
  .p2align 4
  .type XCreateColormap, %function
#ifndef IMPLIB_EXPORT_SHIMS
  .hidden XCreateColormap
#endif
XCreateColormap:
  .cfi_startproc

1:
  // Load address
  // TODO: can we do this faster on newer ARMs?
  ldr ip, 3f
2:
  add ip, pc, ip
  ldr ip, [ip]

  cmp ip, #0

  // Fast path
  bxne ip

  // Slow path
  ldr ip, =63
  push {ip}
  .cfi_adjust_cfa_offset 4
  PUSH_REG(lr)
  bl _libX11_so_save_regs_and_resolve
  POP_REG(lr)
  add sp, #4
  .cfi_adjust_cfa_offset -4
  bx ip

  // Force constant pool for ldr above
  .ltorg

  .cfi_endproc

3:
  .word _libX11_so_tramp_table - (2b + 8) + 252

/*
 * Copyright 2018-2025 Yury Gribov
 *
 * The MIT License (MIT)
 *
 * Use of this source code is governed by MIT license that can be
 * found in the LICENSE.txt file.
 */

  .globl XCreateFontCursor
  .p2align 4
  .type XCreateFontCursor, %function
#ifndef IMPLIB_EXPORT_SHIMS
  .hidden XCreateFontCursor
#endif
XCreateFontCursor:
  .cfi_startproc

1:
  // Load address
  // TODO: can we do this faster on newer ARMs?
  ldr ip, 3f
2:
  add ip, pc, ip
  ldr ip, [ip]

  cmp ip, #0

  // Fast path
  bxne ip

  // Slow path
  ldr ip, =64
  push {ip}
  .cfi_adjust_cfa_offset 4
  PUSH_REG(lr)
  bl _libX11_so_save_regs_and_resolve
  POP_REG(lr)
  add sp, #4
  .cfi_adjust_cfa_offset -4
  bx ip

  // Force constant pool for ldr above
  .ltorg

  .cfi_endproc

3:
  .word _libX11_so_tramp_table - (2b + 8) + 256

/*
 * Copyright 2018-2025 Yury Gribov
 *
 * The MIT License (MIT)
 *
 * Use of this source code is governed by MIT license that can be
 * found in the LICENSE.txt file.
 */

  .globl XCreateFontSet
  .p2align 4
  .type XCreateFontSet, %function
#ifndef IMPLIB_EXPORT_SHIMS
  .hidden XCreateFontSet
#endif
XCreateFontSet:
  .cfi_startproc

1:
  // Load address
  // TODO: can we do this faster on newer ARMs?
  ldr ip, 3f
2:
  add ip, pc, ip
  ldr ip, [ip]

  cmp ip, #0

  // Fast path
  bxne ip

  // Slow path
  ldr ip, =65
  push {ip}
  .cfi_adjust_cfa_offset 4
  PUSH_REG(lr)
  bl _libX11_so_save_regs_and_resolve
  POP_REG(lr)
  add sp, #4
  .cfi_adjust_cfa_offset -4
  bx ip

  // Force constant pool for ldr above
  .ltorg

  .cfi_endproc

3:
  .word _libX11_so_tramp_table - (2b + 8) + 260

/*
 * Copyright 2018-2025 Yury Gribov
 *
 * The MIT License (MIT)
 *
 * Use of this source code is governed by MIT license that can be
 * found in the LICENSE.txt file.
 */

  .globl XCreateGC
  .p2align 4
  .type XCreateGC, %function
#ifndef IMPLIB_EXPORT_SHIMS
  .hidden XCreateGC
#endif
XCreateGC:
  .cfi_startproc

1:
  // Load address
  // TODO: can we do this faster on newer ARMs?
  ldr ip, 3f
2:
  add ip, pc, ip
  ldr ip, [ip]

  cmp ip, #0

  // Fast path
  bxne ip

  // Slow path
  ldr ip, =66
  push {ip}
  .cfi_adjust_cfa_offset 4
  PUSH_REG(lr)
  bl _libX11_so_save_regs_and_resolve
  POP_REG(lr)
  add sp, #4
  .cfi_adjust_cfa_offset -4
  bx ip

  // Force constant pool for ldr above
  .ltorg

  .cfi_endproc

3:
  .word _libX11_so_tramp_table - (2b + 8) + 264

/*
 * Copyright 2018-2025 Yury Gribov
 *
 * The MIT License (MIT)
 *
 * Use of this source code is governed by MIT license that can be
 * found in the LICENSE.txt file.
 */

  .globl XCreateGlyphCursor
  .p2align 4
  .type XCreateGlyphCursor, %function
#ifndef IMPLIB_EXPORT_SHIMS
  .hidden XCreateGlyphCursor
#endif
XCreateGlyphCursor:
  .cfi_startproc

1:
  // Load address
  // TODO: can we do this faster on newer ARMs?
  ldr ip, 3f
2:
  add ip, pc, ip
  ldr ip, [ip]

  cmp ip, #0

  // Fast path
  bxne ip

  // Slow path
  ldr ip, =67
  push {ip}
  .cfi_adjust_cfa_offset 4
  PUSH_REG(lr)
  bl _libX11_so_save_regs_and_resolve
  POP_REG(lr)
  add sp, #4
  .cfi_adjust_cfa_offset -4
  bx ip

  // Force constant pool for ldr above
  .ltorg

  .cfi_endproc

3:
  .word _libX11_so_tramp_table - (2b + 8) + 268

/*
 * Copyright 2018-2025 Yury Gribov
 *
 * The MIT License (MIT)
 *
 * Use of this source code is governed by MIT license that can be
 * found in the LICENSE.txt file.
 */

  .globl XCreateIC
  .p2align 4
  .type XCreateIC, %function
#ifndef IMPLIB_EXPORT_SHIMS
  .hidden XCreateIC
#endif
XCreateIC:
  .cfi_startproc

1:
  // Load address
  // TODO: can we do this faster on newer ARMs?
  ldr ip, 3f
2:
  add ip, pc, ip
  ldr ip, [ip]

  cmp ip, #0

  // Fast path
  bxne ip

  // Slow path
  ldr ip, =68
  push {ip}
  .cfi_adjust_cfa_offset 4
  PUSH_REG(lr)
  bl _libX11_so_save_regs_and_resolve
  POP_REG(lr)
  add sp, #4
  .cfi_adjust_cfa_offset -4
  bx ip

  // Force constant pool for ldr above
  .ltorg

  .cfi_endproc

3:
  .word _libX11_so_tramp_table - (2b + 8) + 272

/*
 * Copyright 2018-2025 Yury Gribov
 *
 * The MIT License (MIT)
 *
 * Use of this source code is governed by MIT license that can be
 * found in the LICENSE.txt file.
 */

  .globl XCreateImage
  .p2align 4
  .type XCreateImage, %function
#ifndef IMPLIB_EXPORT_SHIMS
  .hidden XCreateImage
#endif
XCreateImage:
  .cfi_startproc

1:
  // Load address
  // TODO: can we do this faster on newer ARMs?
  ldr ip, 3f
2:
  add ip, pc, ip
  ldr ip, [ip]

  cmp ip, #0

  // Fast path
  bxne ip

  // Slow path
  ldr ip, =69
  push {ip}
  .cfi_adjust_cfa_offset 4
  PUSH_REG(lr)
  bl _libX11_so_save_regs_and_resolve
  POP_REG(lr)
  add sp, #4
  .cfi_adjust_cfa_offset -4
  bx ip

  // Force constant pool for ldr above
  .ltorg

  .cfi_endproc

3:
  .word _libX11_so_tramp_table - (2b + 8) + 276

/*
 * Copyright 2018-2025 Yury Gribov
 *
 * The MIT License (MIT)
 *
 * Use of this source code is governed by MIT license that can be
 * found in the LICENSE.txt file.
 */

  .globl XCreateOC
  .p2align 4
  .type XCreateOC, %function
#ifndef IMPLIB_EXPORT_SHIMS
  .hidden XCreateOC
#endif
XCreateOC:
  .cfi_startproc

1:
  // Load address
  // TODO: can we do this faster on newer ARMs?
  ldr ip, 3f
2:
  add ip, pc, ip
  ldr ip, [ip]

  cmp ip, #0

  // Fast path
  bxne ip

  // Slow path
  ldr ip, =70
  push {ip}
  .cfi_adjust_cfa_offset 4
  PUSH_REG(lr)
  bl _libX11_so_save_regs_and_resolve
  POP_REG(lr)
  add sp, #4
  .cfi_adjust_cfa_offset -4
  bx ip

  // Force constant pool for ldr above
  .ltorg

  .cfi_endproc

3:
  .word _libX11_so_tramp_table - (2b + 8) + 280

/*
 * Copyright 2018-2025 Yury Gribov
 *
 * The MIT License (MIT)
 *
 * Use of this source code is governed by MIT license that can be
 * found in the LICENSE.txt file.
 */

  .globl XCreatePixmap
  .p2align 4
  .type XCreatePixmap, %function
#ifndef IMPLIB_EXPORT_SHIMS
  .hidden XCreatePixmap
#endif
XCreatePixmap:
  .cfi_startproc

1:
  // Load address
  // TODO: can we do this faster on newer ARMs?
  ldr ip, 3f
2:
  add ip, pc, ip
  ldr ip, [ip]

  cmp ip, #0

  // Fast path
  bxne ip

  // Slow path
  ldr ip, =71
  push {ip}
  .cfi_adjust_cfa_offset 4
  PUSH_REG(lr)
  bl _libX11_so_save_regs_and_resolve
  POP_REG(lr)
  add sp, #4
  .cfi_adjust_cfa_offset -4
  bx ip

  // Force constant pool for ldr above
  .ltorg

  .cfi_endproc

3:
  .word _libX11_so_tramp_table - (2b + 8) + 284

/*
 * Copyright 2018-2025 Yury Gribov
 *
 * The MIT License (MIT)
 *
 * Use of this source code is governed by MIT license that can be
 * found in the LICENSE.txt file.
 */

  .globl XCreatePixmapCursor
  .p2align 4
  .type XCreatePixmapCursor, %function
#ifndef IMPLIB_EXPORT_SHIMS
  .hidden XCreatePixmapCursor
#endif
XCreatePixmapCursor:
  .cfi_startproc

1:
  // Load address
  // TODO: can we do this faster on newer ARMs?
  ldr ip, 3f
2:
  add ip, pc, ip
  ldr ip, [ip]

  cmp ip, #0

  // Fast path
  bxne ip

  // Slow path
  ldr ip, =72
  push {ip}
  .cfi_adjust_cfa_offset 4
  PUSH_REG(lr)
  bl _libX11_so_save_regs_and_resolve
  POP_REG(lr)
  add sp, #4
  .cfi_adjust_cfa_offset -4
  bx ip

  // Force constant pool for ldr above
  .ltorg

  .cfi_endproc

3:
  .word _libX11_so_tramp_table - (2b + 8) + 288

/*
 * Copyright 2018-2025 Yury Gribov
 *
 * The MIT License (MIT)
 *
 * Use of this source code is governed by MIT license that can be
 * found in the LICENSE.txt file.
 */

  .globl XCreatePixmapFromBitmapData
  .p2align 4
  .type XCreatePixmapFromBitmapData, %function
#ifndef IMPLIB_EXPORT_SHIMS
  .hidden XCreatePixmapFromBitmapData
#endif
XCreatePixmapFromBitmapData:
  .cfi_startproc

1:
  // Load address
  // TODO: can we do this faster on newer ARMs?
  ldr ip, 3f
2:
  add ip, pc, ip
  ldr ip, [ip]

  cmp ip, #0

  // Fast path
  bxne ip

  // Slow path
  ldr ip, =73
  push {ip}
  .cfi_adjust_cfa_offset 4
  PUSH_REG(lr)
  bl _libX11_so_save_regs_and_resolve
  POP_REG(lr)
  add sp, #4
  .cfi_adjust_cfa_offset -4
  bx ip

  // Force constant pool for ldr above
  .ltorg

  .cfi_endproc

3:
  .word _libX11_so_tramp_table - (2b + 8) + 292

/*
 * Copyright 2018-2025 Yury Gribov
 *
 * The MIT License (MIT)
 *
 * Use of this source code is governed by MIT license that can be
 * found in the LICENSE.txt file.
 */

  .globl XCreateRegion
  .p2align 4
  .type XCreateRegion, %function
#ifndef IMPLIB_EXPORT_SHIMS
  .hidden XCreateRegion
#endif
XCreateRegion:
  .cfi_startproc

1:
  // Load address
  // TODO: can we do this faster on newer ARMs?
  ldr ip, 3f
2:
  add ip, pc, ip
  ldr ip, [ip]

  cmp ip, #0

  // Fast path
  bxne ip

  // Slow path
  ldr ip, =74
  push {ip}
  .cfi_adjust_cfa_offset 4
  PUSH_REG(lr)
  bl _libX11_so_save_regs_and_resolve
  POP_REG(lr)
  add sp, #4
  .cfi_adjust_cfa_offset -4
  bx ip

  // Force constant pool for ldr above
  .ltorg

  .cfi_endproc

3:
  .word _libX11_so_tramp_table - (2b + 8) + 296

/*
 * Copyright 2018-2025 Yury Gribov
 *
 * The MIT License (MIT)
 *
 * Use of this source code is governed by MIT license that can be
 * found in the LICENSE.txt file.
 */

  .globl XCreateSimpleWindow
  .p2align 4
  .type XCreateSimpleWindow, %function
#ifndef IMPLIB_EXPORT_SHIMS
  .hidden XCreateSimpleWindow
#endif
XCreateSimpleWindow:
  .cfi_startproc

1:
  // Load address
  // TODO: can we do this faster on newer ARMs?
  ldr ip, 3f
2:
  add ip, pc, ip
  ldr ip, [ip]

  cmp ip, #0

  // Fast path
  bxne ip

  // Slow path
  ldr ip, =75
  push {ip}
  .cfi_adjust_cfa_offset 4
  PUSH_REG(lr)
  bl _libX11_so_save_regs_and_resolve
  POP_REG(lr)
  add sp, #4
  .cfi_adjust_cfa_offset -4
  bx ip

  // Force constant pool for ldr above
  .ltorg

  .cfi_endproc

3:
  .word _libX11_so_tramp_table - (2b + 8) + 300

/*
 * Copyright 2018-2025 Yury Gribov
 *
 * The MIT License (MIT)
 *
 * Use of this source code is governed by MIT license that can be
 * found in the LICENSE.txt file.
 */

  .globl XCreateWindow
  .p2align 4
  .type XCreateWindow, %function
#ifndef IMPLIB_EXPORT_SHIMS
  .hidden XCreateWindow
#endif
XCreateWindow:
  .cfi_startproc

1:
  // Load address
  // TODO: can we do this faster on newer ARMs?
  ldr ip, 3f
2:
  add ip, pc, ip
  ldr ip, [ip]

  cmp ip, #0

  // Fast path
  bxne ip

  // Slow path
  ldr ip, =76
  push {ip}
  .cfi_adjust_cfa_offset 4
  PUSH_REG(lr)
  bl _libX11_so_save_regs_and_resolve
  POP_REG(lr)
  add sp, #4
  .cfi_adjust_cfa_offset -4
  bx ip

  // Force constant pool for ldr above
  .ltorg

  .cfi_endproc

3:
  .word _libX11_so_tramp_table - (2b + 8) + 304

/*
 * Copyright 2018-2025 Yury Gribov
 *
 * The MIT License (MIT)
 *
 * Use of this source code is governed by MIT license that can be
 * found in the LICENSE.txt file.
 */

  .globl XDefaultColormap
  .p2align 4
  .type XDefaultColormap, %function
#ifndef IMPLIB_EXPORT_SHIMS
  .hidden XDefaultColormap
#endif
XDefaultColormap:
  .cfi_startproc

1:
  // Load address
  // TODO: can we do this faster on newer ARMs?
  ldr ip, 3f
2:
  add ip, pc, ip
  ldr ip, [ip]

  cmp ip, #0

  // Fast path
  bxne ip

  // Slow path
  ldr ip, =77
  push {ip}
  .cfi_adjust_cfa_offset 4
  PUSH_REG(lr)
  bl _libX11_so_save_regs_and_resolve
  POP_REG(lr)
  add sp, #4
  .cfi_adjust_cfa_offset -4
  bx ip

  // Force constant pool for ldr above
  .ltorg

  .cfi_endproc

3:
  .word _libX11_so_tramp_table - (2b + 8) + 308

/*
 * Copyright 2018-2025 Yury Gribov
 *
 * The MIT License (MIT)
 *
 * Use of this source code is governed by MIT license that can be
 * found in the LICENSE.txt file.
 */

  .globl XDefaultColormapOfScreen
  .p2align 4
  .type XDefaultColormapOfScreen, %function
#ifndef IMPLIB_EXPORT_SHIMS
  .hidden XDefaultColormapOfScreen
#endif
XDefaultColormapOfScreen:
  .cfi_startproc

1:
  // Load address
  // TODO: can we do this faster on newer ARMs?
  ldr ip, 3f
2:
  add ip, pc, ip
  ldr ip, [ip]

  cmp ip, #0

  // Fast path
  bxne ip

  // Slow path
  ldr ip, =78
  push {ip}
  .cfi_adjust_cfa_offset 4
  PUSH_REG(lr)
  bl _libX11_so_save_regs_and_resolve
  POP_REG(lr)
  add sp, #4
  .cfi_adjust_cfa_offset -4
  bx ip

  // Force constant pool for ldr above
  .ltorg

  .cfi_endproc

3:
  .word _libX11_so_tramp_table - (2b + 8) + 312

/*
 * Copyright 2018-2025 Yury Gribov
 *
 * The MIT License (MIT)
 *
 * Use of this source code is governed by MIT license that can be
 * found in the LICENSE.txt file.
 */

  .globl XDefaultDepth
  .p2align 4
  .type XDefaultDepth, %function
#ifndef IMPLIB_EXPORT_SHIMS
  .hidden XDefaultDepth
#endif
XDefaultDepth:
  .cfi_startproc

1:
  // Load address
  // TODO: can we do this faster on newer ARMs?
  ldr ip, 3f
2:
  add ip, pc, ip
  ldr ip, [ip]

  cmp ip, #0

  // Fast path
  bxne ip

  // Slow path
  ldr ip, =79
  push {ip}
  .cfi_adjust_cfa_offset 4
  PUSH_REG(lr)
  bl _libX11_so_save_regs_and_resolve
  POP_REG(lr)
  add sp, #4
  .cfi_adjust_cfa_offset -4
  bx ip

  // Force constant pool for ldr above
  .ltorg

  .cfi_endproc

3:
  .word _libX11_so_tramp_table - (2b + 8) + 316

/*
 * Copyright 2018-2025 Yury Gribov
 *
 * The MIT License (MIT)
 *
 * Use of this source code is governed by MIT license that can be
 * found in the LICENSE.txt file.
 */

  .globl XDefaultDepthOfScreen
  .p2align 4
  .type XDefaultDepthOfScreen, %function
#ifndef IMPLIB_EXPORT_SHIMS
  .hidden XDefaultDepthOfScreen
#endif
XDefaultDepthOfScreen:
  .cfi_startproc

1:
  // Load address
  // TODO: can we do this faster on newer ARMs?
  ldr ip, 3f
2:
  add ip, pc, ip
  ldr ip, [ip]

  cmp ip, #0

  // Fast path
  bxne ip

  // Slow path
  ldr ip, =80
  push {ip}
  .cfi_adjust_cfa_offset 4
  PUSH_REG(lr)
  bl _libX11_so_save_regs_and_resolve
  POP_REG(lr)
  add sp, #4
  .cfi_adjust_cfa_offset -4
  bx ip

  // Force constant pool for ldr above
  .ltorg

  .cfi_endproc

3:
  .word _libX11_so_tramp_table - (2b + 8) + 320

/*
 * Copyright 2018-2025 Yury Gribov
 *
 * The MIT License (MIT)
 *
 * Use of this source code is governed by MIT license that can be
 * found in the LICENSE.txt file.
 */

  .globl XDefaultGC
  .p2align 4
  .type XDefaultGC, %function
#ifndef IMPLIB_EXPORT_SHIMS
  .hidden XDefaultGC
#endif
XDefaultGC:
  .cfi_startproc

1:
  // Load address
  // TODO: can we do this faster on newer ARMs?
  ldr ip, 3f
2:
  add ip, pc, ip
  ldr ip, [ip]

  cmp ip, #0

  // Fast path
  bxne ip

  // Slow path
  ldr ip, =81
  push {ip}
  .cfi_adjust_cfa_offset 4
  PUSH_REG(lr)
  bl _libX11_so_save_regs_and_resolve
  POP_REG(lr)
  add sp, #4
  .cfi_adjust_cfa_offset -4
  bx ip

  // Force constant pool for ldr above
  .ltorg

  .cfi_endproc

3:
  .word _libX11_so_tramp_table - (2b + 8) + 324

/*
 * Copyright 2018-2025 Yury Gribov
 *
 * The MIT License (MIT)
 *
 * Use of this source code is governed by MIT license that can be
 * found in the LICENSE.txt file.
 */

  .globl XDefaultGCOfScreen
  .p2align 4
  .type XDefaultGCOfScreen, %function
#ifndef IMPLIB_EXPORT_SHIMS
  .hidden XDefaultGCOfScreen
#endif
XDefaultGCOfScreen:
  .cfi_startproc

1:
  // Load address
  // TODO: can we do this faster on newer ARMs?
  ldr ip, 3f
2:
  add ip, pc, ip
  ldr ip, [ip]

  cmp ip, #0

  // Fast path
  bxne ip

  // Slow path
  ldr ip, =82
  push {ip}
  .cfi_adjust_cfa_offset 4
  PUSH_REG(lr)
  bl _libX11_so_save_regs_and_resolve
  POP_REG(lr)
  add sp, #4
  .cfi_adjust_cfa_offset -4
  bx ip

  // Force constant pool for ldr above
  .ltorg

  .cfi_endproc

3:
  .word _libX11_so_tramp_table - (2b + 8) + 328

/*
 * Copyright 2018-2025 Yury Gribov
 *
 * The MIT License (MIT)
 *
 * Use of this source code is governed by MIT license that can be
 * found in the LICENSE.txt file.
 */

  .globl XDefaultRootWindow
  .p2align 4
  .type XDefaultRootWindow, %function
#ifndef IMPLIB_EXPORT_SHIMS
  .hidden XDefaultRootWindow
#endif
XDefaultRootWindow:
  .cfi_startproc

1:
  // Load address
  // TODO: can we do this faster on newer ARMs?
  ldr ip, 3f
2:
  add ip, pc, ip
  ldr ip, [ip]

  cmp ip, #0

  // Fast path
  bxne ip

  // Slow path
  ldr ip, =83
  push {ip}
  .cfi_adjust_cfa_offset 4
  PUSH_REG(lr)
  bl _libX11_so_save_regs_and_resolve
  POP_REG(lr)
  add sp, #4
  .cfi_adjust_cfa_offset -4
  bx ip

  // Force constant pool for ldr above
  .ltorg

  .cfi_endproc

3:
  .word _libX11_so_tramp_table - (2b + 8) + 332

/*
 * Copyright 2018-2025 Yury Gribov
 *
 * The MIT License (MIT)
 *
 * Use of this source code is governed by MIT license that can be
 * found in the LICENSE.txt file.
 */

  .globl XDefaultScreen
  .p2align 4
  .type XDefaultScreen, %function
#ifndef IMPLIB_EXPORT_SHIMS
  .hidden XDefaultScreen
#endif
XDefaultScreen:
  .cfi_startproc

1:
  // Load address
  // TODO: can we do this faster on newer ARMs?
  ldr ip, 3f
2:
  add ip, pc, ip
  ldr ip, [ip]

  cmp ip, #0

  // Fast path
  bxne ip

  // Slow path
  ldr ip, =84
  push {ip}
  .cfi_adjust_cfa_offset 4
  PUSH_REG(lr)
  bl _libX11_so_save_regs_and_resolve
  POP_REG(lr)
  add sp, #4
  .cfi_adjust_cfa_offset -4
  bx ip

  // Force constant pool for ldr above
  .ltorg

  .cfi_endproc

3:
  .word _libX11_so_tramp_table - (2b + 8) + 336

/*
 * Copyright 2018-2025 Yury Gribov
 *
 * The MIT License (MIT)
 *
 * Use of this source code is governed by MIT license that can be
 * found in the LICENSE.txt file.
 */

  .globl XDefaultScreenOfDisplay
  .p2align 4
  .type XDefaultScreenOfDisplay, %function
#ifndef IMPLIB_EXPORT_SHIMS
  .hidden XDefaultScreenOfDisplay
#endif
XDefaultScreenOfDisplay:
  .cfi_startproc

1:
  // Load address
  // TODO: can we do this faster on newer ARMs?
  ldr ip, 3f
2:
  add ip, pc, ip
  ldr ip, [ip]

  cmp ip, #0

  // Fast path
  bxne ip

  // Slow path
  ldr ip, =85
  push {ip}
  .cfi_adjust_cfa_offset 4
  PUSH_REG(lr)
  bl _libX11_so_save_regs_and_resolve
  POP_REG(lr)
  add sp, #4
  .cfi_adjust_cfa_offset -4
  bx ip

  // Force constant pool for ldr above
  .ltorg

  .cfi_endproc

3:
  .word _libX11_so_tramp_table - (2b + 8) + 340

/*
 * Copyright 2018-2025 Yury Gribov
 *
 * The MIT License (MIT)
 *
 * Use of this source code is governed by MIT license that can be
 * found in the LICENSE.txt file.
 */

  .globl XDefaultString
  .p2align 4
  .type XDefaultString, %function
#ifndef IMPLIB_EXPORT_SHIMS
  .hidden XDefaultString
#endif
XDefaultString:
  .cfi_startproc

1:
  // Load address
  // TODO: can we do this faster on newer ARMs?
  ldr ip, 3f
2:
  add ip, pc, ip
  ldr ip, [ip]

  cmp ip, #0

  // Fast path
  bxne ip

  // Slow path
  ldr ip, =86
  push {ip}
  .cfi_adjust_cfa_offset 4
  PUSH_REG(lr)
  bl _libX11_so_save_regs_and_resolve
  POP_REG(lr)
  add sp, #4
  .cfi_adjust_cfa_offset -4
  bx ip

  // Force constant pool for ldr above
  .ltorg

  .cfi_endproc

3:
  .word _libX11_so_tramp_table - (2b + 8) + 344

/*
 * Copyright 2018-2025 Yury Gribov
 *
 * The MIT License (MIT)
 *
 * Use of this source code is governed by MIT license that can be
 * found in the LICENSE.txt file.
 */

  .globl XDefaultVisual
  .p2align 4
  .type XDefaultVisual, %function
#ifndef IMPLIB_EXPORT_SHIMS
  .hidden XDefaultVisual
#endif
XDefaultVisual:
  .cfi_startproc

1:
  // Load address
  // TODO: can we do this faster on newer ARMs?
  ldr ip, 3f
2:
  add ip, pc, ip
  ldr ip, [ip]

  cmp ip, #0

  // Fast path
  bxne ip

  // Slow path
  ldr ip, =87
  push {ip}
  .cfi_adjust_cfa_offset 4
  PUSH_REG(lr)
  bl _libX11_so_save_regs_and_resolve
  POP_REG(lr)
  add sp, #4
  .cfi_adjust_cfa_offset -4
  bx ip

  // Force constant pool for ldr above
  .ltorg

  .cfi_endproc

3:
  .word _libX11_so_tramp_table - (2b + 8) + 348

/*
 * Copyright 2018-2025 Yury Gribov
 *
 * The MIT License (MIT)
 *
 * Use of this source code is governed by MIT license that can be
 * found in the LICENSE.txt file.
 */

  .globl XDefaultVisualOfScreen
  .p2align 4
  .type XDefaultVisualOfScreen, %function
#ifndef IMPLIB_EXPORT_SHIMS
  .hidden XDefaultVisualOfScreen
#endif
XDefaultVisualOfScreen:
  .cfi_startproc

1:
  // Load address
  // TODO: can we do this faster on newer ARMs?
  ldr ip, 3f
2:
  add ip, pc, ip
  ldr ip, [ip]

  cmp ip, #0

  // Fast path
  bxne ip

  // Slow path
  ldr ip, =88
  push {ip}
  .cfi_adjust_cfa_offset 4
  PUSH_REG(lr)
  bl _libX11_so_save_regs_and_resolve
  POP_REG(lr)
  add sp, #4
  .cfi_adjust_cfa_offset -4
  bx ip

  // Force constant pool for ldr above
  .ltorg

  .cfi_endproc

3:
  .word _libX11_so_tramp_table - (2b + 8) + 352

/*
 * Copyright 2018-2025 Yury Gribov
 *
 * The MIT License (MIT)
 *
 * Use of this source code is governed by MIT license that can be
 * found in the LICENSE.txt file.
 */

  .globl XDefineCursor
  .p2align 4
  .type XDefineCursor, %function
#ifndef IMPLIB_EXPORT_SHIMS
  .hidden XDefineCursor
#endif
XDefineCursor:
  .cfi_startproc

1:
  // Load address
  // TODO: can we do this faster on newer ARMs?
  ldr ip, 3f
2:
  add ip, pc, ip
  ldr ip, [ip]

  cmp ip, #0

  // Fast path
  bxne ip

  // Slow path
  ldr ip, =89
  push {ip}
  .cfi_adjust_cfa_offset 4
  PUSH_REG(lr)
  bl _libX11_so_save_regs_and_resolve
  POP_REG(lr)
  add sp, #4
  .cfi_adjust_cfa_offset -4
  bx ip

  // Force constant pool for ldr above
  .ltorg

  .cfi_endproc

3:
  .word _libX11_so_tramp_table - (2b + 8) + 356

/*
 * Copyright 2018-2025 Yury Gribov
 *
 * The MIT License (MIT)
 *
 * Use of this source code is governed by MIT license that can be
 * found in the LICENSE.txt file.
 */

  .globl XDeleteContext
  .p2align 4
  .type XDeleteContext, %function
#ifndef IMPLIB_EXPORT_SHIMS
  .hidden XDeleteContext
#endif
XDeleteContext:
  .cfi_startproc

1:
  // Load address
  // TODO: can we do this faster on newer ARMs?
  ldr ip, 3f
2:
  add ip, pc, ip
  ldr ip, [ip]

  cmp ip, #0

  // Fast path
  bxne ip

  // Slow path
  ldr ip, =90
  push {ip}
  .cfi_adjust_cfa_offset 4
  PUSH_REG(lr)
  bl _libX11_so_save_regs_and_resolve
  POP_REG(lr)
  add sp, #4
  .cfi_adjust_cfa_offset -4
  bx ip

  // Force constant pool for ldr above
  .ltorg

  .cfi_endproc

3:
  .word _libX11_so_tramp_table - (2b + 8) + 360

/*
 * Copyright 2018-2025 Yury Gribov
 *
 * The MIT License (MIT)
 *
 * Use of this source code is governed by MIT license that can be
 * found in the LICENSE.txt file.
 */

  .globl XDeleteModifiermapEntry
  .p2align 4
  .type XDeleteModifiermapEntry, %function
#ifndef IMPLIB_EXPORT_SHIMS
  .hidden XDeleteModifiermapEntry
#endif
XDeleteModifiermapEntry:
  .cfi_startproc

1:
  // Load address
  // TODO: can we do this faster on newer ARMs?
  ldr ip, 3f
2:
  add ip, pc, ip
  ldr ip, [ip]

  cmp ip, #0

  // Fast path
  bxne ip

  // Slow path
  ldr ip, =91
  push {ip}
  .cfi_adjust_cfa_offset 4
  PUSH_REG(lr)
  bl _libX11_so_save_regs_and_resolve
  POP_REG(lr)
  add sp, #4
  .cfi_adjust_cfa_offset -4
  bx ip

  // Force constant pool for ldr above
  .ltorg

  .cfi_endproc

3:
  .word _libX11_so_tramp_table - (2b + 8) + 364

/*
 * Copyright 2018-2025 Yury Gribov
 *
 * The MIT License (MIT)
 *
 * Use of this source code is governed by MIT license that can be
 * found in the LICENSE.txt file.
 */

  .globl XDeleteProperty
  .p2align 4
  .type XDeleteProperty, %function
#ifndef IMPLIB_EXPORT_SHIMS
  .hidden XDeleteProperty
#endif
XDeleteProperty:
  .cfi_startproc

1:
  // Load address
  // TODO: can we do this faster on newer ARMs?
  ldr ip, 3f
2:
  add ip, pc, ip
  ldr ip, [ip]

  cmp ip, #0

  // Fast path
  bxne ip

  // Slow path
  ldr ip, =92
  push {ip}
  .cfi_adjust_cfa_offset 4
  PUSH_REG(lr)
  bl _libX11_so_save_regs_and_resolve
  POP_REG(lr)
  add sp, #4
  .cfi_adjust_cfa_offset -4
  bx ip

  // Force constant pool for ldr above
  .ltorg

  .cfi_endproc

3:
  .word _libX11_so_tramp_table - (2b + 8) + 368

/*
 * Copyright 2018-2025 Yury Gribov
 *
 * The MIT License (MIT)
 *
 * Use of this source code is governed by MIT license that can be
 * found in the LICENSE.txt file.
 */

  .globl XDestroyIC
  .p2align 4
  .type XDestroyIC, %function
#ifndef IMPLIB_EXPORT_SHIMS
  .hidden XDestroyIC
#endif
XDestroyIC:
  .cfi_startproc

1:
  // Load address
  // TODO: can we do this faster on newer ARMs?
  ldr ip, 3f
2:
  add ip, pc, ip
  ldr ip, [ip]

  cmp ip, #0

  // Fast path
  bxne ip

  // Slow path
  ldr ip, =93
  push {ip}
  .cfi_adjust_cfa_offset 4
  PUSH_REG(lr)
  bl _libX11_so_save_regs_and_resolve
  POP_REG(lr)
  add sp, #4
  .cfi_adjust_cfa_offset -4
  bx ip

  // Force constant pool for ldr above
  .ltorg

  .cfi_endproc

3:
  .word _libX11_so_tramp_table - (2b + 8) + 372

/*
 * Copyright 2018-2025 Yury Gribov
 *
 * The MIT License (MIT)
 *
 * Use of this source code is governed by MIT license that can be
 * found in the LICENSE.txt file.
 */

  .globl XDestroyImage
  .p2align 4
  .type XDestroyImage, %function
#ifndef IMPLIB_EXPORT_SHIMS
  .hidden XDestroyImage
#endif
XDestroyImage:
  .cfi_startproc

1:
  // Load address
  // TODO: can we do this faster on newer ARMs?
  ldr ip, 3f
2:
  add ip, pc, ip
  ldr ip, [ip]

  cmp ip, #0

  // Fast path
  bxne ip

  // Slow path
  ldr ip, =94
  push {ip}
  .cfi_adjust_cfa_offset 4
  PUSH_REG(lr)
  bl _libX11_so_save_regs_and_resolve
  POP_REG(lr)
  add sp, #4
  .cfi_adjust_cfa_offset -4
  bx ip

  // Force constant pool for ldr above
  .ltorg

  .cfi_endproc

3:
  .word _libX11_so_tramp_table - (2b + 8) + 376

/*
 * Copyright 2018-2025 Yury Gribov
 *
 * The MIT License (MIT)
 *
 * Use of this source code is governed by MIT license that can be
 * found in the LICENSE.txt file.
 */

  .globl XDestroyOC
  .p2align 4
  .type XDestroyOC, %function
#ifndef IMPLIB_EXPORT_SHIMS
  .hidden XDestroyOC
#endif
XDestroyOC:
  .cfi_startproc

1:
  // Load address
  // TODO: can we do this faster on newer ARMs?
  ldr ip, 3f
2:
  add ip, pc, ip
  ldr ip, [ip]

  cmp ip, #0

  // Fast path
  bxne ip

  // Slow path
  ldr ip, =95
  push {ip}
  .cfi_adjust_cfa_offset 4
  PUSH_REG(lr)
  bl _libX11_so_save_regs_and_resolve
  POP_REG(lr)
  add sp, #4
  .cfi_adjust_cfa_offset -4
  bx ip

  // Force constant pool for ldr above
  .ltorg

  .cfi_endproc

3:
  .word _libX11_so_tramp_table - (2b + 8) + 380

/*
 * Copyright 2018-2025 Yury Gribov
 *
 * The MIT License (MIT)
 *
 * Use of this source code is governed by MIT license that can be
 * found in the LICENSE.txt file.
 */

  .globl XDestroyRegion
  .p2align 4
  .type XDestroyRegion, %function
#ifndef IMPLIB_EXPORT_SHIMS
  .hidden XDestroyRegion
#endif
XDestroyRegion:
  .cfi_startproc

1:
  // Load address
  // TODO: can we do this faster on newer ARMs?
  ldr ip, 3f
2:
  add ip, pc, ip
  ldr ip, [ip]

  cmp ip, #0

  // Fast path
  bxne ip

  // Slow path
  ldr ip, =96
  push {ip}
  .cfi_adjust_cfa_offset 4
  PUSH_REG(lr)
  bl _libX11_so_save_regs_and_resolve
  POP_REG(lr)
  add sp, #4
  .cfi_adjust_cfa_offset -4
  bx ip

  // Force constant pool for ldr above
  .ltorg

  .cfi_endproc

3:
  .word _libX11_so_tramp_table - (2b + 8) + 384

/*
 * Copyright 2018-2025 Yury Gribov
 *
 * The MIT License (MIT)
 *
 * Use of this source code is governed by MIT license that can be
 * found in the LICENSE.txt file.
 */

  .globl XDestroySubwindows
  .p2align 4
  .type XDestroySubwindows, %function
#ifndef IMPLIB_EXPORT_SHIMS
  .hidden XDestroySubwindows
#endif
XDestroySubwindows:
  .cfi_startproc

1:
  // Load address
  // TODO: can we do this faster on newer ARMs?
  ldr ip, 3f
2:
  add ip, pc, ip
  ldr ip, [ip]

  cmp ip, #0

  // Fast path
  bxne ip

  // Slow path
  ldr ip, =97
  push {ip}
  .cfi_adjust_cfa_offset 4
  PUSH_REG(lr)
  bl _libX11_so_save_regs_and_resolve
  POP_REG(lr)
  add sp, #4
  .cfi_adjust_cfa_offset -4
  bx ip

  // Force constant pool for ldr above
  .ltorg

  .cfi_endproc

3:
  .word _libX11_so_tramp_table - (2b + 8) + 388

/*
 * Copyright 2018-2025 Yury Gribov
 *
 * The MIT License (MIT)
 *
 * Use of this source code is governed by MIT license that can be
 * found in the LICENSE.txt file.
 */

  .globl XDestroyWindow
  .p2align 4
  .type XDestroyWindow, %function
#ifndef IMPLIB_EXPORT_SHIMS
  .hidden XDestroyWindow
#endif
XDestroyWindow:
  .cfi_startproc

1:
  // Load address
  // TODO: can we do this faster on newer ARMs?
  ldr ip, 3f
2:
  add ip, pc, ip
  ldr ip, [ip]

  cmp ip, #0

  // Fast path
  bxne ip

  // Slow path
  ldr ip, =98
  push {ip}
  .cfi_adjust_cfa_offset 4
  PUSH_REG(lr)
  bl _libX11_so_save_regs_and_resolve
  POP_REG(lr)
  add sp, #4
  .cfi_adjust_cfa_offset -4
  bx ip

  // Force constant pool for ldr above
  .ltorg

  .cfi_endproc

3:
  .word _libX11_so_tramp_table - (2b + 8) + 392

/*
 * Copyright 2018-2025 Yury Gribov
 *
 * The MIT License (MIT)
 *
 * Use of this source code is governed by MIT license that can be
 * found in the LICENSE.txt file.
 */

  .globl XDirectionalDependentDrawing
  .p2align 4
  .type XDirectionalDependentDrawing, %function
#ifndef IMPLIB_EXPORT_SHIMS
  .hidden XDirectionalDependentDrawing
#endif
XDirectionalDependentDrawing:
  .cfi_startproc

1:
  // Load address
  // TODO: can we do this faster on newer ARMs?
  ldr ip, 3f
2:
  add ip, pc, ip
  ldr ip, [ip]

  cmp ip, #0

  // Fast path
  bxne ip

  // Slow path
  ldr ip, =99
  push {ip}
  .cfi_adjust_cfa_offset 4
  PUSH_REG(lr)
  bl _libX11_so_save_regs_and_resolve
  POP_REG(lr)
  add sp, #4
  .cfi_adjust_cfa_offset -4
  bx ip

  // Force constant pool for ldr above
  .ltorg

  .cfi_endproc

3:
  .word _libX11_so_tramp_table - (2b + 8) + 396

/*
 * Copyright 2018-2025 Yury Gribov
 *
 * The MIT License (MIT)
 *
 * Use of this source code is governed by MIT license that can be
 * found in the LICENSE.txt file.
 */

  .globl XDisableAccessControl
  .p2align 4
  .type XDisableAccessControl, %function
#ifndef IMPLIB_EXPORT_SHIMS
  .hidden XDisableAccessControl
#endif
XDisableAccessControl:
  .cfi_startproc

1:
  // Load address
  // TODO: can we do this faster on newer ARMs?
  ldr ip, 3f
2:
  add ip, pc, ip
  ldr ip, [ip]

  cmp ip, #0

  // Fast path
  bxne ip

  // Slow path
  ldr ip, =100
  push {ip}
  .cfi_adjust_cfa_offset 4
  PUSH_REG(lr)
  bl _libX11_so_save_regs_and_resolve
  POP_REG(lr)
  add sp, #4
  .cfi_adjust_cfa_offset -4
  bx ip

  // Force constant pool for ldr above
  .ltorg

  .cfi_endproc

3:
  .word _libX11_so_tramp_table - (2b + 8) + 400

/*
 * Copyright 2018-2025 Yury Gribov
 *
 * The MIT License (MIT)
 *
 * Use of this source code is governed by MIT license that can be
 * found in the LICENSE.txt file.
 */

  .globl XDisplayCells
  .p2align 4
  .type XDisplayCells, %function
#ifndef IMPLIB_EXPORT_SHIMS
  .hidden XDisplayCells
#endif
XDisplayCells:
  .cfi_startproc

1:
  // Load address
  // TODO: can we do this faster on newer ARMs?
  ldr ip, 3f
2:
  add ip, pc, ip
  ldr ip, [ip]

  cmp ip, #0

  // Fast path
  bxne ip

  // Slow path
  ldr ip, =101
  push {ip}
  .cfi_adjust_cfa_offset 4
  PUSH_REG(lr)
  bl _libX11_so_save_regs_and_resolve
  POP_REG(lr)
  add sp, #4
  .cfi_adjust_cfa_offset -4
  bx ip

  // Force constant pool for ldr above
  .ltorg

  .cfi_endproc

3:
  .word _libX11_so_tramp_table - (2b + 8) + 404

/*
 * Copyright 2018-2025 Yury Gribov
 *
 * The MIT License (MIT)
 *
 * Use of this source code is governed by MIT license that can be
 * found in the LICENSE.txt file.
 */

  .globl XDisplayHeight
  .p2align 4
  .type XDisplayHeight, %function
#ifndef IMPLIB_EXPORT_SHIMS
  .hidden XDisplayHeight
#endif
XDisplayHeight:
  .cfi_startproc

1:
  // Load address
  // TODO: can we do this faster on newer ARMs?
  ldr ip, 3f
2:
  add ip, pc, ip
  ldr ip, [ip]

  cmp ip, #0

  // Fast path
  bxne ip

  // Slow path
  ldr ip, =102
  push {ip}
  .cfi_adjust_cfa_offset 4
  PUSH_REG(lr)
  bl _libX11_so_save_regs_and_resolve
  POP_REG(lr)
  add sp, #4
  .cfi_adjust_cfa_offset -4
  bx ip

  // Force constant pool for ldr above
  .ltorg

  .cfi_endproc

3:
  .word _libX11_so_tramp_table - (2b + 8) + 408

/*
 * Copyright 2018-2025 Yury Gribov
 *
 * The MIT License (MIT)
 *
 * Use of this source code is governed by MIT license that can be
 * found in the LICENSE.txt file.
 */

  .globl XDisplayHeightMM
  .p2align 4
  .type XDisplayHeightMM, %function
#ifndef IMPLIB_EXPORT_SHIMS
  .hidden XDisplayHeightMM
#endif
XDisplayHeightMM:
  .cfi_startproc

1:
  // Load address
  // TODO: can we do this faster on newer ARMs?
  ldr ip, 3f
2:
  add ip, pc, ip
  ldr ip, [ip]

  cmp ip, #0

  // Fast path
  bxne ip

  // Slow path
  ldr ip, =103
  push {ip}
  .cfi_adjust_cfa_offset 4
  PUSH_REG(lr)
  bl _libX11_so_save_regs_and_resolve
  POP_REG(lr)
  add sp, #4
  .cfi_adjust_cfa_offset -4
  bx ip

  // Force constant pool for ldr above
  .ltorg

  .cfi_endproc

3:
  .word _libX11_so_tramp_table - (2b + 8) + 412

/*
 * Copyright 2018-2025 Yury Gribov
 *
 * The MIT License (MIT)
 *
 * Use of this source code is governed by MIT license that can be
 * found in the LICENSE.txt file.
 */

  .globl XDisplayKeycodes
  .p2align 4
  .type XDisplayKeycodes, %function
#ifndef IMPLIB_EXPORT_SHIMS
  .hidden XDisplayKeycodes
#endif
XDisplayKeycodes:
  .cfi_startproc

1:
  // Load address
  // TODO: can we do this faster on newer ARMs?
  ldr ip, 3f
2:
  add ip, pc, ip
  ldr ip, [ip]

  cmp ip, #0

  // Fast path
  bxne ip

  // Slow path
  ldr ip, =104
  push {ip}
  .cfi_adjust_cfa_offset 4
  PUSH_REG(lr)
  bl _libX11_so_save_regs_and_resolve
  POP_REG(lr)
  add sp, #4
  .cfi_adjust_cfa_offset -4
  bx ip

  // Force constant pool for ldr above
  .ltorg

  .cfi_endproc

3:
  .word _libX11_so_tramp_table - (2b + 8) + 416

/*
 * Copyright 2018-2025 Yury Gribov
 *
 * The MIT License (MIT)
 *
 * Use of this source code is governed by MIT license that can be
 * found in the LICENSE.txt file.
 */

  .globl XDisplayMotionBufferSize
  .p2align 4
  .type XDisplayMotionBufferSize, %function
#ifndef IMPLIB_EXPORT_SHIMS
  .hidden XDisplayMotionBufferSize
#endif
XDisplayMotionBufferSize:
  .cfi_startproc

1:
  // Load address
  // TODO: can we do this faster on newer ARMs?
  ldr ip, 3f
2:
  add ip, pc, ip
  ldr ip, [ip]

  cmp ip, #0

  // Fast path
  bxne ip

  // Slow path
  ldr ip, =105
  push {ip}
  .cfi_adjust_cfa_offset 4
  PUSH_REG(lr)
  bl _libX11_so_save_regs_and_resolve
  POP_REG(lr)
  add sp, #4
  .cfi_adjust_cfa_offset -4
  bx ip

  // Force constant pool for ldr above
  .ltorg

  .cfi_endproc

3:
  .word _libX11_so_tramp_table - (2b + 8) + 420

/*
 * Copyright 2018-2025 Yury Gribov
 *
 * The MIT License (MIT)
 *
 * Use of this source code is governed by MIT license that can be
 * found in the LICENSE.txt file.
 */

  .globl XDisplayName
  .p2align 4
  .type XDisplayName, %function
#ifndef IMPLIB_EXPORT_SHIMS
  .hidden XDisplayName
#endif
XDisplayName:
  .cfi_startproc

1:
  // Load address
  // TODO: can we do this faster on newer ARMs?
  ldr ip, 3f
2:
  add ip, pc, ip
  ldr ip, [ip]

  cmp ip, #0

  // Fast path
  bxne ip

  // Slow path
  ldr ip, =106
  push {ip}
  .cfi_adjust_cfa_offset 4
  PUSH_REG(lr)
  bl _libX11_so_save_regs_and_resolve
  POP_REG(lr)
  add sp, #4
  .cfi_adjust_cfa_offset -4
  bx ip

  // Force constant pool for ldr above
  .ltorg

  .cfi_endproc

3:
  .word _libX11_so_tramp_table - (2b + 8) + 424

/*
 * Copyright 2018-2025 Yury Gribov
 *
 * The MIT License (MIT)
 *
 * Use of this source code is governed by MIT license that can be
 * found in the LICENSE.txt file.
 */

  .globl XDisplayOfIM
  .p2align 4
  .type XDisplayOfIM, %function
#ifndef IMPLIB_EXPORT_SHIMS
  .hidden XDisplayOfIM
#endif
XDisplayOfIM:
  .cfi_startproc

1:
  // Load address
  // TODO: can we do this faster on newer ARMs?
  ldr ip, 3f
2:
  add ip, pc, ip
  ldr ip, [ip]

  cmp ip, #0

  // Fast path
  bxne ip

  // Slow path
  ldr ip, =107
  push {ip}
  .cfi_adjust_cfa_offset 4
  PUSH_REG(lr)
  bl _libX11_so_save_regs_and_resolve
  POP_REG(lr)
  add sp, #4
  .cfi_adjust_cfa_offset -4
  bx ip

  // Force constant pool for ldr above
  .ltorg

  .cfi_endproc

3:
  .word _libX11_so_tramp_table - (2b + 8) + 428

/*
 * Copyright 2018-2025 Yury Gribov
 *
 * The MIT License (MIT)
 *
 * Use of this source code is governed by MIT license that can be
 * found in the LICENSE.txt file.
 */

  .globl XDisplayOfOM
  .p2align 4
  .type XDisplayOfOM, %function
#ifndef IMPLIB_EXPORT_SHIMS
  .hidden XDisplayOfOM
#endif
XDisplayOfOM:
  .cfi_startproc

1:
  // Load address
  // TODO: can we do this faster on newer ARMs?
  ldr ip, 3f
2:
  add ip, pc, ip
  ldr ip, [ip]

  cmp ip, #0

  // Fast path
  bxne ip

  // Slow path
  ldr ip, =108
  push {ip}
  .cfi_adjust_cfa_offset 4
  PUSH_REG(lr)
  bl _libX11_so_save_regs_and_resolve
  POP_REG(lr)
  add sp, #4
  .cfi_adjust_cfa_offset -4
  bx ip

  // Force constant pool for ldr above
  .ltorg

  .cfi_endproc

3:
  .word _libX11_so_tramp_table - (2b + 8) + 432

/*
 * Copyright 2018-2025 Yury Gribov
 *
 * The MIT License (MIT)
 *
 * Use of this source code is governed by MIT license that can be
 * found in the LICENSE.txt file.
 */

  .globl XDisplayOfScreen
  .p2align 4
  .type XDisplayOfScreen, %function
#ifndef IMPLIB_EXPORT_SHIMS
  .hidden XDisplayOfScreen
#endif
XDisplayOfScreen:
  .cfi_startproc

1:
  // Load address
  // TODO: can we do this faster on newer ARMs?
  ldr ip, 3f
2:
  add ip, pc, ip
  ldr ip, [ip]

  cmp ip, #0

  // Fast path
  bxne ip

  // Slow path
  ldr ip, =109
  push {ip}
  .cfi_adjust_cfa_offset 4
  PUSH_REG(lr)
  bl _libX11_so_save_regs_and_resolve
  POP_REG(lr)
  add sp, #4
  .cfi_adjust_cfa_offset -4
  bx ip

  // Force constant pool for ldr above
  .ltorg

  .cfi_endproc

3:
  .word _libX11_so_tramp_table - (2b + 8) + 436

/*
 * Copyright 2018-2025 Yury Gribov
 *
 * The MIT License (MIT)
 *
 * Use of this source code is governed by MIT license that can be
 * found in the LICENSE.txt file.
 */

  .globl XDisplayPlanes
  .p2align 4
  .type XDisplayPlanes, %function
#ifndef IMPLIB_EXPORT_SHIMS
  .hidden XDisplayPlanes
#endif
XDisplayPlanes:
  .cfi_startproc

1:
  // Load address
  // TODO: can we do this faster on newer ARMs?
  ldr ip, 3f
2:
  add ip, pc, ip
  ldr ip, [ip]

  cmp ip, #0

  // Fast path
  bxne ip

  // Slow path
  ldr ip, =110
  push {ip}
  .cfi_adjust_cfa_offset 4
  PUSH_REG(lr)
  bl _libX11_so_save_regs_and_resolve
  POP_REG(lr)
  add sp, #4
  .cfi_adjust_cfa_offset -4
  bx ip

  // Force constant pool for ldr above
  .ltorg

  .cfi_endproc

3:
  .word _libX11_so_tramp_table - (2b + 8) + 440

/*
 * Copyright 2018-2025 Yury Gribov
 *
 * The MIT License (MIT)
 *
 * Use of this source code is governed by MIT license that can be
 * found in the LICENSE.txt file.
 */

  .globl XDisplayString
  .p2align 4
  .type XDisplayString, %function
#ifndef IMPLIB_EXPORT_SHIMS
  .hidden XDisplayString
#endif
XDisplayString:
  .cfi_startproc

1:
  // Load address
  // TODO: can we do this faster on newer ARMs?
  ldr ip, 3f
2:
  add ip, pc, ip
  ldr ip, [ip]

  cmp ip, #0

  // Fast path
  bxne ip

  // Slow path
  ldr ip, =111
  push {ip}
  .cfi_adjust_cfa_offset 4
  PUSH_REG(lr)
  bl _libX11_so_save_regs_and_resolve
  POP_REG(lr)
  add sp, #4
  .cfi_adjust_cfa_offset -4
  bx ip

  // Force constant pool for ldr above
  .ltorg

  .cfi_endproc

3:
  .word _libX11_so_tramp_table - (2b + 8) + 444

/*
 * Copyright 2018-2025 Yury Gribov
 *
 * The MIT License (MIT)
 *
 * Use of this source code is governed by MIT license that can be
 * found in the LICENSE.txt file.
 */

  .globl XDisplayWidth
  .p2align 4
  .type XDisplayWidth, %function
#ifndef IMPLIB_EXPORT_SHIMS
  .hidden XDisplayWidth
#endif
XDisplayWidth:
  .cfi_startproc

1:
  // Load address
  // TODO: can we do this faster on newer ARMs?
  ldr ip, 3f
2:
  add ip, pc, ip
  ldr ip, [ip]

  cmp ip, #0

  // Fast path
  bxne ip

  // Slow path
  ldr ip, =112
  push {ip}
  .cfi_adjust_cfa_offset 4
  PUSH_REG(lr)
  bl _libX11_so_save_regs_and_resolve
  POP_REG(lr)
  add sp, #4
  .cfi_adjust_cfa_offset -4
  bx ip

  // Force constant pool for ldr above
  .ltorg

  .cfi_endproc

3:
  .word _libX11_so_tramp_table - (2b + 8) + 448

/*
 * Copyright 2018-2025 Yury Gribov
 *
 * The MIT License (MIT)
 *
 * Use of this source code is governed by MIT license that can be
 * found in the LICENSE.txt file.
 */

  .globl XDisplayWidthMM
  .p2align 4
  .type XDisplayWidthMM, %function
#ifndef IMPLIB_EXPORT_SHIMS
  .hidden XDisplayWidthMM
#endif
XDisplayWidthMM:
  .cfi_startproc

1:
  // Load address
  // TODO: can we do this faster on newer ARMs?
  ldr ip, 3f
2:
  add ip, pc, ip
  ldr ip, [ip]

  cmp ip, #0

  // Fast path
  bxne ip

  // Slow path
  ldr ip, =113
  push {ip}
  .cfi_adjust_cfa_offset 4
  PUSH_REG(lr)
  bl _libX11_so_save_regs_and_resolve
  POP_REG(lr)
  add sp, #4
  .cfi_adjust_cfa_offset -4
  bx ip

  // Force constant pool for ldr above
  .ltorg

  .cfi_endproc

3:
  .word _libX11_so_tramp_table - (2b + 8) + 452

/*
 * Copyright 2018-2025 Yury Gribov
 *
 * The MIT License (MIT)
 *
 * Use of this source code is governed by MIT license that can be
 * found in the LICENSE.txt file.
 */

  .globl XDoesBackingStore
  .p2align 4
  .type XDoesBackingStore, %function
#ifndef IMPLIB_EXPORT_SHIMS
  .hidden XDoesBackingStore
#endif
XDoesBackingStore:
  .cfi_startproc

1:
  // Load address
  // TODO: can we do this faster on newer ARMs?
  ldr ip, 3f
2:
  add ip, pc, ip
  ldr ip, [ip]

  cmp ip, #0

  // Fast path
  bxne ip

  // Slow path
  ldr ip, =114
  push {ip}
  .cfi_adjust_cfa_offset 4
  PUSH_REG(lr)
  bl _libX11_so_save_regs_and_resolve
  POP_REG(lr)
  add sp, #4
  .cfi_adjust_cfa_offset -4
  bx ip

  // Force constant pool for ldr above
  .ltorg

  .cfi_endproc

3:
  .word _libX11_so_tramp_table - (2b + 8) + 456

/*
 * Copyright 2018-2025 Yury Gribov
 *
 * The MIT License (MIT)
 *
 * Use of this source code is governed by MIT license that can be
 * found in the LICENSE.txt file.
 */

  .globl XDoesSaveUnders
  .p2align 4
  .type XDoesSaveUnders, %function
#ifndef IMPLIB_EXPORT_SHIMS
  .hidden XDoesSaveUnders
#endif
XDoesSaveUnders:
  .cfi_startproc

1:
  // Load address
  // TODO: can we do this faster on newer ARMs?
  ldr ip, 3f
2:
  add ip, pc, ip
  ldr ip, [ip]

  cmp ip, #0

  // Fast path
  bxne ip

  // Slow path
  ldr ip, =115
  push {ip}
  .cfi_adjust_cfa_offset 4
  PUSH_REG(lr)
  bl _libX11_so_save_regs_and_resolve
  POP_REG(lr)
  add sp, #4
  .cfi_adjust_cfa_offset -4
  bx ip

  // Force constant pool for ldr above
  .ltorg

  .cfi_endproc

3:
  .word _libX11_so_tramp_table - (2b + 8) + 460

/*
 * Copyright 2018-2025 Yury Gribov
 *
 * The MIT License (MIT)
 *
 * Use of this source code is governed by MIT license that can be
 * found in the LICENSE.txt file.
 */

  .globl XDrawArc
  .p2align 4
  .type XDrawArc, %function
#ifndef IMPLIB_EXPORT_SHIMS
  .hidden XDrawArc
#endif
XDrawArc:
  .cfi_startproc

1:
  // Load address
  // TODO: can we do this faster on newer ARMs?
  ldr ip, 3f
2:
  add ip, pc, ip
  ldr ip, [ip]

  cmp ip, #0

  // Fast path
  bxne ip

  // Slow path
  ldr ip, =116
  push {ip}
  .cfi_adjust_cfa_offset 4
  PUSH_REG(lr)
  bl _libX11_so_save_regs_and_resolve
  POP_REG(lr)
  add sp, #4
  .cfi_adjust_cfa_offset -4
  bx ip

  // Force constant pool for ldr above
  .ltorg

  .cfi_endproc

3:
  .word _libX11_so_tramp_table - (2b + 8) + 464

/*
 * Copyright 2018-2025 Yury Gribov
 *
 * The MIT License (MIT)
 *
 * Use of this source code is governed by MIT license that can be
 * found in the LICENSE.txt file.
 */

  .globl XDrawArcs
  .p2align 4
  .type XDrawArcs, %function
#ifndef IMPLIB_EXPORT_SHIMS
  .hidden XDrawArcs
#endif
XDrawArcs:
  .cfi_startproc

1:
  // Load address
  // TODO: can we do this faster on newer ARMs?
  ldr ip, 3f
2:
  add ip, pc, ip
  ldr ip, [ip]

  cmp ip, #0

  // Fast path
  bxne ip

  // Slow path
  ldr ip, =117
  push {ip}
  .cfi_adjust_cfa_offset 4
  PUSH_REG(lr)
  bl _libX11_so_save_regs_and_resolve
  POP_REG(lr)
  add sp, #4
  .cfi_adjust_cfa_offset -4
  bx ip

  // Force constant pool for ldr above
  .ltorg

  .cfi_endproc

3:
  .word _libX11_so_tramp_table - (2b + 8) + 468

/*
 * Copyright 2018-2025 Yury Gribov
 *
 * The MIT License (MIT)
 *
 * Use of this source code is governed by MIT license that can be
 * found in the LICENSE.txt file.
 */

  .globl XDrawImageString
  .p2align 4
  .type XDrawImageString, %function
#ifndef IMPLIB_EXPORT_SHIMS
  .hidden XDrawImageString
#endif
XDrawImageString:
  .cfi_startproc

1:
  // Load address
  // TODO: can we do this faster on newer ARMs?
  ldr ip, 3f
2:
  add ip, pc, ip
  ldr ip, [ip]

  cmp ip, #0

  // Fast path
  bxne ip

  // Slow path
  ldr ip, =118
  push {ip}
  .cfi_adjust_cfa_offset 4
  PUSH_REG(lr)
  bl _libX11_so_save_regs_and_resolve
  POP_REG(lr)
  add sp, #4
  .cfi_adjust_cfa_offset -4
  bx ip

  // Force constant pool for ldr above
  .ltorg

  .cfi_endproc

3:
  .word _libX11_so_tramp_table - (2b + 8) + 472

/*
 * Copyright 2018-2025 Yury Gribov
 *
 * The MIT License (MIT)
 *
 * Use of this source code is governed by MIT license that can be
 * found in the LICENSE.txt file.
 */

  .globl XDrawImageString16
  .p2align 4
  .type XDrawImageString16, %function
#ifndef IMPLIB_EXPORT_SHIMS
  .hidden XDrawImageString16
#endif
XDrawImageString16:
  .cfi_startproc

1:
  // Load address
  // TODO: can we do this faster on newer ARMs?
  ldr ip, 3f
2:
  add ip, pc, ip
  ldr ip, [ip]

  cmp ip, #0

  // Fast path
  bxne ip

  // Slow path
  ldr ip, =119
  push {ip}
  .cfi_adjust_cfa_offset 4
  PUSH_REG(lr)
  bl _libX11_so_save_regs_and_resolve
  POP_REG(lr)
  add sp, #4
  .cfi_adjust_cfa_offset -4
  bx ip

  // Force constant pool for ldr above
  .ltorg

  .cfi_endproc

3:
  .word _libX11_so_tramp_table - (2b + 8) + 476

/*
 * Copyright 2018-2025 Yury Gribov
 *
 * The MIT License (MIT)
 *
 * Use of this source code is governed by MIT license that can be
 * found in the LICENSE.txt file.
 */

  .globl XDrawLine
  .p2align 4
  .type XDrawLine, %function
#ifndef IMPLIB_EXPORT_SHIMS
  .hidden XDrawLine
#endif
XDrawLine:
  .cfi_startproc

1:
  // Load address
  // TODO: can we do this faster on newer ARMs?
  ldr ip, 3f
2:
  add ip, pc, ip
  ldr ip, [ip]

  cmp ip, #0

  // Fast path
  bxne ip

  // Slow path
  ldr ip, =120
  push {ip}
  .cfi_adjust_cfa_offset 4
  PUSH_REG(lr)
  bl _libX11_so_save_regs_and_resolve
  POP_REG(lr)
  add sp, #4
  .cfi_adjust_cfa_offset -4
  bx ip

  // Force constant pool for ldr above
  .ltorg

  .cfi_endproc

3:
  .word _libX11_so_tramp_table - (2b + 8) + 480

/*
 * Copyright 2018-2025 Yury Gribov
 *
 * The MIT License (MIT)
 *
 * Use of this source code is governed by MIT license that can be
 * found in the LICENSE.txt file.
 */

  .globl XDrawLines
  .p2align 4
  .type XDrawLines, %function
#ifndef IMPLIB_EXPORT_SHIMS
  .hidden XDrawLines
#endif
XDrawLines:
  .cfi_startproc

1:
  // Load address
  // TODO: can we do this faster on newer ARMs?
  ldr ip, 3f
2:
  add ip, pc, ip
  ldr ip, [ip]

  cmp ip, #0

  // Fast path
  bxne ip

  // Slow path
  ldr ip, =121
  push {ip}
  .cfi_adjust_cfa_offset 4
  PUSH_REG(lr)
  bl _libX11_so_save_regs_and_resolve
  POP_REG(lr)
  add sp, #4
  .cfi_adjust_cfa_offset -4
  bx ip

  // Force constant pool for ldr above
  .ltorg

  .cfi_endproc

3:
  .word _libX11_so_tramp_table - (2b + 8) + 484

/*
 * Copyright 2018-2025 Yury Gribov
 *
 * The MIT License (MIT)
 *
 * Use of this source code is governed by MIT license that can be
 * found in the LICENSE.txt file.
 */

  .globl XDrawPoint
  .p2align 4
  .type XDrawPoint, %function
#ifndef IMPLIB_EXPORT_SHIMS
  .hidden XDrawPoint
#endif
XDrawPoint:
  .cfi_startproc

1:
  // Load address
  // TODO: can we do this faster on newer ARMs?
  ldr ip, 3f
2:
  add ip, pc, ip
  ldr ip, [ip]

  cmp ip, #0

  // Fast path
  bxne ip

  // Slow path
  ldr ip, =122
  push {ip}
  .cfi_adjust_cfa_offset 4
  PUSH_REG(lr)
  bl _libX11_so_save_regs_and_resolve
  POP_REG(lr)
  add sp, #4
  .cfi_adjust_cfa_offset -4
  bx ip

  // Force constant pool for ldr above
  .ltorg

  .cfi_endproc

3:
  .word _libX11_so_tramp_table - (2b + 8) + 488

/*
 * Copyright 2018-2025 Yury Gribov
 *
 * The MIT License (MIT)
 *
 * Use of this source code is governed by MIT license that can be
 * found in the LICENSE.txt file.
 */

  .globl XDrawPoints
  .p2align 4
  .type XDrawPoints, %function
#ifndef IMPLIB_EXPORT_SHIMS
  .hidden XDrawPoints
#endif
XDrawPoints:
  .cfi_startproc

1:
  // Load address
  // TODO: can we do this faster on newer ARMs?
  ldr ip, 3f
2:
  add ip, pc, ip
  ldr ip, [ip]

  cmp ip, #0

  // Fast path
  bxne ip

  // Slow path
  ldr ip, =123
  push {ip}
  .cfi_adjust_cfa_offset 4
  PUSH_REG(lr)
  bl _libX11_so_save_regs_and_resolve
  POP_REG(lr)
  add sp, #4
  .cfi_adjust_cfa_offset -4
  bx ip

  // Force constant pool for ldr above
  .ltorg

  .cfi_endproc

3:
  .word _libX11_so_tramp_table - (2b + 8) + 492

/*
 * Copyright 2018-2025 Yury Gribov
 *
 * The MIT License (MIT)
 *
 * Use of this source code is governed by MIT license that can be
 * found in the LICENSE.txt file.
 */

  .globl XDrawRectangle
  .p2align 4
  .type XDrawRectangle, %function
#ifndef IMPLIB_EXPORT_SHIMS
  .hidden XDrawRectangle
#endif
XDrawRectangle:
  .cfi_startproc

1:
  // Load address
  // TODO: can we do this faster on newer ARMs?
  ldr ip, 3f
2:
  add ip, pc, ip
  ldr ip, [ip]

  cmp ip, #0

  // Fast path
  bxne ip

  // Slow path
  ldr ip, =124
  push {ip}
  .cfi_adjust_cfa_offset 4
  PUSH_REG(lr)
  bl _libX11_so_save_regs_and_resolve
  POP_REG(lr)
  add sp, #4
  .cfi_adjust_cfa_offset -4
  bx ip

  // Force constant pool for ldr above
  .ltorg

  .cfi_endproc

3:
  .word _libX11_so_tramp_table - (2b + 8) + 496

/*
 * Copyright 2018-2025 Yury Gribov
 *
 * The MIT License (MIT)
 *
 * Use of this source code is governed by MIT license that can be
 * found in the LICENSE.txt file.
 */

  .globl XDrawRectangles
  .p2align 4
  .type XDrawRectangles, %function
#ifndef IMPLIB_EXPORT_SHIMS
  .hidden XDrawRectangles
#endif
XDrawRectangles:
  .cfi_startproc

1:
  // Load address
  // TODO: can we do this faster on newer ARMs?
  ldr ip, 3f
2:
  add ip, pc, ip
  ldr ip, [ip]

  cmp ip, #0

  // Fast path
  bxne ip

  // Slow path
  ldr ip, =125
  push {ip}
  .cfi_adjust_cfa_offset 4
  PUSH_REG(lr)
  bl _libX11_so_save_regs_and_resolve
  POP_REG(lr)
  add sp, #4
  .cfi_adjust_cfa_offset -4
  bx ip

  // Force constant pool for ldr above
  .ltorg

  .cfi_endproc

3:
  .word _libX11_so_tramp_table - (2b + 8) + 500

/*
 * Copyright 2018-2025 Yury Gribov
 *
 * The MIT License (MIT)
 *
 * Use of this source code is governed by MIT license that can be
 * found in the LICENSE.txt file.
 */

  .globl XDrawSegments
  .p2align 4
  .type XDrawSegments, %function
#ifndef IMPLIB_EXPORT_SHIMS
  .hidden XDrawSegments
#endif
XDrawSegments:
  .cfi_startproc

1:
  // Load address
  // TODO: can we do this faster on newer ARMs?
  ldr ip, 3f
2:
  add ip, pc, ip
  ldr ip, [ip]

  cmp ip, #0

  // Fast path
  bxne ip

  // Slow path
  ldr ip, =126
  push {ip}
  .cfi_adjust_cfa_offset 4
  PUSH_REG(lr)
  bl _libX11_so_save_regs_and_resolve
  POP_REG(lr)
  add sp, #4
  .cfi_adjust_cfa_offset -4
  bx ip

  // Force constant pool for ldr above
  .ltorg

  .cfi_endproc

3:
  .word _libX11_so_tramp_table - (2b + 8) + 504

/*
 * Copyright 2018-2025 Yury Gribov
 *
 * The MIT License (MIT)
 *
 * Use of this source code is governed by MIT license that can be
 * found in the LICENSE.txt file.
 */

  .globl XDrawString
  .p2align 4
  .type XDrawString, %function
#ifndef IMPLIB_EXPORT_SHIMS
  .hidden XDrawString
#endif
XDrawString:
  .cfi_startproc

1:
  // Load address
  // TODO: can we do this faster on newer ARMs?
  ldr ip, 3f
2:
  add ip, pc, ip
  ldr ip, [ip]

  cmp ip, #0

  // Fast path
  bxne ip

  // Slow path
  ldr ip, =127
  push {ip}
  .cfi_adjust_cfa_offset 4
  PUSH_REG(lr)
  bl _libX11_so_save_regs_and_resolve
  POP_REG(lr)
  add sp, #4
  .cfi_adjust_cfa_offset -4
  bx ip

  // Force constant pool for ldr above
  .ltorg

  .cfi_endproc

3:
  .word _libX11_so_tramp_table - (2b + 8) + 508

/*
 * Copyright 2018-2025 Yury Gribov
 *
 * The MIT License (MIT)
 *
 * Use of this source code is governed by MIT license that can be
 * found in the LICENSE.txt file.
 */

  .globl XDrawString16
  .p2align 4
  .type XDrawString16, %function
#ifndef IMPLIB_EXPORT_SHIMS
  .hidden XDrawString16
#endif
XDrawString16:
  .cfi_startproc

1:
  // Load address
  // TODO: can we do this faster on newer ARMs?
  ldr ip, 3f
2:
  add ip, pc, ip
  ldr ip, [ip]

  cmp ip, #0

  // Fast path
  bxne ip

  // Slow path
  ldr ip, =128
  push {ip}
  .cfi_adjust_cfa_offset 4
  PUSH_REG(lr)
  bl _libX11_so_save_regs_and_resolve
  POP_REG(lr)
  add sp, #4
  .cfi_adjust_cfa_offset -4
  bx ip

  // Force constant pool for ldr above
  .ltorg

  .cfi_endproc

3:
  .word _libX11_so_tramp_table - (2b + 8) + 512

/*
 * Copyright 2018-2025 Yury Gribov
 *
 * The MIT License (MIT)
 *
 * Use of this source code is governed by MIT license that can be
 * found in the LICENSE.txt file.
 */

  .globl XDrawText
  .p2align 4
  .type XDrawText, %function
#ifndef IMPLIB_EXPORT_SHIMS
  .hidden XDrawText
#endif
XDrawText:
  .cfi_startproc

1:
  // Load address
  // TODO: can we do this faster on newer ARMs?
  ldr ip, 3f
2:
  add ip, pc, ip
  ldr ip, [ip]

  cmp ip, #0

  // Fast path
  bxne ip

  // Slow path
  ldr ip, =129
  push {ip}
  .cfi_adjust_cfa_offset 4
  PUSH_REG(lr)
  bl _libX11_so_save_regs_and_resolve
  POP_REG(lr)
  add sp, #4
  .cfi_adjust_cfa_offset -4
  bx ip

  // Force constant pool for ldr above
  .ltorg

  .cfi_endproc

3:
  .word _libX11_so_tramp_table - (2b + 8) + 516

/*
 * Copyright 2018-2025 Yury Gribov
 *
 * The MIT License (MIT)
 *
 * Use of this source code is governed by MIT license that can be
 * found in the LICENSE.txt file.
 */

  .globl XDrawText16
  .p2align 4
  .type XDrawText16, %function
#ifndef IMPLIB_EXPORT_SHIMS
  .hidden XDrawText16
#endif
XDrawText16:
  .cfi_startproc

1:
  // Load address
  // TODO: can we do this faster on newer ARMs?
  ldr ip, 3f
2:
  add ip, pc, ip
  ldr ip, [ip]

  cmp ip, #0

  // Fast path
  bxne ip

  // Slow path
  ldr ip, =130
  push {ip}
  .cfi_adjust_cfa_offset 4
  PUSH_REG(lr)
  bl _libX11_so_save_regs_and_resolve
  POP_REG(lr)
  add sp, #4
  .cfi_adjust_cfa_offset -4
  bx ip

  // Force constant pool for ldr above
  .ltorg

  .cfi_endproc

3:
  .word _libX11_so_tramp_table - (2b + 8) + 520

/*
 * Copyright 2018-2025 Yury Gribov
 *
 * The MIT License (MIT)
 *
 * Use of this source code is governed by MIT license that can be
 * found in the LICENSE.txt file.
 */

  .globl XEHeadOfExtensionList
  .p2align 4
  .type XEHeadOfExtensionList, %function
#ifndef IMPLIB_EXPORT_SHIMS
  .hidden XEHeadOfExtensionList
#endif
XEHeadOfExtensionList:
  .cfi_startproc

1:
  // Load address
  // TODO: can we do this faster on newer ARMs?
  ldr ip, 3f
2:
  add ip, pc, ip
  ldr ip, [ip]

  cmp ip, #0

  // Fast path
  bxne ip

  // Slow path
  ldr ip, =131
  push {ip}
  .cfi_adjust_cfa_offset 4
  PUSH_REG(lr)
  bl _libX11_so_save_regs_and_resolve
  POP_REG(lr)
  add sp, #4
  .cfi_adjust_cfa_offset -4
  bx ip

  // Force constant pool for ldr above
  .ltorg

  .cfi_endproc

3:
  .word _libX11_so_tramp_table - (2b + 8) + 524

/*
 * Copyright 2018-2025 Yury Gribov
 *
 * The MIT License (MIT)
 *
 * Use of this source code is governed by MIT license that can be
 * found in the LICENSE.txt file.
 */

  .globl XESetBeforeFlush
  .p2align 4
  .type XESetBeforeFlush, %function
#ifndef IMPLIB_EXPORT_SHIMS
  .hidden XESetBeforeFlush
#endif
XESetBeforeFlush:
  .cfi_startproc

1:
  // Load address
  // TODO: can we do this faster on newer ARMs?
  ldr ip, 3f
2:
  add ip, pc, ip
  ldr ip, [ip]

  cmp ip, #0

  // Fast path
  bxne ip

  // Slow path
  ldr ip, =132
  push {ip}
  .cfi_adjust_cfa_offset 4
  PUSH_REG(lr)
  bl _libX11_so_save_regs_and_resolve
  POP_REG(lr)
  add sp, #4
  .cfi_adjust_cfa_offset -4
  bx ip

  // Force constant pool for ldr above
  .ltorg

  .cfi_endproc

3:
  .word _libX11_so_tramp_table - (2b + 8) + 528

/*
 * Copyright 2018-2025 Yury Gribov
 *
 * The MIT License (MIT)
 *
 * Use of this source code is governed by MIT license that can be
 * found in the LICENSE.txt file.
 */

  .globl XESetCloseDisplay
  .p2align 4
  .type XESetCloseDisplay, %function
#ifndef IMPLIB_EXPORT_SHIMS
  .hidden XESetCloseDisplay
#endif
XESetCloseDisplay:
  .cfi_startproc

1:
  // Load address
  // TODO: can we do this faster on newer ARMs?
  ldr ip, 3f
2:
  add ip, pc, ip
  ldr ip, [ip]

  cmp ip, #0

  // Fast path
  bxne ip

  // Slow path
  ldr ip, =133
  push {ip}
  .cfi_adjust_cfa_offset 4
  PUSH_REG(lr)
  bl _libX11_so_save_regs_and_resolve
  POP_REG(lr)
  add sp, #4
  .cfi_adjust_cfa_offset -4
  bx ip

  // Force constant pool for ldr above
  .ltorg

  .cfi_endproc

3:
  .word _libX11_so_tramp_table - (2b + 8) + 532

/*
 * Copyright 2018-2025 Yury Gribov
 *
 * The MIT License (MIT)
 *
 * Use of this source code is governed by MIT license that can be
 * found in the LICENSE.txt file.
 */

  .globl XESetCopyEventCookie
  .p2align 4
  .type XESetCopyEventCookie, %function
#ifndef IMPLIB_EXPORT_SHIMS
  .hidden XESetCopyEventCookie
#endif
XESetCopyEventCookie:
  .cfi_startproc

1:
  // Load address
  // TODO: can we do this faster on newer ARMs?
  ldr ip, 3f
2:
  add ip, pc, ip
  ldr ip, [ip]

  cmp ip, #0

  // Fast path
  bxne ip

  // Slow path
  ldr ip, =134
  push {ip}
  .cfi_adjust_cfa_offset 4
  PUSH_REG(lr)
  bl _libX11_so_save_regs_and_resolve
  POP_REG(lr)
  add sp, #4
  .cfi_adjust_cfa_offset -4
  bx ip

  // Force constant pool for ldr above
  .ltorg

  .cfi_endproc

3:
  .word _libX11_so_tramp_table - (2b + 8) + 536

/*
 * Copyright 2018-2025 Yury Gribov
 *
 * The MIT License (MIT)
 *
 * Use of this source code is governed by MIT license that can be
 * found in the LICENSE.txt file.
 */

  .globl XESetCopyGC
  .p2align 4
  .type XESetCopyGC, %function
#ifndef IMPLIB_EXPORT_SHIMS
  .hidden XESetCopyGC
#endif
XESetCopyGC:
  .cfi_startproc

1:
  // Load address
  // TODO: can we do this faster on newer ARMs?
  ldr ip, 3f
2:
  add ip, pc, ip
  ldr ip, [ip]

  cmp ip, #0

  // Fast path
  bxne ip

  // Slow path
  ldr ip, =135
  push {ip}
  .cfi_adjust_cfa_offset 4
  PUSH_REG(lr)
  bl _libX11_so_save_regs_and_resolve
  POP_REG(lr)
  add sp, #4
  .cfi_adjust_cfa_offset -4
  bx ip

  // Force constant pool for ldr above
  .ltorg

  .cfi_endproc

3:
  .word _libX11_so_tramp_table - (2b + 8) + 540

/*
 * Copyright 2018-2025 Yury Gribov
 *
 * The MIT License (MIT)
 *
 * Use of this source code is governed by MIT license that can be
 * found in the LICENSE.txt file.
 */

  .globl XESetCreateFont
  .p2align 4
  .type XESetCreateFont, %function
#ifndef IMPLIB_EXPORT_SHIMS
  .hidden XESetCreateFont
#endif
XESetCreateFont:
  .cfi_startproc

1:
  // Load address
  // TODO: can we do this faster on newer ARMs?
  ldr ip, 3f
2:
  add ip, pc, ip
  ldr ip, [ip]

  cmp ip, #0

  // Fast path
  bxne ip

  // Slow path
  ldr ip, =136
  push {ip}
  .cfi_adjust_cfa_offset 4
  PUSH_REG(lr)
  bl _libX11_so_save_regs_and_resolve
  POP_REG(lr)
  add sp, #4
  .cfi_adjust_cfa_offset -4
  bx ip

  // Force constant pool for ldr above
  .ltorg

  .cfi_endproc

3:
  .word _libX11_so_tramp_table - (2b + 8) + 544

/*
 * Copyright 2018-2025 Yury Gribov
 *
 * The MIT License (MIT)
 *
 * Use of this source code is governed by MIT license that can be
 * found in the LICENSE.txt file.
 */

  .globl XESetCreateGC
  .p2align 4
  .type XESetCreateGC, %function
#ifndef IMPLIB_EXPORT_SHIMS
  .hidden XESetCreateGC
#endif
XESetCreateGC:
  .cfi_startproc

1:
  // Load address
  // TODO: can we do this faster on newer ARMs?
  ldr ip, 3f
2:
  add ip, pc, ip
  ldr ip, [ip]

  cmp ip, #0

  // Fast path
  bxne ip

  // Slow path
  ldr ip, =137
  push {ip}
  .cfi_adjust_cfa_offset 4
  PUSH_REG(lr)
  bl _libX11_so_save_regs_and_resolve
  POP_REG(lr)
  add sp, #4
  .cfi_adjust_cfa_offset -4
  bx ip

  // Force constant pool for ldr above
  .ltorg

  .cfi_endproc

3:
  .word _libX11_so_tramp_table - (2b + 8) + 548

/*
 * Copyright 2018-2025 Yury Gribov
 *
 * The MIT License (MIT)
 *
 * Use of this source code is governed by MIT license that can be
 * found in the LICENSE.txt file.
 */

  .globl XESetError
  .p2align 4
  .type XESetError, %function
#ifndef IMPLIB_EXPORT_SHIMS
  .hidden XESetError
#endif
XESetError:
  .cfi_startproc

1:
  // Load address
  // TODO: can we do this faster on newer ARMs?
  ldr ip, 3f
2:
  add ip, pc, ip
  ldr ip, [ip]

  cmp ip, #0

  // Fast path
  bxne ip

  // Slow path
  ldr ip, =138
  push {ip}
  .cfi_adjust_cfa_offset 4
  PUSH_REG(lr)
  bl _libX11_so_save_regs_and_resolve
  POP_REG(lr)
  add sp, #4
  .cfi_adjust_cfa_offset -4
  bx ip

  // Force constant pool for ldr above
  .ltorg

  .cfi_endproc

3:
  .word _libX11_so_tramp_table - (2b + 8) + 552

/*
 * Copyright 2018-2025 Yury Gribov
 *
 * The MIT License (MIT)
 *
 * Use of this source code is governed by MIT license that can be
 * found in the LICENSE.txt file.
 */

  .globl XESetErrorString
  .p2align 4
  .type XESetErrorString, %function
#ifndef IMPLIB_EXPORT_SHIMS
  .hidden XESetErrorString
#endif
XESetErrorString:
  .cfi_startproc

1:
  // Load address
  // TODO: can we do this faster on newer ARMs?
  ldr ip, 3f
2:
  add ip, pc, ip
  ldr ip, [ip]

  cmp ip, #0

  // Fast path
  bxne ip

  // Slow path
  ldr ip, =139
  push {ip}
  .cfi_adjust_cfa_offset 4
  PUSH_REG(lr)
  bl _libX11_so_save_regs_and_resolve
  POP_REG(lr)
  add sp, #4
  .cfi_adjust_cfa_offset -4
  bx ip

  // Force constant pool for ldr above
  .ltorg

  .cfi_endproc

3:
  .word _libX11_so_tramp_table - (2b + 8) + 556

/*
 * Copyright 2018-2025 Yury Gribov
 *
 * The MIT License (MIT)
 *
 * Use of this source code is governed by MIT license that can be
 * found in the LICENSE.txt file.
 */

  .globl XESetEventToWire
  .p2align 4
  .type XESetEventToWire, %function
#ifndef IMPLIB_EXPORT_SHIMS
  .hidden XESetEventToWire
#endif
XESetEventToWire:
  .cfi_startproc

1:
  // Load address
  // TODO: can we do this faster on newer ARMs?
  ldr ip, 3f
2:
  add ip, pc, ip
  ldr ip, [ip]

  cmp ip, #0

  // Fast path
  bxne ip

  // Slow path
  ldr ip, =140
  push {ip}
  .cfi_adjust_cfa_offset 4
  PUSH_REG(lr)
  bl _libX11_so_save_regs_and_resolve
  POP_REG(lr)
  add sp, #4
  .cfi_adjust_cfa_offset -4
  bx ip

  // Force constant pool for ldr above
  .ltorg

  .cfi_endproc

3:
  .word _libX11_so_tramp_table - (2b + 8) + 560

/*
 * Copyright 2018-2025 Yury Gribov
 *
 * The MIT License (MIT)
 *
 * Use of this source code is governed by MIT license that can be
 * found in the LICENSE.txt file.
 */

  .globl XESetFlushGC
  .p2align 4
  .type XESetFlushGC, %function
#ifndef IMPLIB_EXPORT_SHIMS
  .hidden XESetFlushGC
#endif
XESetFlushGC:
  .cfi_startproc

1:
  // Load address
  // TODO: can we do this faster on newer ARMs?
  ldr ip, 3f
2:
  add ip, pc, ip
  ldr ip, [ip]

  cmp ip, #0

  // Fast path
  bxne ip

  // Slow path
  ldr ip, =141
  push {ip}
  .cfi_adjust_cfa_offset 4
  PUSH_REG(lr)
  bl _libX11_so_save_regs_and_resolve
  POP_REG(lr)
  add sp, #4
  .cfi_adjust_cfa_offset -4
  bx ip

  // Force constant pool for ldr above
  .ltorg

  .cfi_endproc

3:
  .word _libX11_so_tramp_table - (2b + 8) + 564

/*
 * Copyright 2018-2025 Yury Gribov
 *
 * The MIT License (MIT)
 *
 * Use of this source code is governed by MIT license that can be
 * found in the LICENSE.txt file.
 */

  .globl XESetFreeFont
  .p2align 4
  .type XESetFreeFont, %function
#ifndef IMPLIB_EXPORT_SHIMS
  .hidden XESetFreeFont
#endif
XESetFreeFont:
  .cfi_startproc

1:
  // Load address
  // TODO: can we do this faster on newer ARMs?
  ldr ip, 3f
2:
  add ip, pc, ip
  ldr ip, [ip]

  cmp ip, #0

  // Fast path
  bxne ip

  // Slow path
  ldr ip, =142
  push {ip}
  .cfi_adjust_cfa_offset 4
  PUSH_REG(lr)
  bl _libX11_so_save_regs_and_resolve
  POP_REG(lr)
  add sp, #4
  .cfi_adjust_cfa_offset -4
  bx ip

  // Force constant pool for ldr above
  .ltorg

  .cfi_endproc

3:
  .word _libX11_so_tramp_table - (2b + 8) + 568

/*
 * Copyright 2018-2025 Yury Gribov
 *
 * The MIT License (MIT)
 *
 * Use of this source code is governed by MIT license that can be
 * found in the LICENSE.txt file.
 */

  .globl XESetFreeGC
  .p2align 4
  .type XESetFreeGC, %function
#ifndef IMPLIB_EXPORT_SHIMS
  .hidden XESetFreeGC
#endif
XESetFreeGC:
  .cfi_startproc

1:
  // Load address
  // TODO: can we do this faster on newer ARMs?
  ldr ip, 3f
2:
  add ip, pc, ip
  ldr ip, [ip]

  cmp ip, #0

  // Fast path
  bxne ip

  // Slow path
  ldr ip, =143
  push {ip}
  .cfi_adjust_cfa_offset 4
  PUSH_REG(lr)
  bl _libX11_so_save_regs_and_resolve
  POP_REG(lr)
  add sp, #4
  .cfi_adjust_cfa_offset -4
  bx ip

  // Force constant pool for ldr above
  .ltorg

  .cfi_endproc

3:
  .word _libX11_so_tramp_table - (2b + 8) + 572

/*
 * Copyright 2018-2025 Yury Gribov
 *
 * The MIT License (MIT)
 *
 * Use of this source code is governed by MIT license that can be
 * found in the LICENSE.txt file.
 */

  .globl XESetPrintErrorValues
  .p2align 4
  .type XESetPrintErrorValues, %function
#ifndef IMPLIB_EXPORT_SHIMS
  .hidden XESetPrintErrorValues
#endif
XESetPrintErrorValues:
  .cfi_startproc

1:
  // Load address
  // TODO: can we do this faster on newer ARMs?
  ldr ip, 3f
2:
  add ip, pc, ip
  ldr ip, [ip]

  cmp ip, #0

  // Fast path
  bxne ip

  // Slow path
  ldr ip, =144
  push {ip}
  .cfi_adjust_cfa_offset 4
  PUSH_REG(lr)
  bl _libX11_so_save_regs_and_resolve
  POP_REG(lr)
  add sp, #4
  .cfi_adjust_cfa_offset -4
  bx ip

  // Force constant pool for ldr above
  .ltorg

  .cfi_endproc

3:
  .word _libX11_so_tramp_table - (2b + 8) + 576

/*
 * Copyright 2018-2025 Yury Gribov
 *
 * The MIT License (MIT)
 *
 * Use of this source code is governed by MIT license that can be
 * found in the LICENSE.txt file.
 */

  .globl XESetWireToError
  .p2align 4
  .type XESetWireToError, %function
#ifndef IMPLIB_EXPORT_SHIMS
  .hidden XESetWireToError
#endif
XESetWireToError:
  .cfi_startproc

1:
  // Load address
  // TODO: can we do this faster on newer ARMs?
  ldr ip, 3f
2:
  add ip, pc, ip
  ldr ip, [ip]

  cmp ip, #0

  // Fast path
  bxne ip

  // Slow path
  ldr ip, =145
  push {ip}
  .cfi_adjust_cfa_offset 4
  PUSH_REG(lr)
  bl _libX11_so_save_regs_and_resolve
  POP_REG(lr)
  add sp, #4
  .cfi_adjust_cfa_offset -4
  bx ip

  // Force constant pool for ldr above
  .ltorg

  .cfi_endproc

3:
  .word _libX11_so_tramp_table - (2b + 8) + 580

/*
 * Copyright 2018-2025 Yury Gribov
 *
 * The MIT License (MIT)
 *
 * Use of this source code is governed by MIT license that can be
 * found in the LICENSE.txt file.
 */

  .globl XESetWireToEvent
  .p2align 4
  .type XESetWireToEvent, %function
#ifndef IMPLIB_EXPORT_SHIMS
  .hidden XESetWireToEvent
#endif
XESetWireToEvent:
  .cfi_startproc

1:
  // Load address
  // TODO: can we do this faster on newer ARMs?
  ldr ip, 3f
2:
  add ip, pc, ip
  ldr ip, [ip]

  cmp ip, #0

  // Fast path
  bxne ip

  // Slow path
  ldr ip, =146
  push {ip}
  .cfi_adjust_cfa_offset 4
  PUSH_REG(lr)
  bl _libX11_so_save_regs_and_resolve
  POP_REG(lr)
  add sp, #4
  .cfi_adjust_cfa_offset -4
  bx ip

  // Force constant pool for ldr above
  .ltorg

  .cfi_endproc

3:
  .word _libX11_so_tramp_table - (2b + 8) + 584

/*
 * Copyright 2018-2025 Yury Gribov
 *
 * The MIT License (MIT)
 *
 * Use of this source code is governed by MIT license that can be
 * found in the LICENSE.txt file.
 */

  .globl XESetWireToEventCookie
  .p2align 4
  .type XESetWireToEventCookie, %function
#ifndef IMPLIB_EXPORT_SHIMS
  .hidden XESetWireToEventCookie
#endif
XESetWireToEventCookie:
  .cfi_startproc

1:
  // Load address
  // TODO: can we do this faster on newer ARMs?
  ldr ip, 3f
2:
  add ip, pc, ip
  ldr ip, [ip]

  cmp ip, #0

  // Fast path
  bxne ip

  // Slow path
  ldr ip, =147
  push {ip}
  .cfi_adjust_cfa_offset 4
  PUSH_REG(lr)
  bl _libX11_so_save_regs_and_resolve
  POP_REG(lr)
  add sp, #4
  .cfi_adjust_cfa_offset -4
  bx ip

  // Force constant pool for ldr above
  .ltorg

  .cfi_endproc

3:
  .word _libX11_so_tramp_table - (2b + 8) + 588

/*
 * Copyright 2018-2025 Yury Gribov
 *
 * The MIT License (MIT)
 *
 * Use of this source code is governed by MIT license that can be
 * found in the LICENSE.txt file.
 */

  .globl XEmptyRegion
  .p2align 4
  .type XEmptyRegion, %function
#ifndef IMPLIB_EXPORT_SHIMS
  .hidden XEmptyRegion
#endif
XEmptyRegion:
  .cfi_startproc

1:
  // Load address
  // TODO: can we do this faster on newer ARMs?
  ldr ip, 3f
2:
  add ip, pc, ip
  ldr ip, [ip]

  cmp ip, #0

  // Fast path
  bxne ip

  // Slow path
  ldr ip, =148
  push {ip}
  .cfi_adjust_cfa_offset 4
  PUSH_REG(lr)
  bl _libX11_so_save_regs_and_resolve
  POP_REG(lr)
  add sp, #4
  .cfi_adjust_cfa_offset -4
  bx ip

  // Force constant pool for ldr above
  .ltorg

  .cfi_endproc

3:
  .word _libX11_so_tramp_table - (2b + 8) + 592

/*
 * Copyright 2018-2025 Yury Gribov
 *
 * The MIT License (MIT)
 *
 * Use of this source code is governed by MIT license that can be
 * found in the LICENSE.txt file.
 */

  .globl XEnableAccessControl
  .p2align 4
  .type XEnableAccessControl, %function
#ifndef IMPLIB_EXPORT_SHIMS
  .hidden XEnableAccessControl
#endif
XEnableAccessControl:
  .cfi_startproc

1:
  // Load address
  // TODO: can we do this faster on newer ARMs?
  ldr ip, 3f
2:
  add ip, pc, ip
  ldr ip, [ip]

  cmp ip, #0

  // Fast path
  bxne ip

  // Slow path
  ldr ip, =149
  push {ip}
  .cfi_adjust_cfa_offset 4
  PUSH_REG(lr)
  bl _libX11_so_save_regs_and_resolve
  POP_REG(lr)
  add sp, #4
  .cfi_adjust_cfa_offset -4
  bx ip

  // Force constant pool for ldr above
  .ltorg

  .cfi_endproc

3:
  .word _libX11_so_tramp_table - (2b + 8) + 596

/*
 * Copyright 2018-2025 Yury Gribov
 *
 * The MIT License (MIT)
 *
 * Use of this source code is governed by MIT license that can be
 * found in the LICENSE.txt file.
 */

  .globl XEqualRegion
  .p2align 4
  .type XEqualRegion, %function
#ifndef IMPLIB_EXPORT_SHIMS
  .hidden XEqualRegion
#endif
XEqualRegion:
  .cfi_startproc

1:
  // Load address
  // TODO: can we do this faster on newer ARMs?
  ldr ip, 3f
2:
  add ip, pc, ip
  ldr ip, [ip]

  cmp ip, #0

  // Fast path
  bxne ip

  // Slow path
  ldr ip, =150
  push {ip}
  .cfi_adjust_cfa_offset 4
  PUSH_REG(lr)
  bl _libX11_so_save_regs_and_resolve
  POP_REG(lr)
  add sp, #4
  .cfi_adjust_cfa_offset -4
  bx ip

  // Force constant pool for ldr above
  .ltorg

  .cfi_endproc

3:
  .word _libX11_so_tramp_table - (2b + 8) + 600

/*
 * Copyright 2018-2025 Yury Gribov
 *
 * The MIT License (MIT)
 *
 * Use of this source code is governed by MIT license that can be
 * found in the LICENSE.txt file.
 */

  .globl XEventMaskOfScreen
  .p2align 4
  .type XEventMaskOfScreen, %function
#ifndef IMPLIB_EXPORT_SHIMS
  .hidden XEventMaskOfScreen
#endif
XEventMaskOfScreen:
  .cfi_startproc

1:
  // Load address
  // TODO: can we do this faster on newer ARMs?
  ldr ip, 3f
2:
  add ip, pc, ip
  ldr ip, [ip]

  cmp ip, #0

  // Fast path
  bxne ip

  // Slow path
  ldr ip, =151
  push {ip}
  .cfi_adjust_cfa_offset 4
  PUSH_REG(lr)
  bl _libX11_so_save_regs_and_resolve
  POP_REG(lr)
  add sp, #4
  .cfi_adjust_cfa_offset -4
  bx ip

  // Force constant pool for ldr above
  .ltorg

  .cfi_endproc

3:
  .word _libX11_so_tramp_table - (2b + 8) + 604

/*
 * Copyright 2018-2025 Yury Gribov
 *
 * The MIT License (MIT)
 *
 * Use of this source code is governed by MIT license that can be
 * found in the LICENSE.txt file.
 */

  .globl XEventsQueued
  .p2align 4
  .type XEventsQueued, %function
#ifndef IMPLIB_EXPORT_SHIMS
  .hidden XEventsQueued
#endif
XEventsQueued:
  .cfi_startproc

1:
  // Load address
  // TODO: can we do this faster on newer ARMs?
  ldr ip, 3f
2:
  add ip, pc, ip
  ldr ip, [ip]

  cmp ip, #0

  // Fast path
  bxne ip

  // Slow path
  ldr ip, =152
  push {ip}
  .cfi_adjust_cfa_offset 4
  PUSH_REG(lr)
  bl _libX11_so_save_regs_and_resolve
  POP_REG(lr)
  add sp, #4
  .cfi_adjust_cfa_offset -4
  bx ip

  // Force constant pool for ldr above
  .ltorg

  .cfi_endproc

3:
  .word _libX11_so_tramp_table - (2b + 8) + 608

/*
 * Copyright 2018-2025 Yury Gribov
 *
 * The MIT License (MIT)
 *
 * Use of this source code is governed by MIT license that can be
 * found in the LICENSE.txt file.
 */

  .globl XExtendedMaxRequestSize
  .p2align 4
  .type XExtendedMaxRequestSize, %function
#ifndef IMPLIB_EXPORT_SHIMS
  .hidden XExtendedMaxRequestSize
#endif
XExtendedMaxRequestSize:
  .cfi_startproc

1:
  // Load address
  // TODO: can we do this faster on newer ARMs?
  ldr ip, 3f
2:
  add ip, pc, ip
  ldr ip, [ip]

  cmp ip, #0

  // Fast path
  bxne ip

  // Slow path
  ldr ip, =153
  push {ip}
  .cfi_adjust_cfa_offset 4
  PUSH_REG(lr)
  bl _libX11_so_save_regs_and_resolve
  POP_REG(lr)
  add sp, #4
  .cfi_adjust_cfa_offset -4
  bx ip

  // Force constant pool for ldr above
  .ltorg

  .cfi_endproc

3:
  .word _libX11_so_tramp_table - (2b + 8) + 612

/*
 * Copyright 2018-2025 Yury Gribov
 *
 * The MIT License (MIT)
 *
 * Use of this source code is governed by MIT license that can be
 * found in the LICENSE.txt file.
 */

  .globl XExtentsOfFontSet
  .p2align 4
  .type XExtentsOfFontSet, %function
#ifndef IMPLIB_EXPORT_SHIMS
  .hidden XExtentsOfFontSet
#endif
XExtentsOfFontSet:
  .cfi_startproc

1:
  // Load address
  // TODO: can we do this faster on newer ARMs?
  ldr ip, 3f
2:
  add ip, pc, ip
  ldr ip, [ip]

  cmp ip, #0

  // Fast path
  bxne ip

  // Slow path
  ldr ip, =154
  push {ip}
  .cfi_adjust_cfa_offset 4
  PUSH_REG(lr)
  bl _libX11_so_save_regs_and_resolve
  POP_REG(lr)
  add sp, #4
  .cfi_adjust_cfa_offset -4
  bx ip

  // Force constant pool for ldr above
  .ltorg

  .cfi_endproc

3:
  .word _libX11_so_tramp_table - (2b + 8) + 616

/*
 * Copyright 2018-2025 Yury Gribov
 *
 * The MIT License (MIT)
 *
 * Use of this source code is governed by MIT license that can be
 * found in the LICENSE.txt file.
 */

  .globl XFetchBuffer
  .p2align 4
  .type XFetchBuffer, %function
#ifndef IMPLIB_EXPORT_SHIMS
  .hidden XFetchBuffer
#endif
XFetchBuffer:
  .cfi_startproc

1:
  // Load address
  // TODO: can we do this faster on newer ARMs?
  ldr ip, 3f
2:
  add ip, pc, ip
  ldr ip, [ip]

  cmp ip, #0

  // Fast path
  bxne ip

  // Slow path
  ldr ip, =155
  push {ip}
  .cfi_adjust_cfa_offset 4
  PUSH_REG(lr)
  bl _libX11_so_save_regs_and_resolve
  POP_REG(lr)
  add sp, #4
  .cfi_adjust_cfa_offset -4
  bx ip

  // Force constant pool for ldr above
  .ltorg

  .cfi_endproc

3:
  .word _libX11_so_tramp_table - (2b + 8) + 620

/*
 * Copyright 2018-2025 Yury Gribov
 *
 * The MIT License (MIT)
 *
 * Use of this source code is governed by MIT license that can be
 * found in the LICENSE.txt file.
 */

  .globl XFetchBytes
  .p2align 4
  .type XFetchBytes, %function
#ifndef IMPLIB_EXPORT_SHIMS
  .hidden XFetchBytes
#endif
XFetchBytes:
  .cfi_startproc

1:
  // Load address
  // TODO: can we do this faster on newer ARMs?
  ldr ip, 3f
2:
  add ip, pc, ip
  ldr ip, [ip]

  cmp ip, #0

  // Fast path
  bxne ip

  // Slow path
  ldr ip, =156
  push {ip}
  .cfi_adjust_cfa_offset 4
  PUSH_REG(lr)
  bl _libX11_so_save_regs_and_resolve
  POP_REG(lr)
  add sp, #4
  .cfi_adjust_cfa_offset -4
  bx ip

  // Force constant pool for ldr above
  .ltorg

  .cfi_endproc

3:
  .word _libX11_so_tramp_table - (2b + 8) + 624

/*
 * Copyright 2018-2025 Yury Gribov
 *
 * The MIT License (MIT)
 *
 * Use of this source code is governed by MIT license that can be
 * found in the LICENSE.txt file.
 */

  .globl XFetchName
  .p2align 4
  .type XFetchName, %function
#ifndef IMPLIB_EXPORT_SHIMS
  .hidden XFetchName
#endif
XFetchName:
  .cfi_startproc

1:
  // Load address
  // TODO: can we do this faster on newer ARMs?
  ldr ip, 3f
2:
  add ip, pc, ip
  ldr ip, [ip]

  cmp ip, #0

  // Fast path
  bxne ip

  // Slow path
  ldr ip, =157
  push {ip}
  .cfi_adjust_cfa_offset 4
  PUSH_REG(lr)
  bl _libX11_so_save_regs_and_resolve
  POP_REG(lr)
  add sp, #4
  .cfi_adjust_cfa_offset -4
  bx ip

  // Force constant pool for ldr above
  .ltorg

  .cfi_endproc

3:
  .word _libX11_so_tramp_table - (2b + 8) + 628

/*
 * Copyright 2018-2025 Yury Gribov
 *
 * The MIT License (MIT)
 *
 * Use of this source code is governed by MIT license that can be
 * found in the LICENSE.txt file.
 */

  .globl XFillArc
  .p2align 4
  .type XFillArc, %function
#ifndef IMPLIB_EXPORT_SHIMS
  .hidden XFillArc
#endif
XFillArc:
  .cfi_startproc

1:
  // Load address
  // TODO: can we do this faster on newer ARMs?
  ldr ip, 3f
2:
  add ip, pc, ip
  ldr ip, [ip]

  cmp ip, #0

  // Fast path
  bxne ip

  // Slow path
  ldr ip, =158
  push {ip}
  .cfi_adjust_cfa_offset 4
  PUSH_REG(lr)
  bl _libX11_so_save_regs_and_resolve
  POP_REG(lr)
  add sp, #4
  .cfi_adjust_cfa_offset -4
  bx ip

  // Force constant pool for ldr above
  .ltorg

  .cfi_endproc

3:
  .word _libX11_so_tramp_table - (2b + 8) + 632

/*
 * Copyright 2018-2025 Yury Gribov
 *
 * The MIT License (MIT)
 *
 * Use of this source code is governed by MIT license that can be
 * found in the LICENSE.txt file.
 */

  .globl XFillArcs
  .p2align 4
  .type XFillArcs, %function
#ifndef IMPLIB_EXPORT_SHIMS
  .hidden XFillArcs
#endif
XFillArcs:
  .cfi_startproc

1:
  // Load address
  // TODO: can we do this faster on newer ARMs?
  ldr ip, 3f
2:
  add ip, pc, ip
  ldr ip, [ip]

  cmp ip, #0

  // Fast path
  bxne ip

  // Slow path
  ldr ip, =159
  push {ip}
  .cfi_adjust_cfa_offset 4
  PUSH_REG(lr)
  bl _libX11_so_save_regs_and_resolve
  POP_REG(lr)
  add sp, #4
  .cfi_adjust_cfa_offset -4
  bx ip

  // Force constant pool for ldr above
  .ltorg

  .cfi_endproc

3:
  .word _libX11_so_tramp_table - (2b + 8) + 636

/*
 * Copyright 2018-2025 Yury Gribov
 *
 * The MIT License (MIT)
 *
 * Use of this source code is governed by MIT license that can be
 * found in the LICENSE.txt file.
 */

  .globl XFillPolygon
  .p2align 4
  .type XFillPolygon, %function
#ifndef IMPLIB_EXPORT_SHIMS
  .hidden XFillPolygon
#endif
XFillPolygon:
  .cfi_startproc

1:
  // Load address
  // TODO: can we do this faster on newer ARMs?
  ldr ip, 3f
2:
  add ip, pc, ip
  ldr ip, [ip]

  cmp ip, #0

  // Fast path
  bxne ip

  // Slow path
  ldr ip, =160
  push {ip}
  .cfi_adjust_cfa_offset 4
  PUSH_REG(lr)
  bl _libX11_so_save_regs_and_resolve
  POP_REG(lr)
  add sp, #4
  .cfi_adjust_cfa_offset -4
  bx ip

  // Force constant pool for ldr above
  .ltorg

  .cfi_endproc

3:
  .word _libX11_so_tramp_table - (2b + 8) + 640

/*
 * Copyright 2018-2025 Yury Gribov
 *
 * The MIT License (MIT)
 *
 * Use of this source code is governed by MIT license that can be
 * found in the LICENSE.txt file.
 */

  .globl XFillRectangle
  .p2align 4
  .type XFillRectangle, %function
#ifndef IMPLIB_EXPORT_SHIMS
  .hidden XFillRectangle
#endif
XFillRectangle:
  .cfi_startproc

1:
  // Load address
  // TODO: can we do this faster on newer ARMs?
  ldr ip, 3f
2:
  add ip, pc, ip
  ldr ip, [ip]

  cmp ip, #0

  // Fast path
  bxne ip

  // Slow path
  ldr ip, =161
  push {ip}
  .cfi_adjust_cfa_offset 4
  PUSH_REG(lr)
  bl _libX11_so_save_regs_and_resolve
  POP_REG(lr)
  add sp, #4
  .cfi_adjust_cfa_offset -4
  bx ip

  // Force constant pool for ldr above
  .ltorg

  .cfi_endproc

3:
  .word _libX11_so_tramp_table - (2b + 8) + 644

/*
 * Copyright 2018-2025 Yury Gribov
 *
 * The MIT License (MIT)
 *
 * Use of this source code is governed by MIT license that can be
 * found in the LICENSE.txt file.
 */

  .globl XFillRectangles
  .p2align 4
  .type XFillRectangles, %function
#ifndef IMPLIB_EXPORT_SHIMS
  .hidden XFillRectangles
#endif
XFillRectangles:
  .cfi_startproc

1:
  // Load address
  // TODO: can we do this faster on newer ARMs?
  ldr ip, 3f
2:
  add ip, pc, ip
  ldr ip, [ip]

  cmp ip, #0

  // Fast path
  bxne ip

  // Slow path
  ldr ip, =162
  push {ip}
  .cfi_adjust_cfa_offset 4
  PUSH_REG(lr)
  bl _libX11_so_save_regs_and_resolve
  POP_REG(lr)
  add sp, #4
  .cfi_adjust_cfa_offset -4
  bx ip

  // Force constant pool for ldr above
  .ltorg

  .cfi_endproc

3:
  .word _libX11_so_tramp_table - (2b + 8) + 648

/*
 * Copyright 2018-2025 Yury Gribov
 *
 * The MIT License (MIT)
 *
 * Use of this source code is governed by MIT license that can be
 * found in the LICENSE.txt file.
 */

  .globl XFilterEvent
  .p2align 4
  .type XFilterEvent, %function
#ifndef IMPLIB_EXPORT_SHIMS
  .hidden XFilterEvent
#endif
XFilterEvent:
  .cfi_startproc

1:
  // Load address
  // TODO: can we do this faster on newer ARMs?
  ldr ip, 3f
2:
  add ip, pc, ip
  ldr ip, [ip]

  cmp ip, #0

  // Fast path
  bxne ip

  // Slow path
  ldr ip, =163
  push {ip}
  .cfi_adjust_cfa_offset 4
  PUSH_REG(lr)
  bl _libX11_so_save_regs_and_resolve
  POP_REG(lr)
  add sp, #4
  .cfi_adjust_cfa_offset -4
  bx ip

  // Force constant pool for ldr above
  .ltorg

  .cfi_endproc

3:
  .word _libX11_so_tramp_table - (2b + 8) + 652

/*
 * Copyright 2018-2025 Yury Gribov
 *
 * The MIT License (MIT)
 *
 * Use of this source code is governed by MIT license that can be
 * found in the LICENSE.txt file.
 */

  .globl XFindContext
  .p2align 4
  .type XFindContext, %function
#ifndef IMPLIB_EXPORT_SHIMS
  .hidden XFindContext
#endif
XFindContext:
  .cfi_startproc

1:
  // Load address
  // TODO: can we do this faster on newer ARMs?
  ldr ip, 3f
2:
  add ip, pc, ip
  ldr ip, [ip]

  cmp ip, #0

  // Fast path
  bxne ip

  // Slow path
  ldr ip, =164
  push {ip}
  .cfi_adjust_cfa_offset 4
  PUSH_REG(lr)
  bl _libX11_so_save_regs_and_resolve
  POP_REG(lr)
  add sp, #4
  .cfi_adjust_cfa_offset -4
  bx ip

  // Force constant pool for ldr above
  .ltorg

  .cfi_endproc

3:
  .word _libX11_so_tramp_table - (2b + 8) + 656

/*
 * Copyright 2018-2025 Yury Gribov
 *
 * The MIT License (MIT)
 *
 * Use of this source code is governed by MIT license that can be
 * found in the LICENSE.txt file.
 */

  .globl XFindOnExtensionList
  .p2align 4
  .type XFindOnExtensionList, %function
#ifndef IMPLIB_EXPORT_SHIMS
  .hidden XFindOnExtensionList
#endif
XFindOnExtensionList:
  .cfi_startproc

1:
  // Load address
  // TODO: can we do this faster on newer ARMs?
  ldr ip, 3f
2:
  add ip, pc, ip
  ldr ip, [ip]

  cmp ip, #0

  // Fast path
  bxne ip

  // Slow path
  ldr ip, =165
  push {ip}
  .cfi_adjust_cfa_offset 4
  PUSH_REG(lr)
  bl _libX11_so_save_regs_and_resolve
  POP_REG(lr)
  add sp, #4
  .cfi_adjust_cfa_offset -4
  bx ip

  // Force constant pool for ldr above
  .ltorg

  .cfi_endproc

3:
  .word _libX11_so_tramp_table - (2b + 8) + 660

/*
 * Copyright 2018-2025 Yury Gribov
 *
 * The MIT License (MIT)
 *
 * Use of this source code is governed by MIT license that can be
 * found in the LICENSE.txt file.
 */

  .globl XFlush
  .p2align 4
  .type XFlush, %function
#ifndef IMPLIB_EXPORT_SHIMS
  .hidden XFlush
#endif
XFlush:
  .cfi_startproc

1:
  // Load address
  // TODO: can we do this faster on newer ARMs?
  ldr ip, 3f
2:
  add ip, pc, ip
  ldr ip, [ip]

  cmp ip, #0

  // Fast path
  bxne ip

  // Slow path
  ldr ip, =166
  push {ip}
  .cfi_adjust_cfa_offset 4
  PUSH_REG(lr)
  bl _libX11_so_save_regs_and_resolve
  POP_REG(lr)
  add sp, #4
  .cfi_adjust_cfa_offset -4
  bx ip

  // Force constant pool for ldr above
  .ltorg

  .cfi_endproc

3:
  .word _libX11_so_tramp_table - (2b + 8) + 664

/*
 * Copyright 2018-2025 Yury Gribov
 *
 * The MIT License (MIT)
 *
 * Use of this source code is governed by MIT license that can be
 * found in the LICENSE.txt file.
 */

  .globl XFlushGC
  .p2align 4
  .type XFlushGC, %function
#ifndef IMPLIB_EXPORT_SHIMS
  .hidden XFlushGC
#endif
XFlushGC:
  .cfi_startproc

1:
  // Load address
  // TODO: can we do this faster on newer ARMs?
  ldr ip, 3f
2:
  add ip, pc, ip
  ldr ip, [ip]

  cmp ip, #0

  // Fast path
  bxne ip

  // Slow path
  ldr ip, =167
  push {ip}
  .cfi_adjust_cfa_offset 4
  PUSH_REG(lr)
  bl _libX11_so_save_regs_and_resolve
  POP_REG(lr)
  add sp, #4
  .cfi_adjust_cfa_offset -4
  bx ip

  // Force constant pool for ldr above
  .ltorg

  .cfi_endproc

3:
  .word _libX11_so_tramp_table - (2b + 8) + 668

/*
 * Copyright 2018-2025 Yury Gribov
 *
 * The MIT License (MIT)
 *
 * Use of this source code is governed by MIT license that can be
 * found in the LICENSE.txt file.
 */

  .globl XFontsOfFontSet
  .p2align 4
  .type XFontsOfFontSet, %function
#ifndef IMPLIB_EXPORT_SHIMS
  .hidden XFontsOfFontSet
#endif
XFontsOfFontSet:
  .cfi_startproc

1:
  // Load address
  // TODO: can we do this faster on newer ARMs?
  ldr ip, 3f
2:
  add ip, pc, ip
  ldr ip, [ip]

  cmp ip, #0

  // Fast path
  bxne ip

  // Slow path
  ldr ip, =168
  push {ip}
  .cfi_adjust_cfa_offset 4
  PUSH_REG(lr)
  bl _libX11_so_save_regs_and_resolve
  POP_REG(lr)
  add sp, #4
  .cfi_adjust_cfa_offset -4
  bx ip

  // Force constant pool for ldr above
  .ltorg

  .cfi_endproc

3:
  .word _libX11_so_tramp_table - (2b + 8) + 672

/*
 * Copyright 2018-2025 Yury Gribov
 *
 * The MIT License (MIT)
 *
 * Use of this source code is governed by MIT license that can be
 * found in the LICENSE.txt file.
 */

  .globl XForceScreenSaver
  .p2align 4
  .type XForceScreenSaver, %function
#ifndef IMPLIB_EXPORT_SHIMS
  .hidden XForceScreenSaver
#endif
XForceScreenSaver:
  .cfi_startproc

1:
  // Load address
  // TODO: can we do this faster on newer ARMs?
  ldr ip, 3f
2:
  add ip, pc, ip
  ldr ip, [ip]

  cmp ip, #0

  // Fast path
  bxne ip

  // Slow path
  ldr ip, =169
  push {ip}
  .cfi_adjust_cfa_offset 4
  PUSH_REG(lr)
  bl _libX11_so_save_regs_and_resolve
  POP_REG(lr)
  add sp, #4
  .cfi_adjust_cfa_offset -4
  bx ip

  // Force constant pool for ldr above
  .ltorg

  .cfi_endproc

3:
  .word _libX11_so_tramp_table - (2b + 8) + 676

/*
 * Copyright 2018-2025 Yury Gribov
 *
 * The MIT License (MIT)
 *
 * Use of this source code is governed by MIT license that can be
 * found in the LICENSE.txt file.
 */

  .globl XFree
  .p2align 4
  .type XFree, %function
#ifndef IMPLIB_EXPORT_SHIMS
  .hidden XFree
#endif
XFree:
  .cfi_startproc

1:
  // Load address
  // TODO: can we do this faster on newer ARMs?
  ldr ip, 3f
2:
  add ip, pc, ip
  ldr ip, [ip]

  cmp ip, #0

  // Fast path
  bxne ip

  // Slow path
  ldr ip, =170
  push {ip}
  .cfi_adjust_cfa_offset 4
  PUSH_REG(lr)
  bl _libX11_so_save_regs_and_resolve
  POP_REG(lr)
  add sp, #4
  .cfi_adjust_cfa_offset -4
  bx ip

  // Force constant pool for ldr above
  .ltorg

  .cfi_endproc

3:
  .word _libX11_so_tramp_table - (2b + 8) + 680

/*
 * Copyright 2018-2025 Yury Gribov
 *
 * The MIT License (MIT)
 *
 * Use of this source code is governed by MIT license that can be
 * found in the LICENSE.txt file.
 */

  .globl XFreeColormap
  .p2align 4
  .type XFreeColormap, %function
#ifndef IMPLIB_EXPORT_SHIMS
  .hidden XFreeColormap
#endif
XFreeColormap:
  .cfi_startproc

1:
  // Load address
  // TODO: can we do this faster on newer ARMs?
  ldr ip, 3f
2:
  add ip, pc, ip
  ldr ip, [ip]

  cmp ip, #0

  // Fast path
  bxne ip

  // Slow path
  ldr ip, =171
  push {ip}
  .cfi_adjust_cfa_offset 4
  PUSH_REG(lr)
  bl _libX11_so_save_regs_and_resolve
  POP_REG(lr)
  add sp, #4
  .cfi_adjust_cfa_offset -4
  bx ip

  // Force constant pool for ldr above
  .ltorg

  .cfi_endproc

3:
  .word _libX11_so_tramp_table - (2b + 8) + 684

/*
 * Copyright 2018-2025 Yury Gribov
 *
 * The MIT License (MIT)
 *
 * Use of this source code is governed by MIT license that can be
 * found in the LICENSE.txt file.
 */

  .globl XFreeColors
  .p2align 4
  .type XFreeColors, %function
#ifndef IMPLIB_EXPORT_SHIMS
  .hidden XFreeColors
#endif
XFreeColors:
  .cfi_startproc

1:
  // Load address
  // TODO: can we do this faster on newer ARMs?
  ldr ip, 3f
2:
  add ip, pc, ip
  ldr ip, [ip]

  cmp ip, #0

  // Fast path
  bxne ip

  // Slow path
  ldr ip, =172
  push {ip}
  .cfi_adjust_cfa_offset 4
  PUSH_REG(lr)
  bl _libX11_so_save_regs_and_resolve
  POP_REG(lr)
  add sp, #4
  .cfi_adjust_cfa_offset -4
  bx ip

  // Force constant pool for ldr above
  .ltorg

  .cfi_endproc

3:
  .word _libX11_so_tramp_table - (2b + 8) + 688

/*
 * Copyright 2018-2025 Yury Gribov
 *
 * The MIT License (MIT)
 *
 * Use of this source code is governed by MIT license that can be
 * found in the LICENSE.txt file.
 */

  .globl XFreeCursor
  .p2align 4
  .type XFreeCursor, %function
#ifndef IMPLIB_EXPORT_SHIMS
  .hidden XFreeCursor
#endif
XFreeCursor:
  .cfi_startproc

1:
  // Load address
  // TODO: can we do this faster on newer ARMs?
  ldr ip, 3f
2:
  add ip, pc, ip
  ldr ip, [ip]

  cmp ip, #0

  // Fast path
  bxne ip

  // Slow path
  ldr ip, =173
  push {ip}
  .cfi_adjust_cfa_offset 4
  PUSH_REG(lr)
  bl _libX11_so_save_regs_and_resolve
  POP_REG(lr)
  add sp, #4
  .cfi_adjust_cfa_offset -4
  bx ip

  // Force constant pool for ldr above
  .ltorg

  .cfi_endproc

3:
  .word _libX11_so_tramp_table - (2b + 8) + 692

/*
 * Copyright 2018-2025 Yury Gribov
 *
 * The MIT License (MIT)
 *
 * Use of this source code is governed by MIT license that can be
 * found in the LICENSE.txt file.
 */

  .globl XFreeEventData
  .p2align 4
  .type XFreeEventData, %function
#ifndef IMPLIB_EXPORT_SHIMS
  .hidden XFreeEventData
#endif
XFreeEventData:
  .cfi_startproc

1:
  // Load address
  // TODO: can we do this faster on newer ARMs?
  ldr ip, 3f
2:
  add ip, pc, ip
  ldr ip, [ip]

  cmp ip, #0

  // Fast path
  bxne ip

  // Slow path
  ldr ip, =174
  push {ip}
  .cfi_adjust_cfa_offset 4
  PUSH_REG(lr)
  bl _libX11_so_save_regs_and_resolve
  POP_REG(lr)
  add sp, #4
  .cfi_adjust_cfa_offset -4
  bx ip

  // Force constant pool for ldr above
  .ltorg

  .cfi_endproc

3:
  .word _libX11_so_tramp_table - (2b + 8) + 696

/*
 * Copyright 2018-2025 Yury Gribov
 *
 * The MIT License (MIT)
 *
 * Use of this source code is governed by MIT license that can be
 * found in the LICENSE.txt file.
 */

  .globl XFreeExtensionList
  .p2align 4
  .type XFreeExtensionList, %function
#ifndef IMPLIB_EXPORT_SHIMS
  .hidden XFreeExtensionList
#endif
XFreeExtensionList:
  .cfi_startproc

1:
  // Load address
  // TODO: can we do this faster on newer ARMs?
  ldr ip, 3f
2:
  add ip, pc, ip
  ldr ip, [ip]

  cmp ip, #0

  // Fast path
  bxne ip

  // Slow path
  ldr ip, =175
  push {ip}
  .cfi_adjust_cfa_offset 4
  PUSH_REG(lr)
  bl _libX11_so_save_regs_and_resolve
  POP_REG(lr)
  add sp, #4
  .cfi_adjust_cfa_offset -4
  bx ip

  // Force constant pool for ldr above
  .ltorg

  .cfi_endproc

3:
  .word _libX11_so_tramp_table - (2b + 8) + 700

/*
 * Copyright 2018-2025 Yury Gribov
 *
 * The MIT License (MIT)
 *
 * Use of this source code is governed by MIT license that can be
 * found in the LICENSE.txt file.
 */

  .globl XFreeFont
  .p2align 4
  .type XFreeFont, %function
#ifndef IMPLIB_EXPORT_SHIMS
  .hidden XFreeFont
#endif
XFreeFont:
  .cfi_startproc

1:
  // Load address
  // TODO: can we do this faster on newer ARMs?
  ldr ip, 3f
2:
  add ip, pc, ip
  ldr ip, [ip]

  cmp ip, #0

  // Fast path
  bxne ip

  // Slow path
  ldr ip, =176
  push {ip}
  .cfi_adjust_cfa_offset 4
  PUSH_REG(lr)
  bl _libX11_so_save_regs_and_resolve
  POP_REG(lr)
  add sp, #4
  .cfi_adjust_cfa_offset -4
  bx ip

  // Force constant pool for ldr above
  .ltorg

  .cfi_endproc

3:
  .word _libX11_so_tramp_table - (2b + 8) + 704

/*
 * Copyright 2018-2025 Yury Gribov
 *
 * The MIT License (MIT)
 *
 * Use of this source code is governed by MIT license that can be
 * found in the LICENSE.txt file.
 */

  .globl XFreeFontInfo
  .p2align 4
  .type XFreeFontInfo, %function
#ifndef IMPLIB_EXPORT_SHIMS
  .hidden XFreeFontInfo
#endif
XFreeFontInfo:
  .cfi_startproc

1:
  // Load address
  // TODO: can we do this faster on newer ARMs?
  ldr ip, 3f
2:
  add ip, pc, ip
  ldr ip, [ip]

  cmp ip, #0

  // Fast path
  bxne ip

  // Slow path
  ldr ip, =177
  push {ip}
  .cfi_adjust_cfa_offset 4
  PUSH_REG(lr)
  bl _libX11_so_save_regs_and_resolve
  POP_REG(lr)
  add sp, #4
  .cfi_adjust_cfa_offset -4
  bx ip

  // Force constant pool for ldr above
  .ltorg

  .cfi_endproc

3:
  .word _libX11_so_tramp_table - (2b + 8) + 708

/*
 * Copyright 2018-2025 Yury Gribov
 *
 * The MIT License (MIT)
 *
 * Use of this source code is governed by MIT license that can be
 * found in the LICENSE.txt file.
 */

  .globl XFreeFontNames
  .p2align 4
  .type XFreeFontNames, %function
#ifndef IMPLIB_EXPORT_SHIMS
  .hidden XFreeFontNames
#endif
XFreeFontNames:
  .cfi_startproc

1:
  // Load address
  // TODO: can we do this faster on newer ARMs?
  ldr ip, 3f
2:
  add ip, pc, ip
  ldr ip, [ip]

  cmp ip, #0

  // Fast path
  bxne ip

  // Slow path
  ldr ip, =178
  push {ip}
  .cfi_adjust_cfa_offset 4
  PUSH_REG(lr)
  bl _libX11_so_save_regs_and_resolve
  POP_REG(lr)
  add sp, #4
  .cfi_adjust_cfa_offset -4
  bx ip

  // Force constant pool for ldr above
  .ltorg

  .cfi_endproc

3:
  .word _libX11_so_tramp_table - (2b + 8) + 712

/*
 * Copyright 2018-2025 Yury Gribov
 *
 * The MIT License (MIT)
 *
 * Use of this source code is governed by MIT license that can be
 * found in the LICENSE.txt file.
 */

  .globl XFreeFontPath
  .p2align 4
  .type XFreeFontPath, %function
#ifndef IMPLIB_EXPORT_SHIMS
  .hidden XFreeFontPath
#endif
XFreeFontPath:
  .cfi_startproc

1:
  // Load address
  // TODO: can we do this faster on newer ARMs?
  ldr ip, 3f
2:
  add ip, pc, ip
  ldr ip, [ip]

  cmp ip, #0

  // Fast path
  bxne ip

  // Slow path
  ldr ip, =179
  push {ip}
  .cfi_adjust_cfa_offset 4
  PUSH_REG(lr)
  bl _libX11_so_save_regs_and_resolve
  POP_REG(lr)
  add sp, #4
  .cfi_adjust_cfa_offset -4
  bx ip

  // Force constant pool for ldr above
  .ltorg

  .cfi_endproc

3:
  .word _libX11_so_tramp_table - (2b + 8) + 716

/*
 * Copyright 2018-2025 Yury Gribov
 *
 * The MIT License (MIT)
 *
 * Use of this source code is governed by MIT license that can be
 * found in the LICENSE.txt file.
 */

  .globl XFreeFontSet
  .p2align 4
  .type XFreeFontSet, %function
#ifndef IMPLIB_EXPORT_SHIMS
  .hidden XFreeFontSet
#endif
XFreeFontSet:
  .cfi_startproc

1:
  // Load address
  // TODO: can we do this faster on newer ARMs?
  ldr ip, 3f
2:
  add ip, pc, ip
  ldr ip, [ip]

  cmp ip, #0

  // Fast path
  bxne ip

  // Slow path
  ldr ip, =180
  push {ip}
  .cfi_adjust_cfa_offset 4
  PUSH_REG(lr)
  bl _libX11_so_save_regs_and_resolve
  POP_REG(lr)
  add sp, #4
  .cfi_adjust_cfa_offset -4
  bx ip

  // Force constant pool for ldr above
  .ltorg

  .cfi_endproc

3:
  .word _libX11_so_tramp_table - (2b + 8) + 720

/*
 * Copyright 2018-2025 Yury Gribov
 *
 * The MIT License (MIT)
 *
 * Use of this source code is governed by MIT license that can be
 * found in the LICENSE.txt file.
 */

  .globl XFreeGC
  .p2align 4
  .type XFreeGC, %function
#ifndef IMPLIB_EXPORT_SHIMS
  .hidden XFreeGC
#endif
XFreeGC:
  .cfi_startproc

1:
  // Load address
  // TODO: can we do this faster on newer ARMs?
  ldr ip, 3f
2:
  add ip, pc, ip
  ldr ip, [ip]

  cmp ip, #0

  // Fast path
  bxne ip

  // Slow path
  ldr ip, =181
  push {ip}
  .cfi_adjust_cfa_offset 4
  PUSH_REG(lr)
  bl _libX11_so_save_regs_and_resolve
  POP_REG(lr)
  add sp, #4
  .cfi_adjust_cfa_offset -4
  bx ip

  // Force constant pool for ldr above
  .ltorg

  .cfi_endproc

3:
  .word _libX11_so_tramp_table - (2b + 8) + 724

/*
 * Copyright 2018-2025 Yury Gribov
 *
 * The MIT License (MIT)
 *
 * Use of this source code is governed by MIT license that can be
 * found in the LICENSE.txt file.
 */

  .globl XFreeModifiermap
  .p2align 4
  .type XFreeModifiermap, %function
#ifndef IMPLIB_EXPORT_SHIMS
  .hidden XFreeModifiermap
#endif
XFreeModifiermap:
  .cfi_startproc

1:
  // Load address
  // TODO: can we do this faster on newer ARMs?
  ldr ip, 3f
2:
  add ip, pc, ip
  ldr ip, [ip]

  cmp ip, #0

  // Fast path
  bxne ip

  // Slow path
  ldr ip, =182
  push {ip}
  .cfi_adjust_cfa_offset 4
  PUSH_REG(lr)
  bl _libX11_so_save_regs_and_resolve
  POP_REG(lr)
  add sp, #4
  .cfi_adjust_cfa_offset -4
  bx ip

  // Force constant pool for ldr above
  .ltorg

  .cfi_endproc

3:
  .word _libX11_so_tramp_table - (2b + 8) + 728

/*
 * Copyright 2018-2025 Yury Gribov
 *
 * The MIT License (MIT)
 *
 * Use of this source code is governed by MIT license that can be
 * found in the LICENSE.txt file.
 */

  .globl XFreePixmap
  .p2align 4
  .type XFreePixmap, %function
#ifndef IMPLIB_EXPORT_SHIMS
  .hidden XFreePixmap
#endif
XFreePixmap:
  .cfi_startproc

1:
  // Load address
  // TODO: can we do this faster on newer ARMs?
  ldr ip, 3f
2:
  add ip, pc, ip
  ldr ip, [ip]

  cmp ip, #0

  // Fast path
  bxne ip

  // Slow path
  ldr ip, =183
  push {ip}
  .cfi_adjust_cfa_offset 4
  PUSH_REG(lr)
  bl _libX11_so_save_regs_and_resolve
  POP_REG(lr)
  add sp, #4
  .cfi_adjust_cfa_offset -4
  bx ip

  // Force constant pool for ldr above
  .ltorg

  .cfi_endproc

3:
  .word _libX11_so_tramp_table - (2b + 8) + 732

/*
 * Copyright 2018-2025 Yury Gribov
 *
 * The MIT License (MIT)
 *
 * Use of this source code is governed by MIT license that can be
 * found in the LICENSE.txt file.
 */

  .globl XFreeStringList
  .p2align 4
  .type XFreeStringList, %function
#ifndef IMPLIB_EXPORT_SHIMS
  .hidden XFreeStringList
#endif
XFreeStringList:
  .cfi_startproc

1:
  // Load address
  // TODO: can we do this faster on newer ARMs?
  ldr ip, 3f
2:
  add ip, pc, ip
  ldr ip, [ip]

  cmp ip, #0

  // Fast path
  bxne ip

  // Slow path
  ldr ip, =184
  push {ip}
  .cfi_adjust_cfa_offset 4
  PUSH_REG(lr)
  bl _libX11_so_save_regs_and_resolve
  POP_REG(lr)
  add sp, #4
  .cfi_adjust_cfa_offset -4
  bx ip

  // Force constant pool for ldr above
  .ltorg

  .cfi_endproc

3:
  .word _libX11_so_tramp_table - (2b + 8) + 736

/*
 * Copyright 2018-2025 Yury Gribov
 *
 * The MIT License (MIT)
 *
 * Use of this source code is governed by MIT license that can be
 * found in the LICENSE.txt file.
 */

  .globl XGContextFromGC
  .p2align 4
  .type XGContextFromGC, %function
#ifndef IMPLIB_EXPORT_SHIMS
  .hidden XGContextFromGC
#endif
XGContextFromGC:
  .cfi_startproc

1:
  // Load address
  // TODO: can we do this faster on newer ARMs?
  ldr ip, 3f
2:
  add ip, pc, ip
  ldr ip, [ip]

  cmp ip, #0

  // Fast path
  bxne ip

  // Slow path
  ldr ip, =185
  push {ip}
  .cfi_adjust_cfa_offset 4
  PUSH_REG(lr)
  bl _libX11_so_save_regs_and_resolve
  POP_REG(lr)
  add sp, #4
  .cfi_adjust_cfa_offset -4
  bx ip

  // Force constant pool for ldr above
  .ltorg

  .cfi_endproc

3:
  .word _libX11_so_tramp_table - (2b + 8) + 740

/*
 * Copyright 2018-2025 Yury Gribov
 *
 * The MIT License (MIT)
 *
 * Use of this source code is governed by MIT license that can be
 * found in the LICENSE.txt file.
 */

  .globl XGeometry
  .p2align 4
  .type XGeometry, %function
#ifndef IMPLIB_EXPORT_SHIMS
  .hidden XGeometry
#endif
XGeometry:
  .cfi_startproc

1:
  // Load address
  // TODO: can we do this faster on newer ARMs?
  ldr ip, 3f
2:
  add ip, pc, ip
  ldr ip, [ip]

  cmp ip, #0

  // Fast path
  bxne ip

  // Slow path
  ldr ip, =186
  push {ip}
  .cfi_adjust_cfa_offset 4
  PUSH_REG(lr)
  bl _libX11_so_save_regs_and_resolve
  POP_REG(lr)
  add sp, #4
  .cfi_adjust_cfa_offset -4
  bx ip

  // Force constant pool for ldr above
  .ltorg

  .cfi_endproc

3:
  .word _libX11_so_tramp_table - (2b + 8) + 744

/*
 * Copyright 2018-2025 Yury Gribov
 *
 * The MIT License (MIT)
 *
 * Use of this source code is governed by MIT license that can be
 * found in the LICENSE.txt file.
 */

  .globl XGetAtomName
  .p2align 4
  .type XGetAtomName, %function
#ifndef IMPLIB_EXPORT_SHIMS
  .hidden XGetAtomName
#endif
XGetAtomName:
  .cfi_startproc

1:
  // Load address
  // TODO: can we do this faster on newer ARMs?
  ldr ip, 3f
2:
  add ip, pc, ip
  ldr ip, [ip]

  cmp ip, #0

  // Fast path
  bxne ip

  // Slow path
  ldr ip, =187
  push {ip}
  .cfi_adjust_cfa_offset 4
  PUSH_REG(lr)
  bl _libX11_so_save_regs_and_resolve
  POP_REG(lr)
  add sp, #4
  .cfi_adjust_cfa_offset -4
  bx ip

  // Force constant pool for ldr above
  .ltorg

  .cfi_endproc

3:
  .word _libX11_so_tramp_table - (2b + 8) + 748

/*
 * Copyright 2018-2025 Yury Gribov
 *
 * The MIT License (MIT)
 *
 * Use of this source code is governed by MIT license that can be
 * found in the LICENSE.txt file.
 */

  .globl XGetAtomNames
  .p2align 4
  .type XGetAtomNames, %function
#ifndef IMPLIB_EXPORT_SHIMS
  .hidden XGetAtomNames
#endif
XGetAtomNames:
  .cfi_startproc

1:
  // Load address
  // TODO: can we do this faster on newer ARMs?
  ldr ip, 3f
2:
  add ip, pc, ip
  ldr ip, [ip]

  cmp ip, #0

  // Fast path
  bxne ip

  // Slow path
  ldr ip, =188
  push {ip}
  .cfi_adjust_cfa_offset 4
  PUSH_REG(lr)
  bl _libX11_so_save_regs_and_resolve
  POP_REG(lr)
  add sp, #4
  .cfi_adjust_cfa_offset -4
  bx ip

  // Force constant pool for ldr above
  .ltorg

  .cfi_endproc

3:
  .word _libX11_so_tramp_table - (2b + 8) + 752

/*
 * Copyright 2018-2025 Yury Gribov
 *
 * The MIT License (MIT)
 *
 * Use of this source code is governed by MIT license that can be
 * found in the LICENSE.txt file.
 */

  .globl XGetClassHint
  .p2align 4
  .type XGetClassHint, %function
#ifndef IMPLIB_EXPORT_SHIMS
  .hidden XGetClassHint
#endif
XGetClassHint:
  .cfi_startproc

1:
  // Load address
  // TODO: can we do this faster on newer ARMs?
  ldr ip, 3f
2:
  add ip, pc, ip
  ldr ip, [ip]

  cmp ip, #0

  // Fast path
  bxne ip

  // Slow path
  ldr ip, =189
  push {ip}
  .cfi_adjust_cfa_offset 4
  PUSH_REG(lr)
  bl _libX11_so_save_regs_and_resolve
  POP_REG(lr)
  add sp, #4
  .cfi_adjust_cfa_offset -4
  bx ip

  // Force constant pool for ldr above
  .ltorg

  .cfi_endproc

3:
  .word _libX11_so_tramp_table - (2b + 8) + 756

/*
 * Copyright 2018-2025 Yury Gribov
 *
 * The MIT License (MIT)
 *
 * Use of this source code is governed by MIT license that can be
 * found in the LICENSE.txt file.
 */

  .globl XGetCommand
  .p2align 4
  .type XGetCommand, %function
#ifndef IMPLIB_EXPORT_SHIMS
  .hidden XGetCommand
#endif
XGetCommand:
  .cfi_startproc

1:
  // Load address
  // TODO: can we do this faster on newer ARMs?
  ldr ip, 3f
2:
  add ip, pc, ip
  ldr ip, [ip]

  cmp ip, #0

  // Fast path
  bxne ip

  // Slow path
  ldr ip, =190
  push {ip}
  .cfi_adjust_cfa_offset 4
  PUSH_REG(lr)
  bl _libX11_so_save_regs_and_resolve
  POP_REG(lr)
  add sp, #4
  .cfi_adjust_cfa_offset -4
  bx ip

  // Force constant pool for ldr above
  .ltorg

  .cfi_endproc

3:
  .word _libX11_so_tramp_table - (2b + 8) + 760

/*
 * Copyright 2018-2025 Yury Gribov
 *
 * The MIT License (MIT)
 *
 * Use of this source code is governed by MIT license that can be
 * found in the LICENSE.txt file.
 */

  .globl XGetDefault
  .p2align 4
  .type XGetDefault, %function
#ifndef IMPLIB_EXPORT_SHIMS
  .hidden XGetDefault
#endif
XGetDefault:
  .cfi_startproc

1:
  // Load address
  // TODO: can we do this faster on newer ARMs?
  ldr ip, 3f
2:
  add ip, pc, ip
  ldr ip, [ip]

  cmp ip, #0

  // Fast path
  bxne ip

  // Slow path
  ldr ip, =191
  push {ip}
  .cfi_adjust_cfa_offset 4
  PUSH_REG(lr)
  bl _libX11_so_save_regs_and_resolve
  POP_REG(lr)
  add sp, #4
  .cfi_adjust_cfa_offset -4
  bx ip

  // Force constant pool for ldr above
  .ltorg

  .cfi_endproc

3:
  .word _libX11_so_tramp_table - (2b + 8) + 764

/*
 * Copyright 2018-2025 Yury Gribov
 *
 * The MIT License (MIT)
 *
 * Use of this source code is governed by MIT license that can be
 * found in the LICENSE.txt file.
 */

  .globl XGetErrorDatabaseText
  .p2align 4
  .type XGetErrorDatabaseText, %function
#ifndef IMPLIB_EXPORT_SHIMS
  .hidden XGetErrorDatabaseText
#endif
XGetErrorDatabaseText:
  .cfi_startproc

1:
  // Load address
  // TODO: can we do this faster on newer ARMs?
  ldr ip, 3f
2:
  add ip, pc, ip
  ldr ip, [ip]

  cmp ip, #0

  // Fast path
  bxne ip

  // Slow path
  ldr ip, =192
  push {ip}
  .cfi_adjust_cfa_offset 4
  PUSH_REG(lr)
  bl _libX11_so_save_regs_and_resolve
  POP_REG(lr)
  add sp, #4
  .cfi_adjust_cfa_offset -4
  bx ip

  // Force constant pool for ldr above
  .ltorg

  .cfi_endproc

3:
  .word _libX11_so_tramp_table - (2b + 8) + 768

/*
 * Copyright 2018-2025 Yury Gribov
 *
 * The MIT License (MIT)
 *
 * Use of this source code is governed by MIT license that can be
 * found in the LICENSE.txt file.
 */

  .globl XGetErrorText
  .p2align 4
  .type XGetErrorText, %function
#ifndef IMPLIB_EXPORT_SHIMS
  .hidden XGetErrorText
#endif
XGetErrorText:
  .cfi_startproc

1:
  // Load address
  // TODO: can we do this faster on newer ARMs?
  ldr ip, 3f
2:
  add ip, pc, ip
  ldr ip, [ip]

  cmp ip, #0

  // Fast path
  bxne ip

  // Slow path
  ldr ip, =193
  push {ip}
  .cfi_adjust_cfa_offset 4
  PUSH_REG(lr)
  bl _libX11_so_save_regs_and_resolve
  POP_REG(lr)
  add sp, #4
  .cfi_adjust_cfa_offset -4
  bx ip

  // Force constant pool for ldr above
  .ltorg

  .cfi_endproc

3:
  .word _libX11_so_tramp_table - (2b + 8) + 772

/*
 * Copyright 2018-2025 Yury Gribov
 *
 * The MIT License (MIT)
 *
 * Use of this source code is governed by MIT license that can be
 * found in the LICENSE.txt file.
 */

  .globl XGetEventData
  .p2align 4
  .type XGetEventData, %function
#ifndef IMPLIB_EXPORT_SHIMS
  .hidden XGetEventData
#endif
XGetEventData:
  .cfi_startproc

1:
  // Load address
  // TODO: can we do this faster on newer ARMs?
  ldr ip, 3f
2:
  add ip, pc, ip
  ldr ip, [ip]

  cmp ip, #0

  // Fast path
  bxne ip

  // Slow path
  ldr ip, =194
  push {ip}
  .cfi_adjust_cfa_offset 4
  PUSH_REG(lr)
  bl _libX11_so_save_regs_and_resolve
  POP_REG(lr)
  add sp, #4
  .cfi_adjust_cfa_offset -4
  bx ip

  // Force constant pool for ldr above
  .ltorg

  .cfi_endproc

3:
  .word _libX11_so_tramp_table - (2b + 8) + 776

/*
 * Copyright 2018-2025 Yury Gribov
 *
 * The MIT License (MIT)
 *
 * Use of this source code is governed by MIT license that can be
 * found in the LICENSE.txt file.
 */

  .globl XGetFontPath
  .p2align 4
  .type XGetFontPath, %function
#ifndef IMPLIB_EXPORT_SHIMS
  .hidden XGetFontPath
#endif
XGetFontPath:
  .cfi_startproc

1:
  // Load address
  // TODO: can we do this faster on newer ARMs?
  ldr ip, 3f
2:
  add ip, pc, ip
  ldr ip, [ip]

  cmp ip, #0

  // Fast path
  bxne ip

  // Slow path
  ldr ip, =195
  push {ip}
  .cfi_adjust_cfa_offset 4
  PUSH_REG(lr)
  bl _libX11_so_save_regs_and_resolve
  POP_REG(lr)
  add sp, #4
  .cfi_adjust_cfa_offset -4
  bx ip

  // Force constant pool for ldr above
  .ltorg

  .cfi_endproc

3:
  .word _libX11_so_tramp_table - (2b + 8) + 780

/*
 * Copyright 2018-2025 Yury Gribov
 *
 * The MIT License (MIT)
 *
 * Use of this source code is governed by MIT license that can be
 * found in the LICENSE.txt file.
 */

  .globl XGetFontProperty
  .p2align 4
  .type XGetFontProperty, %function
#ifndef IMPLIB_EXPORT_SHIMS
  .hidden XGetFontProperty
#endif
XGetFontProperty:
  .cfi_startproc

1:
  // Load address
  // TODO: can we do this faster on newer ARMs?
  ldr ip, 3f
2:
  add ip, pc, ip
  ldr ip, [ip]

  cmp ip, #0

  // Fast path
  bxne ip

  // Slow path
  ldr ip, =196
  push {ip}
  .cfi_adjust_cfa_offset 4
  PUSH_REG(lr)
  bl _libX11_so_save_regs_and_resolve
  POP_REG(lr)
  add sp, #4
  .cfi_adjust_cfa_offset -4
  bx ip

  // Force constant pool for ldr above
  .ltorg

  .cfi_endproc

3:
  .word _libX11_so_tramp_table - (2b + 8) + 784

/*
 * Copyright 2018-2025 Yury Gribov
 *
 * The MIT License (MIT)
 *
 * Use of this source code is governed by MIT license that can be
 * found in the LICENSE.txt file.
 */

  .globl XGetGCValues
  .p2align 4
  .type XGetGCValues, %function
#ifndef IMPLIB_EXPORT_SHIMS
  .hidden XGetGCValues
#endif
XGetGCValues:
  .cfi_startproc

1:
  // Load address
  // TODO: can we do this faster on newer ARMs?
  ldr ip, 3f
2:
  add ip, pc, ip
  ldr ip, [ip]

  cmp ip, #0

  // Fast path
  bxne ip

  // Slow path
  ldr ip, =197
  push {ip}
  .cfi_adjust_cfa_offset 4
  PUSH_REG(lr)
  bl _libX11_so_save_regs_and_resolve
  POP_REG(lr)
  add sp, #4
  .cfi_adjust_cfa_offset -4
  bx ip

  // Force constant pool for ldr above
  .ltorg

  .cfi_endproc

3:
  .word _libX11_so_tramp_table - (2b + 8) + 788

/*
 * Copyright 2018-2025 Yury Gribov
 *
 * The MIT License (MIT)
 *
 * Use of this source code is governed by MIT license that can be
 * found in the LICENSE.txt file.
 */

  .globl XGetGeometry
  .p2align 4
  .type XGetGeometry, %function
#ifndef IMPLIB_EXPORT_SHIMS
  .hidden XGetGeometry
#endif
XGetGeometry:
  .cfi_startproc

1:
  // Load address
  // TODO: can we do this faster on newer ARMs?
  ldr ip, 3f
2:
  add ip, pc, ip
  ldr ip, [ip]

  cmp ip, #0

  // Fast path
  bxne ip

  // Slow path
  ldr ip, =198
  push {ip}
  .cfi_adjust_cfa_offset 4
  PUSH_REG(lr)
  bl _libX11_so_save_regs_and_resolve
  POP_REG(lr)
  add sp, #4
  .cfi_adjust_cfa_offset -4
  bx ip

  // Force constant pool for ldr above
  .ltorg

  .cfi_endproc

3:
  .word _libX11_so_tramp_table - (2b + 8) + 792

/*
 * Copyright 2018-2025 Yury Gribov
 *
 * The MIT License (MIT)
 *
 * Use of this source code is governed by MIT license that can be
 * found in the LICENSE.txt file.
 */

  .globl XGetICValues
  .p2align 4
  .type XGetICValues, %function
#ifndef IMPLIB_EXPORT_SHIMS
  .hidden XGetICValues
#endif
XGetICValues:
  .cfi_startproc

1:
  // Load address
  // TODO: can we do this faster on newer ARMs?
  ldr ip, 3f
2:
  add ip, pc, ip
  ldr ip, [ip]

  cmp ip, #0

  // Fast path
  bxne ip

  // Slow path
  ldr ip, =199
  push {ip}
  .cfi_adjust_cfa_offset 4
  PUSH_REG(lr)
  bl _libX11_so_save_regs_and_resolve
  POP_REG(lr)
  add sp, #4
  .cfi_adjust_cfa_offset -4
  bx ip

  // Force constant pool for ldr above
  .ltorg

  .cfi_endproc

3:
  .word _libX11_so_tramp_table - (2b + 8) + 796

/*
 * Copyright 2018-2025 Yury Gribov
 *
 * The MIT License (MIT)
 *
 * Use of this source code is governed by MIT license that can be
 * found in the LICENSE.txt file.
 */

  .globl XGetIMValues
  .p2align 4
  .type XGetIMValues, %function
#ifndef IMPLIB_EXPORT_SHIMS
  .hidden XGetIMValues
#endif
XGetIMValues:
  .cfi_startproc

1:
  // Load address
  // TODO: can we do this faster on newer ARMs?
  ldr ip, 3f
2:
  add ip, pc, ip
  ldr ip, [ip]

  cmp ip, #0

  // Fast path
  bxne ip

  // Slow path
  ldr ip, =200
  push {ip}
  .cfi_adjust_cfa_offset 4
  PUSH_REG(lr)
  bl _libX11_so_save_regs_and_resolve
  POP_REG(lr)
  add sp, #4
  .cfi_adjust_cfa_offset -4
  bx ip

  // Force constant pool for ldr above
  .ltorg

  .cfi_endproc

3:
  .word _libX11_so_tramp_table - (2b + 8) + 800

/*
 * Copyright 2018-2025 Yury Gribov
 *
 * The MIT License (MIT)
 *
 * Use of this source code is governed by MIT license that can be
 * found in the LICENSE.txt file.
 */

  .globl XGetIconName
  .p2align 4
  .type XGetIconName, %function
#ifndef IMPLIB_EXPORT_SHIMS
  .hidden XGetIconName
#endif
XGetIconName:
  .cfi_startproc

1:
  // Load address
  // TODO: can we do this faster on newer ARMs?
  ldr ip, 3f
2:
  add ip, pc, ip
  ldr ip, [ip]

  cmp ip, #0

  // Fast path
  bxne ip

  // Slow path
  ldr ip, =201
  push {ip}
  .cfi_adjust_cfa_offset 4
  PUSH_REG(lr)
  bl _libX11_so_save_regs_and_resolve
  POP_REG(lr)
  add sp, #4
  .cfi_adjust_cfa_offset -4
  bx ip

  // Force constant pool for ldr above
  .ltorg

  .cfi_endproc

3:
  .word _libX11_so_tramp_table - (2b + 8) + 804

/*
 * Copyright 2018-2025 Yury Gribov
 *
 * The MIT License (MIT)
 *
 * Use of this source code is governed by MIT license that can be
 * found in the LICENSE.txt file.
 */

  .globl XGetIconSizes
  .p2align 4
  .type XGetIconSizes, %function
#ifndef IMPLIB_EXPORT_SHIMS
  .hidden XGetIconSizes
#endif
XGetIconSizes:
  .cfi_startproc

1:
  // Load address
  // TODO: can we do this faster on newer ARMs?
  ldr ip, 3f
2:
  add ip, pc, ip
  ldr ip, [ip]

  cmp ip, #0

  // Fast path
  bxne ip

  // Slow path
  ldr ip, =202
  push {ip}
  .cfi_adjust_cfa_offset 4
  PUSH_REG(lr)
  bl _libX11_so_save_regs_and_resolve
  POP_REG(lr)
  add sp, #4
  .cfi_adjust_cfa_offset -4
  bx ip

  // Force constant pool for ldr above
  .ltorg

  .cfi_endproc

3:
  .word _libX11_so_tramp_table - (2b + 8) + 808

/*
 * Copyright 2018-2025 Yury Gribov
 *
 * The MIT License (MIT)
 *
 * Use of this source code is governed by MIT license that can be
 * found in the LICENSE.txt file.
 */

  .globl XGetImage
  .p2align 4
  .type XGetImage, %function
#ifndef IMPLIB_EXPORT_SHIMS
  .hidden XGetImage
#endif
XGetImage:
  .cfi_startproc

1:
  // Load address
  // TODO: can we do this faster on newer ARMs?
  ldr ip, 3f
2:
  add ip, pc, ip
  ldr ip, [ip]

  cmp ip, #0

  // Fast path
  bxne ip

  // Slow path
  ldr ip, =203
  push {ip}
  .cfi_adjust_cfa_offset 4
  PUSH_REG(lr)
  bl _libX11_so_save_regs_and_resolve
  POP_REG(lr)
  add sp, #4
  .cfi_adjust_cfa_offset -4
  bx ip

  // Force constant pool for ldr above
  .ltorg

  .cfi_endproc

3:
  .word _libX11_so_tramp_table - (2b + 8) + 812

/*
 * Copyright 2018-2025 Yury Gribov
 *
 * The MIT License (MIT)
 *
 * Use of this source code is governed by MIT license that can be
 * found in the LICENSE.txt file.
 */

  .globl XGetInputFocus
  .p2align 4
  .type XGetInputFocus, %function
#ifndef IMPLIB_EXPORT_SHIMS
  .hidden XGetInputFocus
#endif
XGetInputFocus:
  .cfi_startproc

1:
  // Load address
  // TODO: can we do this faster on newer ARMs?
  ldr ip, 3f
2:
  add ip, pc, ip
  ldr ip, [ip]

  cmp ip, #0

  // Fast path
  bxne ip

  // Slow path
  ldr ip, =204
  push {ip}
  .cfi_adjust_cfa_offset 4
  PUSH_REG(lr)
  bl _libX11_so_save_regs_and_resolve
  POP_REG(lr)
  add sp, #4
  .cfi_adjust_cfa_offset -4
  bx ip

  // Force constant pool for ldr above
  .ltorg

  .cfi_endproc

3:
  .word _libX11_so_tramp_table - (2b + 8) + 816

/*
 * Copyright 2018-2025 Yury Gribov
 *
 * The MIT License (MIT)
 *
 * Use of this source code is governed by MIT license that can be
 * found in the LICENSE.txt file.
 */

  .globl XGetKeyboardControl
  .p2align 4
  .type XGetKeyboardControl, %function
#ifndef IMPLIB_EXPORT_SHIMS
  .hidden XGetKeyboardControl
#endif
XGetKeyboardControl:
  .cfi_startproc

1:
  // Load address
  // TODO: can we do this faster on newer ARMs?
  ldr ip, 3f
2:
  add ip, pc, ip
  ldr ip, [ip]

  cmp ip, #0

  // Fast path
  bxne ip

  // Slow path
  ldr ip, =205
  push {ip}
  .cfi_adjust_cfa_offset 4
  PUSH_REG(lr)
  bl _libX11_so_save_regs_and_resolve
  POP_REG(lr)
  add sp, #4
  .cfi_adjust_cfa_offset -4
  bx ip

  // Force constant pool for ldr above
  .ltorg

  .cfi_endproc

3:
  .word _libX11_so_tramp_table - (2b + 8) + 820

/*
 * Copyright 2018-2025 Yury Gribov
 *
 * The MIT License (MIT)
 *
 * Use of this source code is governed by MIT license that can be
 * found in the LICENSE.txt file.
 */

  .globl XGetKeyboardMapping
  .p2align 4
  .type XGetKeyboardMapping, %function
#ifndef IMPLIB_EXPORT_SHIMS
  .hidden XGetKeyboardMapping
#endif
XGetKeyboardMapping:
  .cfi_startproc

1:
  // Load address
  // TODO: can we do this faster on newer ARMs?
  ldr ip, 3f
2:
  add ip, pc, ip
  ldr ip, [ip]

  cmp ip, #0

  // Fast path
  bxne ip

  // Slow path
  ldr ip, =206
  push {ip}
  .cfi_adjust_cfa_offset 4
  PUSH_REG(lr)
  bl _libX11_so_save_regs_and_resolve
  POP_REG(lr)
  add sp, #4
  .cfi_adjust_cfa_offset -4
  bx ip

  // Force constant pool for ldr above
  .ltorg

  .cfi_endproc

3:
  .word _libX11_so_tramp_table - (2b + 8) + 824

/*
 * Copyright 2018-2025 Yury Gribov
 *
 * The MIT License (MIT)
 *
 * Use of this source code is governed by MIT license that can be
 * found in the LICENSE.txt file.
 */

  .globl XGetModifierMapping
  .p2align 4
  .type XGetModifierMapping, %function
#ifndef IMPLIB_EXPORT_SHIMS
  .hidden XGetModifierMapping
#endif
XGetModifierMapping:
  .cfi_startproc

1:
  // Load address
  // TODO: can we do this faster on newer ARMs?
  ldr ip, 3f
2:
  add ip, pc, ip
  ldr ip, [ip]

  cmp ip, #0

  // Fast path
  bxne ip

  // Slow path
  ldr ip, =207
  push {ip}
  .cfi_adjust_cfa_offset 4
  PUSH_REG(lr)
  bl _libX11_so_save_regs_and_resolve
  POP_REG(lr)
  add sp, #4
  .cfi_adjust_cfa_offset -4
  bx ip

  // Force constant pool for ldr above
  .ltorg

  .cfi_endproc

3:
  .word _libX11_so_tramp_table - (2b + 8) + 828

/*
 * Copyright 2018-2025 Yury Gribov
 *
 * The MIT License (MIT)
 *
 * Use of this source code is governed by MIT license that can be
 * found in the LICENSE.txt file.
 */

  .globl XGetMotionEvents
  .p2align 4
  .type XGetMotionEvents, %function
#ifndef IMPLIB_EXPORT_SHIMS
  .hidden XGetMotionEvents
#endif
XGetMotionEvents:
  .cfi_startproc

1:
  // Load address
  // TODO: can we do this faster on newer ARMs?
  ldr ip, 3f
2:
  add ip, pc, ip
  ldr ip, [ip]

  cmp ip, #0

  // Fast path
  bxne ip

  // Slow path
  ldr ip, =208
  push {ip}
  .cfi_adjust_cfa_offset 4
  PUSH_REG(lr)
  bl _libX11_so_save_regs_and_resolve
  POP_REG(lr)
  add sp, #4
  .cfi_adjust_cfa_offset -4
  bx ip

  // Force constant pool for ldr above
  .ltorg

  .cfi_endproc

3:
  .word _libX11_so_tramp_table - (2b + 8) + 832

/*
 * Copyright 2018-2025 Yury Gribov
 *
 * The MIT License (MIT)
 *
 * Use of this source code is governed by MIT license that can be
 * found in the LICENSE.txt file.
 */

  .globl XGetNormalHints
  .p2align 4
  .type XGetNormalHints, %function
#ifndef IMPLIB_EXPORT_SHIMS
  .hidden XGetNormalHints
#endif
XGetNormalHints:
  .cfi_startproc

1:
  // Load address
  // TODO: can we do this faster on newer ARMs?
  ldr ip, 3f
2:
  add ip, pc, ip
  ldr ip, [ip]

  cmp ip, #0

  // Fast path
  bxne ip

  // Slow path
  ldr ip, =209
  push {ip}
  .cfi_adjust_cfa_offset 4
  PUSH_REG(lr)
  bl _libX11_so_save_regs_and_resolve
  POP_REG(lr)
  add sp, #4
  .cfi_adjust_cfa_offset -4
  bx ip

  // Force constant pool for ldr above
  .ltorg

  .cfi_endproc

3:
  .word _libX11_so_tramp_table - (2b + 8) + 836

/*
 * Copyright 2018-2025 Yury Gribov
 *
 * The MIT License (MIT)
 *
 * Use of this source code is governed by MIT license that can be
 * found in the LICENSE.txt file.
 */

  .globl XGetOCValues
  .p2align 4
  .type XGetOCValues, %function
#ifndef IMPLIB_EXPORT_SHIMS
  .hidden XGetOCValues
#endif
XGetOCValues:
  .cfi_startproc

1:
  // Load address
  // TODO: can we do this faster on newer ARMs?
  ldr ip, 3f
2:
  add ip, pc, ip
  ldr ip, [ip]

  cmp ip, #0

  // Fast path
  bxne ip

  // Slow path
  ldr ip, =210
  push {ip}
  .cfi_adjust_cfa_offset 4
  PUSH_REG(lr)
  bl _libX11_so_save_regs_and_resolve
  POP_REG(lr)
  add sp, #4
  .cfi_adjust_cfa_offset -4
  bx ip

  // Force constant pool for ldr above
  .ltorg

  .cfi_endproc

3:
  .word _libX11_so_tramp_table - (2b + 8) + 840

/*
 * Copyright 2018-2025 Yury Gribov
 *
 * The MIT License (MIT)
 *
 * Use of this source code is governed by MIT license that can be
 * found in the LICENSE.txt file.
 */

  .globl XGetOMValues
  .p2align 4
  .type XGetOMValues, %function
#ifndef IMPLIB_EXPORT_SHIMS
  .hidden XGetOMValues
#endif
XGetOMValues:
  .cfi_startproc

1:
  // Load address
  // TODO: can we do this faster on newer ARMs?
  ldr ip, 3f
2:
  add ip, pc, ip
  ldr ip, [ip]

  cmp ip, #0

  // Fast path
  bxne ip

  // Slow path
  ldr ip, =211
  push {ip}
  .cfi_adjust_cfa_offset 4
  PUSH_REG(lr)
  bl _libX11_so_save_regs_and_resolve
  POP_REG(lr)
  add sp, #4
  .cfi_adjust_cfa_offset -4
  bx ip

  // Force constant pool for ldr above
  .ltorg

  .cfi_endproc

3:
  .word _libX11_so_tramp_table - (2b + 8) + 844

/*
 * Copyright 2018-2025 Yury Gribov
 *
 * The MIT License (MIT)
 *
 * Use of this source code is governed by MIT license that can be
 * found in the LICENSE.txt file.
 */

  .globl XGetPixel
  .p2align 4
  .type XGetPixel, %function
#ifndef IMPLIB_EXPORT_SHIMS
  .hidden XGetPixel
#endif
XGetPixel:
  .cfi_startproc

1:
  // Load address
  // TODO: can we do this faster on newer ARMs?
  ldr ip, 3f
2:
  add ip, pc, ip
  ldr ip, [ip]

  cmp ip, #0

  // Fast path
  bxne ip

  // Slow path
  ldr ip, =212
  push {ip}
  .cfi_adjust_cfa_offset 4
  PUSH_REG(lr)
  bl _libX11_so_save_regs_and_resolve
  POP_REG(lr)
  add sp, #4
  .cfi_adjust_cfa_offset -4
  bx ip

  // Force constant pool for ldr above
  .ltorg

  .cfi_endproc

3:
  .word _libX11_so_tramp_table - (2b + 8) + 848

/*
 * Copyright 2018-2025 Yury Gribov
 *
 * The MIT License (MIT)
 *
 * Use of this source code is governed by MIT license that can be
 * found in the LICENSE.txt file.
 */

  .globl XGetPointerControl
  .p2align 4
  .type XGetPointerControl, %function
#ifndef IMPLIB_EXPORT_SHIMS
  .hidden XGetPointerControl
#endif
XGetPointerControl:
  .cfi_startproc

1:
  // Load address
  // TODO: can we do this faster on newer ARMs?
  ldr ip, 3f
2:
  add ip, pc, ip
  ldr ip, [ip]

  cmp ip, #0

  // Fast path
  bxne ip

  // Slow path
  ldr ip, =213
  push {ip}
  .cfi_adjust_cfa_offset 4
  PUSH_REG(lr)
  bl _libX11_so_save_regs_and_resolve
  POP_REG(lr)
  add sp, #4
  .cfi_adjust_cfa_offset -4
  bx ip

  // Force constant pool for ldr above
  .ltorg

  .cfi_endproc

3:
  .word _libX11_so_tramp_table - (2b + 8) + 852

/*
 * Copyright 2018-2025 Yury Gribov
 *
 * The MIT License (MIT)
 *
 * Use of this source code is governed by MIT license that can be
 * found in the LICENSE.txt file.
 */

  .globl XGetPointerMapping
  .p2align 4
  .type XGetPointerMapping, %function
#ifndef IMPLIB_EXPORT_SHIMS
  .hidden XGetPointerMapping
#endif
XGetPointerMapping:
  .cfi_startproc

1:
  // Load address
  // TODO: can we do this faster on newer ARMs?
  ldr ip, 3f
2:
  add ip, pc, ip
  ldr ip, [ip]

  cmp ip, #0

  // Fast path
  bxne ip

  // Slow path
  ldr ip, =214
  push {ip}
  .cfi_adjust_cfa_offset 4
  PUSH_REG(lr)
  bl _libX11_so_save_regs_and_resolve
  POP_REG(lr)
  add sp, #4
  .cfi_adjust_cfa_offset -4
  bx ip

  // Force constant pool for ldr above
  .ltorg

  .cfi_endproc

3:
  .word _libX11_so_tramp_table - (2b + 8) + 856

/*
 * Copyright 2018-2025 Yury Gribov
 *
 * The MIT License (MIT)
 *
 * Use of this source code is governed by MIT license that can be
 * found in the LICENSE.txt file.
 */

  .globl XGetRGBColormaps
  .p2align 4
  .type XGetRGBColormaps, %function
#ifndef IMPLIB_EXPORT_SHIMS
  .hidden XGetRGBColormaps
#endif
XGetRGBColormaps:
  .cfi_startproc

1:
  // Load address
  // TODO: can we do this faster on newer ARMs?
  ldr ip, 3f
2:
  add ip, pc, ip
  ldr ip, [ip]

  cmp ip, #0

  // Fast path
  bxne ip

  // Slow path
  ldr ip, =215
  push {ip}
  .cfi_adjust_cfa_offset 4
  PUSH_REG(lr)
  bl _libX11_so_save_regs_and_resolve
  POP_REG(lr)
  add sp, #4
  .cfi_adjust_cfa_offset -4
  bx ip

  // Force constant pool for ldr above
  .ltorg

  .cfi_endproc

3:
  .word _libX11_so_tramp_table - (2b + 8) + 860

/*
 * Copyright 2018-2025 Yury Gribov
 *
 * The MIT License (MIT)
 *
 * Use of this source code is governed by MIT license that can be
 * found in the LICENSE.txt file.
 */

  .globl XGetScreenSaver
  .p2align 4
  .type XGetScreenSaver, %function
#ifndef IMPLIB_EXPORT_SHIMS
  .hidden XGetScreenSaver
#endif
XGetScreenSaver:
  .cfi_startproc

1:
  // Load address
  // TODO: can we do this faster on newer ARMs?
  ldr ip, 3f
2:
  add ip, pc, ip
  ldr ip, [ip]

  cmp ip, #0

  // Fast path
  bxne ip

  // Slow path
  ldr ip, =216
  push {ip}
  .cfi_adjust_cfa_offset 4
  PUSH_REG(lr)
  bl _libX11_so_save_regs_and_resolve
  POP_REG(lr)
  add sp, #4
  .cfi_adjust_cfa_offset -4
  bx ip

  // Force constant pool for ldr above
  .ltorg

  .cfi_endproc

3:
  .word _libX11_so_tramp_table - (2b + 8) + 864

/*
 * Copyright 2018-2025 Yury Gribov
 *
 * The MIT License (MIT)
 *
 * Use of this source code is governed by MIT license that can be
 * found in the LICENSE.txt file.
 */

  .globl XGetSelectionOwner
  .p2align 4
  .type XGetSelectionOwner, %function
#ifndef IMPLIB_EXPORT_SHIMS
  .hidden XGetSelectionOwner
#endif
XGetSelectionOwner:
  .cfi_startproc

1:
  // Load address
  // TODO: can we do this faster on newer ARMs?
  ldr ip, 3f
2:
  add ip, pc, ip
  ldr ip, [ip]

  cmp ip, #0

  // Fast path
  bxne ip

  // Slow path
  ldr ip, =217
  push {ip}
  .cfi_adjust_cfa_offset 4
  PUSH_REG(lr)
  bl _libX11_so_save_regs_and_resolve
  POP_REG(lr)
  add sp, #4
  .cfi_adjust_cfa_offset -4
  bx ip

  // Force constant pool for ldr above
  .ltorg

  .cfi_endproc

3:
  .word _libX11_so_tramp_table - (2b + 8) + 868

/*
 * Copyright 2018-2025 Yury Gribov
 *
 * The MIT License (MIT)
 *
 * Use of this source code is governed by MIT license that can be
 * found in the LICENSE.txt file.
 */

  .globl XGetSizeHints
  .p2align 4
  .type XGetSizeHints, %function
#ifndef IMPLIB_EXPORT_SHIMS
  .hidden XGetSizeHints
#endif
XGetSizeHints:
  .cfi_startproc

1:
  // Load address
  // TODO: can we do this faster on newer ARMs?
  ldr ip, 3f
2:
  add ip, pc, ip
  ldr ip, [ip]

  cmp ip, #0

  // Fast path
  bxne ip

  // Slow path
  ldr ip, =218
  push {ip}
  .cfi_adjust_cfa_offset 4
  PUSH_REG(lr)
  bl _libX11_so_save_regs_and_resolve
  POP_REG(lr)
  add sp, #4
  .cfi_adjust_cfa_offset -4
  bx ip

  // Force constant pool for ldr above
  .ltorg

  .cfi_endproc

3:
  .word _libX11_so_tramp_table - (2b + 8) + 872

/*
 * Copyright 2018-2025 Yury Gribov
 *
 * The MIT License (MIT)
 *
 * Use of this source code is governed by MIT license that can be
 * found in the LICENSE.txt file.
 */

  .globl XGetStandardColormap
  .p2align 4
  .type XGetStandardColormap, %function
#ifndef IMPLIB_EXPORT_SHIMS
  .hidden XGetStandardColormap
#endif
XGetStandardColormap:
  .cfi_startproc

1:
  // Load address
  // TODO: can we do this faster on newer ARMs?
  ldr ip, 3f
2:
  add ip, pc, ip
  ldr ip, [ip]

  cmp ip, #0

  // Fast path
  bxne ip

  // Slow path
  ldr ip, =219
  push {ip}
  .cfi_adjust_cfa_offset 4
  PUSH_REG(lr)
  bl _libX11_so_save_regs_and_resolve
  POP_REG(lr)
  add sp, #4
  .cfi_adjust_cfa_offset -4
  bx ip

  // Force constant pool for ldr above
  .ltorg

  .cfi_endproc

3:
  .word _libX11_so_tramp_table - (2b + 8) + 876

/*
 * Copyright 2018-2025 Yury Gribov
 *
 * The MIT License (MIT)
 *
 * Use of this source code is governed by MIT license that can be
 * found in the LICENSE.txt file.
 */

  .globl XGetSubImage
  .p2align 4
  .type XGetSubImage, %function
#ifndef IMPLIB_EXPORT_SHIMS
  .hidden XGetSubImage
#endif
XGetSubImage:
  .cfi_startproc

1:
  // Load address
  // TODO: can we do this faster on newer ARMs?
  ldr ip, 3f
2:
  add ip, pc, ip
  ldr ip, [ip]

  cmp ip, #0

  // Fast path
  bxne ip

  // Slow path
  ldr ip, =220
  push {ip}
  .cfi_adjust_cfa_offset 4
  PUSH_REG(lr)
  bl _libX11_so_save_regs_and_resolve
  POP_REG(lr)
  add sp, #4
  .cfi_adjust_cfa_offset -4
  bx ip

  // Force constant pool for ldr above
  .ltorg

  .cfi_endproc

3:
  .word _libX11_so_tramp_table - (2b + 8) + 880

/*
 * Copyright 2018-2025 Yury Gribov
 *
 * The MIT License (MIT)
 *
 * Use of this source code is governed by MIT license that can be
 * found in the LICENSE.txt file.
 */

  .globl XGetTextProperty
  .p2align 4
  .type XGetTextProperty, %function
#ifndef IMPLIB_EXPORT_SHIMS
  .hidden XGetTextProperty
#endif
XGetTextProperty:
  .cfi_startproc

1:
  // Load address
  // TODO: can we do this faster on newer ARMs?
  ldr ip, 3f
2:
  add ip, pc, ip
  ldr ip, [ip]

  cmp ip, #0

  // Fast path
  bxne ip

  // Slow path
  ldr ip, =221
  push {ip}
  .cfi_adjust_cfa_offset 4
  PUSH_REG(lr)
  bl _libX11_so_save_regs_and_resolve
  POP_REG(lr)
  add sp, #4
  .cfi_adjust_cfa_offset -4
  bx ip

  // Force constant pool for ldr above
  .ltorg

  .cfi_endproc

3:
  .word _libX11_so_tramp_table - (2b + 8) + 884

/*
 * Copyright 2018-2025 Yury Gribov
 *
 * The MIT License (MIT)
 *
 * Use of this source code is governed by MIT license that can be
 * found in the LICENSE.txt file.
 */

  .globl XGetTransientForHint
  .p2align 4
  .type XGetTransientForHint, %function
#ifndef IMPLIB_EXPORT_SHIMS
  .hidden XGetTransientForHint
#endif
XGetTransientForHint:
  .cfi_startproc

1:
  // Load address
  // TODO: can we do this faster on newer ARMs?
  ldr ip, 3f
2:
  add ip, pc, ip
  ldr ip, [ip]

  cmp ip, #0

  // Fast path
  bxne ip

  // Slow path
  ldr ip, =222
  push {ip}
  .cfi_adjust_cfa_offset 4
  PUSH_REG(lr)
  bl _libX11_so_save_regs_and_resolve
  POP_REG(lr)
  add sp, #4
  .cfi_adjust_cfa_offset -4
  bx ip

  // Force constant pool for ldr above
  .ltorg

  .cfi_endproc

3:
  .word _libX11_so_tramp_table - (2b + 8) + 888

/*
 * Copyright 2018-2025 Yury Gribov
 *
 * The MIT License (MIT)
 *
 * Use of this source code is governed by MIT license that can be
 * found in the LICENSE.txt file.
 */

  .globl XGetVisualInfo
  .p2align 4
  .type XGetVisualInfo, %function
#ifndef IMPLIB_EXPORT_SHIMS
  .hidden XGetVisualInfo
#endif
XGetVisualInfo:
  .cfi_startproc

1:
  // Load address
  // TODO: can we do this faster on newer ARMs?
  ldr ip, 3f
2:
  add ip, pc, ip
  ldr ip, [ip]

  cmp ip, #0

  // Fast path
  bxne ip

  // Slow path
  ldr ip, =223
  push {ip}
  .cfi_adjust_cfa_offset 4
  PUSH_REG(lr)
  bl _libX11_so_save_regs_and_resolve
  POP_REG(lr)
  add sp, #4
  .cfi_adjust_cfa_offset -4
  bx ip

  // Force constant pool for ldr above
  .ltorg

  .cfi_endproc

3:
  .word _libX11_so_tramp_table - (2b + 8) + 892

/*
 * Copyright 2018-2025 Yury Gribov
 *
 * The MIT License (MIT)
 *
 * Use of this source code is governed by MIT license that can be
 * found in the LICENSE.txt file.
 */

  .globl XGetWMClientMachine
  .p2align 4
  .type XGetWMClientMachine, %function
#ifndef IMPLIB_EXPORT_SHIMS
  .hidden XGetWMClientMachine
#endif
XGetWMClientMachine:
  .cfi_startproc

1:
  // Load address
  // TODO: can we do this faster on newer ARMs?
  ldr ip, 3f
2:
  add ip, pc, ip
  ldr ip, [ip]

  cmp ip, #0

  // Fast path
  bxne ip

  // Slow path
  ldr ip, =224
  push {ip}
  .cfi_adjust_cfa_offset 4
  PUSH_REG(lr)
  bl _libX11_so_save_regs_and_resolve
  POP_REG(lr)
  add sp, #4
  .cfi_adjust_cfa_offset -4
  bx ip

  // Force constant pool for ldr above
  .ltorg

  .cfi_endproc

3:
  .word _libX11_so_tramp_table - (2b + 8) + 896

/*
 * Copyright 2018-2025 Yury Gribov
 *
 * The MIT License (MIT)
 *
 * Use of this source code is governed by MIT license that can be
 * found in the LICENSE.txt file.
 */

  .globl XGetWMColormapWindows
  .p2align 4
  .type XGetWMColormapWindows, %function
#ifndef IMPLIB_EXPORT_SHIMS
  .hidden XGetWMColormapWindows
#endif
XGetWMColormapWindows:
  .cfi_startproc

1:
  // Load address
  // TODO: can we do this faster on newer ARMs?
  ldr ip, 3f
2:
  add ip, pc, ip
  ldr ip, [ip]

  cmp ip, #0

  // Fast path
  bxne ip

  // Slow path
  ldr ip, =225
  push {ip}
  .cfi_adjust_cfa_offset 4
  PUSH_REG(lr)
  bl _libX11_so_save_regs_and_resolve
  POP_REG(lr)
  add sp, #4
  .cfi_adjust_cfa_offset -4
  bx ip

  // Force constant pool for ldr above
  .ltorg

  .cfi_endproc

3:
  .word _libX11_so_tramp_table - (2b + 8) + 900

/*
 * Copyright 2018-2025 Yury Gribov
 *
 * The MIT License (MIT)
 *
 * Use of this source code is governed by MIT license that can be
 * found in the LICENSE.txt file.
 */

  .globl XGetWMHints
  .p2align 4
  .type XGetWMHints, %function
#ifndef IMPLIB_EXPORT_SHIMS
  .hidden XGetWMHints
#endif
XGetWMHints:
  .cfi_startproc

1:
  // Load address
  // TODO: can we do this faster on newer ARMs?
  ldr ip, 3f
2:
  add ip, pc, ip
  ldr ip, [ip]

  cmp ip, #0

  // Fast path
  bxne ip

  // Slow path
  ldr ip, =226
  push {ip}
  .cfi_adjust_cfa_offset 4
  PUSH_REG(lr)
  bl _libX11_so_save_regs_and_resolve
  POP_REG(lr)
  add sp, #4
  .cfi_adjust_cfa_offset -4
  bx ip

  // Force constant pool for ldr above
  .ltorg

  .cfi_endproc

3:
  .word _libX11_so_tramp_table - (2b + 8) + 904

/*
 * Copyright 2018-2025 Yury Gribov
 *
 * The MIT License (MIT)
 *
 * Use of this source code is governed by MIT license that can be
 * found in the LICENSE.txt file.
 */

  .globl XGetWMIconName
  .p2align 4
  .type XGetWMIconName, %function
#ifndef IMPLIB_EXPORT_SHIMS
  .hidden XGetWMIconName
#endif
XGetWMIconName:
  .cfi_startproc

1:
  // Load address
  // TODO: can we do this faster on newer ARMs?
  ldr ip, 3f
2:
  add ip, pc, ip
  ldr ip, [ip]

  cmp ip, #0

  // Fast path
  bxne ip

  // Slow path
  ldr ip, =227
  push {ip}
  .cfi_adjust_cfa_offset 4
  PUSH_REG(lr)
  bl _libX11_so_save_regs_and_resolve
  POP_REG(lr)
  add sp, #4
  .cfi_adjust_cfa_offset -4
  bx ip

  // Force constant pool for ldr above
  .ltorg

  .cfi_endproc

3:
  .word _libX11_so_tramp_table - (2b + 8) + 908

/*
 * Copyright 2018-2025 Yury Gribov
 *
 * The MIT License (MIT)
 *
 * Use of this source code is governed by MIT license that can be
 * found in the LICENSE.txt file.
 */

  .globl XGetWMName
  .p2align 4
  .type XGetWMName, %function
#ifndef IMPLIB_EXPORT_SHIMS
  .hidden XGetWMName
#endif
XGetWMName:
  .cfi_startproc

1:
  // Load address
  // TODO: can we do this faster on newer ARMs?
  ldr ip, 3f
2:
  add ip, pc, ip
  ldr ip, [ip]

  cmp ip, #0

  // Fast path
  bxne ip

  // Slow path
  ldr ip, =228
  push {ip}
  .cfi_adjust_cfa_offset 4
  PUSH_REG(lr)
  bl _libX11_so_save_regs_and_resolve
  POP_REG(lr)
  add sp, #4
  .cfi_adjust_cfa_offset -4
  bx ip

  // Force constant pool for ldr above
  .ltorg

  .cfi_endproc

3:
  .word _libX11_so_tramp_table - (2b + 8) + 912

/*
 * Copyright 2018-2025 Yury Gribov
 *
 * The MIT License (MIT)
 *
 * Use of this source code is governed by MIT license that can be
 * found in the LICENSE.txt file.
 */

  .globl XGetWMNormalHints
  .p2align 4
  .type XGetWMNormalHints, %function
#ifndef IMPLIB_EXPORT_SHIMS
  .hidden XGetWMNormalHints
#endif
XGetWMNormalHints:
  .cfi_startproc

1:
  // Load address
  // TODO: can we do this faster on newer ARMs?
  ldr ip, 3f
2:
  add ip, pc, ip
  ldr ip, [ip]

  cmp ip, #0

  // Fast path
  bxne ip

  // Slow path
  ldr ip, =229
  push {ip}
  .cfi_adjust_cfa_offset 4
  PUSH_REG(lr)
  bl _libX11_so_save_regs_and_resolve
  POP_REG(lr)
  add sp, #4
  .cfi_adjust_cfa_offset -4
  bx ip

  // Force constant pool for ldr above
  .ltorg

  .cfi_endproc

3:
  .word _libX11_so_tramp_table - (2b + 8) + 916

/*
 * Copyright 2018-2025 Yury Gribov
 *
 * The MIT License (MIT)
 *
 * Use of this source code is governed by MIT license that can be
 * found in the LICENSE.txt file.
 */

  .globl XGetWMProtocols
  .p2align 4
  .type XGetWMProtocols, %function
#ifndef IMPLIB_EXPORT_SHIMS
  .hidden XGetWMProtocols
#endif
XGetWMProtocols:
  .cfi_startproc

1:
  // Load address
  // TODO: can we do this faster on newer ARMs?
  ldr ip, 3f
2:
  add ip, pc, ip
  ldr ip, [ip]

  cmp ip, #0

  // Fast path
  bxne ip

  // Slow path
  ldr ip, =230
  push {ip}
  .cfi_adjust_cfa_offset 4
  PUSH_REG(lr)
  bl _libX11_so_save_regs_and_resolve
  POP_REG(lr)
  add sp, #4
  .cfi_adjust_cfa_offset -4
  bx ip

  // Force constant pool for ldr above
  .ltorg

  .cfi_endproc

3:
  .word _libX11_so_tramp_table - (2b + 8) + 920

/*
 * Copyright 2018-2025 Yury Gribov
 *
 * The MIT License (MIT)
 *
 * Use of this source code is governed by MIT license that can be
 * found in the LICENSE.txt file.
 */

  .globl XGetWMSizeHints
  .p2align 4
  .type XGetWMSizeHints, %function
#ifndef IMPLIB_EXPORT_SHIMS
  .hidden XGetWMSizeHints
#endif
XGetWMSizeHints:
  .cfi_startproc

1:
  // Load address
  // TODO: can we do this faster on newer ARMs?
  ldr ip, 3f
2:
  add ip, pc, ip
  ldr ip, [ip]

  cmp ip, #0

  // Fast path
  bxne ip

  // Slow path
  ldr ip, =231
  push {ip}
  .cfi_adjust_cfa_offset 4
  PUSH_REG(lr)
  bl _libX11_so_save_regs_and_resolve
  POP_REG(lr)
  add sp, #4
  .cfi_adjust_cfa_offset -4
  bx ip

  // Force constant pool for ldr above
  .ltorg

  .cfi_endproc

3:
  .word _libX11_so_tramp_table - (2b + 8) + 924

/*
 * Copyright 2018-2025 Yury Gribov
 *
 * The MIT License (MIT)
 *
 * Use of this source code is governed by MIT license that can be
 * found in the LICENSE.txt file.
 */

  .globl XGetWindowAttributes
  .p2align 4
  .type XGetWindowAttributes, %function
#ifndef IMPLIB_EXPORT_SHIMS
  .hidden XGetWindowAttributes
#endif
XGetWindowAttributes:
  .cfi_startproc

1:
  // Load address
  // TODO: can we do this faster on newer ARMs?
  ldr ip, 3f
2:
  add ip, pc, ip
  ldr ip, [ip]

  cmp ip, #0

  // Fast path
  bxne ip

  // Slow path
  ldr ip, =232
  push {ip}
  .cfi_adjust_cfa_offset 4
  PUSH_REG(lr)
  bl _libX11_so_save_regs_and_resolve
  POP_REG(lr)
  add sp, #4
  .cfi_adjust_cfa_offset -4
  bx ip

  // Force constant pool for ldr above
  .ltorg

  .cfi_endproc

3:
  .word _libX11_so_tramp_table - (2b + 8) + 928

/*
 * Copyright 2018-2025 Yury Gribov
 *
 * The MIT License (MIT)
 *
 * Use of this source code is governed by MIT license that can be
 * found in the LICENSE.txt file.
 */

  .globl XGetWindowProperty
  .p2align 4
  .type XGetWindowProperty, %function
#ifndef IMPLIB_EXPORT_SHIMS
  .hidden XGetWindowProperty
#endif
XGetWindowProperty:
  .cfi_startproc

1:
  // Load address
  // TODO: can we do this faster on newer ARMs?
  ldr ip, 3f
2:
  add ip, pc, ip
  ldr ip, [ip]

  cmp ip, #0

  // Fast path
  bxne ip

  // Slow path
  ldr ip, =233
  push {ip}
  .cfi_adjust_cfa_offset 4
  PUSH_REG(lr)
  bl _libX11_so_save_regs_and_resolve
  POP_REG(lr)
  add sp, #4
  .cfi_adjust_cfa_offset -4
  bx ip

  // Force constant pool for ldr above
  .ltorg

  .cfi_endproc

3:
  .word _libX11_so_tramp_table - (2b + 8) + 932

/*
 * Copyright 2018-2025 Yury Gribov
 *
 * The MIT License (MIT)
 *
 * Use of this source code is governed by MIT license that can be
 * found in the LICENSE.txt file.
 */

  .globl XGetZoomHints
  .p2align 4
  .type XGetZoomHints, %function
#ifndef IMPLIB_EXPORT_SHIMS
  .hidden XGetZoomHints
#endif
XGetZoomHints:
  .cfi_startproc

1:
  // Load address
  // TODO: can we do this faster on newer ARMs?
  ldr ip, 3f
2:
  add ip, pc, ip
  ldr ip, [ip]

  cmp ip, #0

  // Fast path
  bxne ip

  // Slow path
  ldr ip, =234
  push {ip}
  .cfi_adjust_cfa_offset 4
  PUSH_REG(lr)
  bl _libX11_so_save_regs_and_resolve
  POP_REG(lr)
  add sp, #4
  .cfi_adjust_cfa_offset -4
  bx ip

  // Force constant pool for ldr above
  .ltorg

  .cfi_endproc

3:
  .word _libX11_so_tramp_table - (2b + 8) + 936

/*
 * Copyright 2018-2025 Yury Gribov
 *
 * The MIT License (MIT)
 *
 * Use of this source code is governed by MIT license that can be
 * found in the LICENSE.txt file.
 */

  .globl XGrabButton
  .p2align 4
  .type XGrabButton, %function
#ifndef IMPLIB_EXPORT_SHIMS
  .hidden XGrabButton
#endif
XGrabButton:
  .cfi_startproc

1:
  // Load address
  // TODO: can we do this faster on newer ARMs?
  ldr ip, 3f
2:
  add ip, pc, ip
  ldr ip, [ip]

  cmp ip, #0

  // Fast path
  bxne ip

  // Slow path
  ldr ip, =235
  push {ip}
  .cfi_adjust_cfa_offset 4
  PUSH_REG(lr)
  bl _libX11_so_save_regs_and_resolve
  POP_REG(lr)
  add sp, #4
  .cfi_adjust_cfa_offset -4
  bx ip

  // Force constant pool for ldr above
  .ltorg

  .cfi_endproc

3:
  .word _libX11_so_tramp_table - (2b + 8) + 940

/*
 * Copyright 2018-2025 Yury Gribov
 *
 * The MIT License (MIT)
 *
 * Use of this source code is governed by MIT license that can be
 * found in the LICENSE.txt file.
 */

  .globl XGrabKey
  .p2align 4
  .type XGrabKey, %function
#ifndef IMPLIB_EXPORT_SHIMS
  .hidden XGrabKey
#endif
XGrabKey:
  .cfi_startproc

1:
  // Load address
  // TODO: can we do this faster on newer ARMs?
  ldr ip, 3f
2:
  add ip, pc, ip
  ldr ip, [ip]

  cmp ip, #0

  // Fast path
  bxne ip

  // Slow path
  ldr ip, =236
  push {ip}
  .cfi_adjust_cfa_offset 4
  PUSH_REG(lr)
  bl _libX11_so_save_regs_and_resolve
  POP_REG(lr)
  add sp, #4
  .cfi_adjust_cfa_offset -4
  bx ip

  // Force constant pool for ldr above
  .ltorg

  .cfi_endproc

3:
  .word _libX11_so_tramp_table - (2b + 8) + 944

/*
 * Copyright 2018-2025 Yury Gribov
 *
 * The MIT License (MIT)
 *
 * Use of this source code is governed by MIT license that can be
 * found in the LICENSE.txt file.
 */

  .globl XGrabKeyboard
  .p2align 4
  .type XGrabKeyboard, %function
#ifndef IMPLIB_EXPORT_SHIMS
  .hidden XGrabKeyboard
#endif
XGrabKeyboard:
  .cfi_startproc

1:
  // Load address
  // TODO: can we do this faster on newer ARMs?
  ldr ip, 3f
2:
  add ip, pc, ip
  ldr ip, [ip]

  cmp ip, #0

  // Fast path
  bxne ip

  // Slow path
  ldr ip, =237
  push {ip}
  .cfi_adjust_cfa_offset 4
  PUSH_REG(lr)
  bl _libX11_so_save_regs_and_resolve
  POP_REG(lr)
  add sp, #4
  .cfi_adjust_cfa_offset -4
  bx ip

  // Force constant pool for ldr above
  .ltorg

  .cfi_endproc

3:
  .word _libX11_so_tramp_table - (2b + 8) + 948

/*
 * Copyright 2018-2025 Yury Gribov
 *
 * The MIT License (MIT)
 *
 * Use of this source code is governed by MIT license that can be
 * found in the LICENSE.txt file.
 */

  .globl XGrabPointer
  .p2align 4
  .type XGrabPointer, %function
#ifndef IMPLIB_EXPORT_SHIMS
  .hidden XGrabPointer
#endif
XGrabPointer:
  .cfi_startproc

1:
  // Load address
  // TODO: can we do this faster on newer ARMs?
  ldr ip, 3f
2:
  add ip, pc, ip
  ldr ip, [ip]

  cmp ip, #0

  // Fast path
  bxne ip

  // Slow path
  ldr ip, =238
  push {ip}
  .cfi_adjust_cfa_offset 4
  PUSH_REG(lr)
  bl _libX11_so_save_regs_and_resolve
  POP_REG(lr)
  add sp, #4
  .cfi_adjust_cfa_offset -4
  bx ip

  // Force constant pool for ldr above
  .ltorg

  .cfi_endproc

3:
  .word _libX11_so_tramp_table - (2b + 8) + 952

/*
 * Copyright 2018-2025 Yury Gribov
 *
 * The MIT License (MIT)
 *
 * Use of this source code is governed by MIT license that can be
 * found in the LICENSE.txt file.
 */

  .globl XGrabServer
  .p2align 4
  .type XGrabServer, %function
#ifndef IMPLIB_EXPORT_SHIMS
  .hidden XGrabServer
#endif
XGrabServer:
  .cfi_startproc

1:
  // Load address
  // TODO: can we do this faster on newer ARMs?
  ldr ip, 3f
2:
  add ip, pc, ip
  ldr ip, [ip]

  cmp ip, #0

  // Fast path
  bxne ip

  // Slow path
  ldr ip, =239
  push {ip}
  .cfi_adjust_cfa_offset 4
  PUSH_REG(lr)
  bl _libX11_so_save_regs_and_resolve
  POP_REG(lr)
  add sp, #4
  .cfi_adjust_cfa_offset -4
  bx ip

  // Force constant pool for ldr above
  .ltorg

  .cfi_endproc

3:
  .word _libX11_so_tramp_table - (2b + 8) + 956

/*
 * Copyright 2018-2025 Yury Gribov
 *
 * The MIT License (MIT)
 *
 * Use of this source code is governed by MIT license that can be
 * found in the LICENSE.txt file.
 */

  .globl XHeightMMOfScreen
  .p2align 4
  .type XHeightMMOfScreen, %function
#ifndef IMPLIB_EXPORT_SHIMS
  .hidden XHeightMMOfScreen
#endif
XHeightMMOfScreen:
  .cfi_startproc

1:
  // Load address
  // TODO: can we do this faster on newer ARMs?
  ldr ip, 3f
2:
  add ip, pc, ip
  ldr ip, [ip]

  cmp ip, #0

  // Fast path
  bxne ip

  // Slow path
  ldr ip, =240
  push {ip}
  .cfi_adjust_cfa_offset 4
  PUSH_REG(lr)
  bl _libX11_so_save_regs_and_resolve
  POP_REG(lr)
  add sp, #4
  .cfi_adjust_cfa_offset -4
  bx ip

  // Force constant pool for ldr above
  .ltorg

  .cfi_endproc

3:
  .word _libX11_so_tramp_table - (2b + 8) + 960

/*
 * Copyright 2018-2025 Yury Gribov
 *
 * The MIT License (MIT)
 *
 * Use of this source code is governed by MIT license that can be
 * found in the LICENSE.txt file.
 */

  .globl XHeightOfScreen
  .p2align 4
  .type XHeightOfScreen, %function
#ifndef IMPLIB_EXPORT_SHIMS
  .hidden XHeightOfScreen
#endif
XHeightOfScreen:
  .cfi_startproc

1:
  // Load address
  // TODO: can we do this faster on newer ARMs?
  ldr ip, 3f
2:
  add ip, pc, ip
  ldr ip, [ip]

  cmp ip, #0

  // Fast path
  bxne ip

  // Slow path
  ldr ip, =241
  push {ip}
  .cfi_adjust_cfa_offset 4
  PUSH_REG(lr)
  bl _libX11_so_save_regs_and_resolve
  POP_REG(lr)
  add sp, #4
  .cfi_adjust_cfa_offset -4
  bx ip

  // Force constant pool for ldr above
  .ltorg

  .cfi_endproc

3:
  .word _libX11_so_tramp_table - (2b + 8) + 964

/*
 * Copyright 2018-2025 Yury Gribov
 *
 * The MIT License (MIT)
 *
 * Use of this source code is governed by MIT license that can be
 * found in the LICENSE.txt file.
 */

  .globl XIMOfIC
  .p2align 4
  .type XIMOfIC, %function
#ifndef IMPLIB_EXPORT_SHIMS
  .hidden XIMOfIC
#endif
XIMOfIC:
  .cfi_startproc

1:
  // Load address
  // TODO: can we do this faster on newer ARMs?
  ldr ip, 3f
2:
  add ip, pc, ip
  ldr ip, [ip]

  cmp ip, #0

  // Fast path
  bxne ip

  // Slow path
  ldr ip, =242
  push {ip}
  .cfi_adjust_cfa_offset 4
  PUSH_REG(lr)
  bl _libX11_so_save_regs_and_resolve
  POP_REG(lr)
  add sp, #4
  .cfi_adjust_cfa_offset -4
  bx ip

  // Force constant pool for ldr above
  .ltorg

  .cfi_endproc

3:
  .word _libX11_so_tramp_table - (2b + 8) + 968

/*
 * Copyright 2018-2025 Yury Gribov
 *
 * The MIT License (MIT)
 *
 * Use of this source code is governed by MIT license that can be
 * found in the LICENSE.txt file.
 */

  .globl XIconifyWindow
  .p2align 4
  .type XIconifyWindow, %function
#ifndef IMPLIB_EXPORT_SHIMS
  .hidden XIconifyWindow
#endif
XIconifyWindow:
  .cfi_startproc

1:
  // Load address
  // TODO: can we do this faster on newer ARMs?
  ldr ip, 3f
2:
  add ip, pc, ip
  ldr ip, [ip]

  cmp ip, #0

  // Fast path
  bxne ip

  // Slow path
  ldr ip, =243
  push {ip}
  .cfi_adjust_cfa_offset 4
  PUSH_REG(lr)
  bl _libX11_so_save_regs_and_resolve
  POP_REG(lr)
  add sp, #4
  .cfi_adjust_cfa_offset -4
  bx ip

  // Force constant pool for ldr above
  .ltorg

  .cfi_endproc

3:
  .word _libX11_so_tramp_table - (2b + 8) + 972

/*
 * Copyright 2018-2025 Yury Gribov
 *
 * The MIT License (MIT)
 *
 * Use of this source code is governed by MIT license that can be
 * found in the LICENSE.txt file.
 */

  .globl XIfEvent
  .p2align 4
  .type XIfEvent, %function
#ifndef IMPLIB_EXPORT_SHIMS
  .hidden XIfEvent
#endif
XIfEvent:
  .cfi_startproc

1:
  // Load address
  // TODO: can we do this faster on newer ARMs?
  ldr ip, 3f
2:
  add ip, pc, ip
  ldr ip, [ip]

  cmp ip, #0

  // Fast path
  bxne ip

  // Slow path
  ldr ip, =244
  push {ip}
  .cfi_adjust_cfa_offset 4
  PUSH_REG(lr)
  bl _libX11_so_save_regs_and_resolve
  POP_REG(lr)
  add sp, #4
  .cfi_adjust_cfa_offset -4
  bx ip

  // Force constant pool for ldr above
  .ltorg

  .cfi_endproc

3:
  .word _libX11_so_tramp_table - (2b + 8) + 976

/*
 * Copyright 2018-2025 Yury Gribov
 *
 * The MIT License (MIT)
 *
 * Use of this source code is governed by MIT license that can be
 * found in the LICENSE.txt file.
 */

  .globl XImageByteOrder
  .p2align 4
  .type XImageByteOrder, %function
#ifndef IMPLIB_EXPORT_SHIMS
  .hidden XImageByteOrder
#endif
XImageByteOrder:
  .cfi_startproc

1:
  // Load address
  // TODO: can we do this faster on newer ARMs?
  ldr ip, 3f
2:
  add ip, pc, ip
  ldr ip, [ip]

  cmp ip, #0

  // Fast path
  bxne ip

  // Slow path
  ldr ip, =245
  push {ip}
  .cfi_adjust_cfa_offset 4
  PUSH_REG(lr)
  bl _libX11_so_save_regs_and_resolve
  POP_REG(lr)
  add sp, #4
  .cfi_adjust_cfa_offset -4
  bx ip

  // Force constant pool for ldr above
  .ltorg

  .cfi_endproc

3:
  .word _libX11_so_tramp_table - (2b + 8) + 980

/*
 * Copyright 2018-2025 Yury Gribov
 *
 * The MIT License (MIT)
 *
 * Use of this source code is governed by MIT license that can be
 * found in the LICENSE.txt file.
 */

  .globl XInitExtension
  .p2align 4
  .type XInitExtension, %function
#ifndef IMPLIB_EXPORT_SHIMS
  .hidden XInitExtension
#endif
XInitExtension:
  .cfi_startproc

1:
  // Load address
  // TODO: can we do this faster on newer ARMs?
  ldr ip, 3f
2:
  add ip, pc, ip
  ldr ip, [ip]

  cmp ip, #0

  // Fast path
  bxne ip

  // Slow path
  ldr ip, =246
  push {ip}
  .cfi_adjust_cfa_offset 4
  PUSH_REG(lr)
  bl _libX11_so_save_regs_and_resolve
  POP_REG(lr)
  add sp, #4
  .cfi_adjust_cfa_offset -4
  bx ip

  // Force constant pool for ldr above
  .ltorg

  .cfi_endproc

3:
  .word _libX11_so_tramp_table - (2b + 8) + 984

/*
 * Copyright 2018-2025 Yury Gribov
 *
 * The MIT License (MIT)
 *
 * Use of this source code is governed by MIT license that can be
 * found in the LICENSE.txt file.
 */

  .globl XInitImage
  .p2align 4
  .type XInitImage, %function
#ifndef IMPLIB_EXPORT_SHIMS
  .hidden XInitImage
#endif
XInitImage:
  .cfi_startproc

1:
  // Load address
  // TODO: can we do this faster on newer ARMs?
  ldr ip, 3f
2:
  add ip, pc, ip
  ldr ip, [ip]

  cmp ip, #0

  // Fast path
  bxne ip

  // Slow path
  ldr ip, =247
  push {ip}
  .cfi_adjust_cfa_offset 4
  PUSH_REG(lr)
  bl _libX11_so_save_regs_and_resolve
  POP_REG(lr)
  add sp, #4
  .cfi_adjust_cfa_offset -4
  bx ip

  // Force constant pool for ldr above
  .ltorg

  .cfi_endproc

3:
  .word _libX11_so_tramp_table - (2b + 8) + 988

/*
 * Copyright 2018-2025 Yury Gribov
 *
 * The MIT License (MIT)
 *
 * Use of this source code is governed by MIT license that can be
 * found in the LICENSE.txt file.
 */

  .globl XInitThreads
  .p2align 4
  .type XInitThreads, %function
#ifndef IMPLIB_EXPORT_SHIMS
  .hidden XInitThreads
#endif
XInitThreads:
  .cfi_startproc

1:
  // Load address
  // TODO: can we do this faster on newer ARMs?
  ldr ip, 3f
2:
  add ip, pc, ip
  ldr ip, [ip]

  cmp ip, #0

  // Fast path
  bxne ip

  // Slow path
  ldr ip, =248
  push {ip}
  .cfi_adjust_cfa_offset 4
  PUSH_REG(lr)
  bl _libX11_so_save_regs_and_resolve
  POP_REG(lr)
  add sp, #4
  .cfi_adjust_cfa_offset -4
  bx ip

  // Force constant pool for ldr above
  .ltorg

  .cfi_endproc

3:
  .word _libX11_so_tramp_table - (2b + 8) + 992

/*
 * Copyright 2018-2025 Yury Gribov
 *
 * The MIT License (MIT)
 *
 * Use of this source code is governed by MIT license that can be
 * found in the LICENSE.txt file.
 */

  .globl XInsertModifiermapEntry
  .p2align 4
  .type XInsertModifiermapEntry, %function
#ifndef IMPLIB_EXPORT_SHIMS
  .hidden XInsertModifiermapEntry
#endif
XInsertModifiermapEntry:
  .cfi_startproc

1:
  // Load address
  // TODO: can we do this faster on newer ARMs?
  ldr ip, 3f
2:
  add ip, pc, ip
  ldr ip, [ip]

  cmp ip, #0

  // Fast path
  bxne ip

  // Slow path
  ldr ip, =249
  push {ip}
  .cfi_adjust_cfa_offset 4
  PUSH_REG(lr)
  bl _libX11_so_save_regs_and_resolve
  POP_REG(lr)
  add sp, #4
  .cfi_adjust_cfa_offset -4
  bx ip

  // Force constant pool for ldr above
  .ltorg

  .cfi_endproc

3:
  .word _libX11_so_tramp_table - (2b + 8) + 996

/*
 * Copyright 2018-2025 Yury Gribov
 *
 * The MIT License (MIT)
 *
 * Use of this source code is governed by MIT license that can be
 * found in the LICENSE.txt file.
 */

  .globl XInstallColormap
  .p2align 4
  .type XInstallColormap, %function
#ifndef IMPLIB_EXPORT_SHIMS
  .hidden XInstallColormap
#endif
XInstallColormap:
  .cfi_startproc

1:
  // Load address
  // TODO: can we do this faster on newer ARMs?
  ldr ip, 3f
2:
  add ip, pc, ip
  ldr ip, [ip]

  cmp ip, #0

  // Fast path
  bxne ip

  // Slow path
  ldr ip, =250
  push {ip}
  .cfi_adjust_cfa_offset 4
  PUSH_REG(lr)
  bl _libX11_so_save_regs_and_resolve
  POP_REG(lr)
  add sp, #4
  .cfi_adjust_cfa_offset -4
  bx ip

  // Force constant pool for ldr above
  .ltorg

  .cfi_endproc

3:
  .word _libX11_so_tramp_table - (2b + 8) + 1000

/*
 * Copyright 2018-2025 Yury Gribov
 *
 * The MIT License (MIT)
 *
 * Use of this source code is governed by MIT license that can be
 * found in the LICENSE.txt file.
 */

  .globl XInternAtom
  .p2align 4
  .type XInternAtom, %function
#ifndef IMPLIB_EXPORT_SHIMS
  .hidden XInternAtom
#endif
XInternAtom:
  .cfi_startproc

1:
  // Load address
  // TODO: can we do this faster on newer ARMs?
  ldr ip, 3f
2:
  add ip, pc, ip
  ldr ip, [ip]

  cmp ip, #0

  // Fast path
  bxne ip

  // Slow path
  ldr ip, =251
  push {ip}
  .cfi_adjust_cfa_offset 4
  PUSH_REG(lr)
  bl _libX11_so_save_regs_and_resolve
  POP_REG(lr)
  add sp, #4
  .cfi_adjust_cfa_offset -4
  bx ip

  // Force constant pool for ldr above
  .ltorg

  .cfi_endproc

3:
  .word _libX11_so_tramp_table - (2b + 8) + 1004

/*
 * Copyright 2018-2025 Yury Gribov
 *
 * The MIT License (MIT)
 *
 * Use of this source code is governed by MIT license that can be
 * found in the LICENSE.txt file.
 */

  .globl XInternAtoms
  .p2align 4
  .type XInternAtoms, %function
#ifndef IMPLIB_EXPORT_SHIMS
  .hidden XInternAtoms
#endif
XInternAtoms:
  .cfi_startproc

1:
  // Load address
  // TODO: can we do this faster on newer ARMs?
  ldr ip, 3f
2:
  add ip, pc, ip
  ldr ip, [ip]

  cmp ip, #0

  // Fast path
  bxne ip

  // Slow path
  ldr ip, =252
  push {ip}
  .cfi_adjust_cfa_offset 4
  PUSH_REG(lr)
  bl _libX11_so_save_regs_and_resolve
  POP_REG(lr)
  add sp, #4
  .cfi_adjust_cfa_offset -4
  bx ip

  // Force constant pool for ldr above
  .ltorg

  .cfi_endproc

3:
  .word _libX11_so_tramp_table - (2b + 8) + 1008

/*
 * Copyright 2018-2025 Yury Gribov
 *
 * The MIT License (MIT)
 *
 * Use of this source code is governed by MIT license that can be
 * found in the LICENSE.txt file.
 */

  .globl XInternalConnectionNumbers
  .p2align 4
  .type XInternalConnectionNumbers, %function
#ifndef IMPLIB_EXPORT_SHIMS
  .hidden XInternalConnectionNumbers
#endif
XInternalConnectionNumbers:
  .cfi_startproc

1:
  // Load address
  // TODO: can we do this faster on newer ARMs?
  ldr ip, 3f
2:
  add ip, pc, ip
  ldr ip, [ip]

  cmp ip, #0

  // Fast path
  bxne ip

  // Slow path
  ldr ip, =253
  push {ip}
  .cfi_adjust_cfa_offset 4
  PUSH_REG(lr)
  bl _libX11_so_save_regs_and_resolve
  POP_REG(lr)
  add sp, #4
  .cfi_adjust_cfa_offset -4
  bx ip

  // Force constant pool for ldr above
  .ltorg

  .cfi_endproc

3:
  .word _libX11_so_tramp_table - (2b + 8) + 1012

/*
 * Copyright 2018-2025 Yury Gribov
 *
 * The MIT License (MIT)
 *
 * Use of this source code is governed by MIT license that can be
 * found in the LICENSE.txt file.
 */

  .globl XIntersectRegion
  .p2align 4
  .type XIntersectRegion, %function
#ifndef IMPLIB_EXPORT_SHIMS
  .hidden XIntersectRegion
#endif
XIntersectRegion:
  .cfi_startproc

1:
  // Load address
  // TODO: can we do this faster on newer ARMs?
  ldr ip, 3f
2:
  add ip, pc, ip
  ldr ip, [ip]

  cmp ip, #0

  // Fast path
  bxne ip

  // Slow path
  ldr ip, =254
  push {ip}
  .cfi_adjust_cfa_offset 4
  PUSH_REG(lr)
  bl _libX11_so_save_regs_and_resolve
  POP_REG(lr)
  add sp, #4
  .cfi_adjust_cfa_offset -4
  bx ip

  // Force constant pool for ldr above
  .ltorg

  .cfi_endproc

3:
  .word _libX11_so_tramp_table - (2b + 8) + 1016

/*
 * Copyright 2018-2025 Yury Gribov
 *
 * The MIT License (MIT)
 *
 * Use of this source code is governed by MIT license that can be
 * found in the LICENSE.txt file.
 */

  .globl XKeycodeToKeysym
  .p2align 4
  .type XKeycodeToKeysym, %function
#ifndef IMPLIB_EXPORT_SHIMS
  .hidden XKeycodeToKeysym
#endif
XKeycodeToKeysym:
  .cfi_startproc

1:
  // Load address
  // TODO: can we do this faster on newer ARMs?
  ldr ip, 3f
2:
  add ip, pc, ip
  ldr ip, [ip]

  cmp ip, #0

  // Fast path
  bxne ip

  // Slow path
  ldr ip, =255
  push {ip}
  .cfi_adjust_cfa_offset 4
  PUSH_REG(lr)
  bl _libX11_so_save_regs_and_resolve
  POP_REG(lr)
  add sp, #4
  .cfi_adjust_cfa_offset -4
  bx ip

  // Force constant pool for ldr above
  .ltorg

  .cfi_endproc

3:
  .word _libX11_so_tramp_table - (2b + 8) + 1020

/*
 * Copyright 2018-2025 Yury Gribov
 *
 * The MIT License (MIT)
 *
 * Use of this source code is governed by MIT license that can be
 * found in the LICENSE.txt file.
 */

  .globl XKeysymToKeycode
  .p2align 4
  .type XKeysymToKeycode, %function
#ifndef IMPLIB_EXPORT_SHIMS
  .hidden XKeysymToKeycode
#endif
XKeysymToKeycode:
  .cfi_startproc

1:
  // Load address
  // TODO: can we do this faster on newer ARMs?
  ldr ip, 3f
2:
  add ip, pc, ip
  ldr ip, [ip]

  cmp ip, #0

  // Fast path
  bxne ip

  // Slow path
  ldr ip, =256
  push {ip}
  .cfi_adjust_cfa_offset 4
  PUSH_REG(lr)
  bl _libX11_so_save_regs_and_resolve
  POP_REG(lr)
  add sp, #4
  .cfi_adjust_cfa_offset -4
  bx ip

  // Force constant pool for ldr above
  .ltorg

  .cfi_endproc

3:
  .word _libX11_so_tramp_table - (2b + 8) + 1024

/*
 * Copyright 2018-2025 Yury Gribov
 *
 * The MIT License (MIT)
 *
 * Use of this source code is governed by MIT license that can be
 * found in the LICENSE.txt file.
 */

  .globl XKeysymToString
  .p2align 4
  .type XKeysymToString, %function
#ifndef IMPLIB_EXPORT_SHIMS
  .hidden XKeysymToString
#endif
XKeysymToString:
  .cfi_startproc

1:
  // Load address
  // TODO: can we do this faster on newer ARMs?
  ldr ip, 3f
2:
  add ip, pc, ip
  ldr ip, [ip]

  cmp ip, #0

  // Fast path
  bxne ip

  // Slow path
  ldr ip, =257
  push {ip}
  .cfi_adjust_cfa_offset 4
  PUSH_REG(lr)
  bl _libX11_so_save_regs_and_resolve
  POP_REG(lr)
  add sp, #4
  .cfi_adjust_cfa_offset -4
  bx ip

  // Force constant pool for ldr above
  .ltorg

  .cfi_endproc

3:
  .word _libX11_so_tramp_table - (2b + 8) + 1028

/*
 * Copyright 2018-2025 Yury Gribov
 *
 * The MIT License (MIT)
 *
 * Use of this source code is governed by MIT license that can be
 * found in the LICENSE.txt file.
 */

  .globl XKillClient
  .p2align 4
  .type XKillClient, %function
#ifndef IMPLIB_EXPORT_SHIMS
  .hidden XKillClient
#endif
XKillClient:
  .cfi_startproc

1:
  // Load address
  // TODO: can we do this faster on newer ARMs?
  ldr ip, 3f
2:
  add ip, pc, ip
  ldr ip, [ip]

  cmp ip, #0

  // Fast path
  bxne ip

  // Slow path
  ldr ip, =258
  push {ip}
  .cfi_adjust_cfa_offset 4
  PUSH_REG(lr)
  bl _libX11_so_save_regs_and_resolve
  POP_REG(lr)
  add sp, #4
  .cfi_adjust_cfa_offset -4
  bx ip

  // Force constant pool for ldr above
  .ltorg

  .cfi_endproc

3:
  .word _libX11_so_tramp_table - (2b + 8) + 1032

/*
 * Copyright 2018-2025 Yury Gribov
 *
 * The MIT License (MIT)
 *
 * Use of this source code is governed by MIT license that can be
 * found in the LICENSE.txt file.
 */

  .globl XLastKnownRequestProcessed
  .p2align 4
  .type XLastKnownRequestProcessed, %function
#ifndef IMPLIB_EXPORT_SHIMS
  .hidden XLastKnownRequestProcessed
#endif
XLastKnownRequestProcessed:
  .cfi_startproc

1:
  // Load address
  // TODO: can we do this faster on newer ARMs?
  ldr ip, 3f
2:
  add ip, pc, ip
  ldr ip, [ip]

  cmp ip, #0

  // Fast path
  bxne ip

  // Slow path
  ldr ip, =259
  push {ip}
  .cfi_adjust_cfa_offset 4
  PUSH_REG(lr)
  bl _libX11_so_save_regs_and_resolve
  POP_REG(lr)
  add sp, #4
  .cfi_adjust_cfa_offset -4
  bx ip

  // Force constant pool for ldr above
  .ltorg

  .cfi_endproc

3:
  .word _libX11_so_tramp_table - (2b + 8) + 1036

/*
 * Copyright 2018-2025 Yury Gribov
 *
 * The MIT License (MIT)
 *
 * Use of this source code is governed by MIT license that can be
 * found in the LICENSE.txt file.
 */

  .globl XListDepths
  .p2align 4
  .type XListDepths, %function
#ifndef IMPLIB_EXPORT_SHIMS
  .hidden XListDepths
#endif
XListDepths:
  .cfi_startproc

1:
  // Load address
  // TODO: can we do this faster on newer ARMs?
  ldr ip, 3f
2:
  add ip, pc, ip
  ldr ip, [ip]

  cmp ip, #0

  // Fast path
  bxne ip

  // Slow path
  ldr ip, =260
  push {ip}
  .cfi_adjust_cfa_offset 4
  PUSH_REG(lr)
  bl _libX11_so_save_regs_and_resolve
  POP_REG(lr)
  add sp, #4
  .cfi_adjust_cfa_offset -4
  bx ip

  // Force constant pool for ldr above
  .ltorg

  .cfi_endproc

3:
  .word _libX11_so_tramp_table - (2b + 8) + 1040

/*
 * Copyright 2018-2025 Yury Gribov
 *
 * The MIT License (MIT)
 *
 * Use of this source code is governed by MIT license that can be
 * found in the LICENSE.txt file.
 */

  .globl XListExtensions
  .p2align 4
  .type XListExtensions, %function
#ifndef IMPLIB_EXPORT_SHIMS
  .hidden XListExtensions
#endif
XListExtensions:
  .cfi_startproc

1:
  // Load address
  // TODO: can we do this faster on newer ARMs?
  ldr ip, 3f
2:
  add ip, pc, ip
  ldr ip, [ip]

  cmp ip, #0

  // Fast path
  bxne ip

  // Slow path
  ldr ip, =261
  push {ip}
  .cfi_adjust_cfa_offset 4
  PUSH_REG(lr)
  bl _libX11_so_save_regs_and_resolve
  POP_REG(lr)
  add sp, #4
  .cfi_adjust_cfa_offset -4
  bx ip

  // Force constant pool for ldr above
  .ltorg

  .cfi_endproc

3:
  .word _libX11_so_tramp_table - (2b + 8) + 1044

/*
 * Copyright 2018-2025 Yury Gribov
 *
 * The MIT License (MIT)
 *
 * Use of this source code is governed by MIT license that can be
 * found in the LICENSE.txt file.
 */

  .globl XListFonts
  .p2align 4
  .type XListFonts, %function
#ifndef IMPLIB_EXPORT_SHIMS
  .hidden XListFonts
#endif
XListFonts:
  .cfi_startproc

1:
  // Load address
  // TODO: can we do this faster on newer ARMs?
  ldr ip, 3f
2:
  add ip, pc, ip
  ldr ip, [ip]

  cmp ip, #0

  // Fast path
  bxne ip

  // Slow path
  ldr ip, =262
  push {ip}
  .cfi_adjust_cfa_offset 4
  PUSH_REG(lr)
  bl _libX11_so_save_regs_and_resolve
  POP_REG(lr)
  add sp, #4
  .cfi_adjust_cfa_offset -4
  bx ip

  // Force constant pool for ldr above
  .ltorg

  .cfi_endproc

3:
  .word _libX11_so_tramp_table - (2b + 8) + 1048

/*
 * Copyright 2018-2025 Yury Gribov
 *
 * The MIT License (MIT)
 *
 * Use of this source code is governed by MIT license that can be
 * found in the LICENSE.txt file.
 */

  .globl XListFontsWithInfo
  .p2align 4
  .type XListFontsWithInfo, %function
#ifndef IMPLIB_EXPORT_SHIMS
  .hidden XListFontsWithInfo
#endif
XListFontsWithInfo:
  .cfi_startproc

1:
  // Load address
  // TODO: can we do this faster on newer ARMs?
  ldr ip, 3f
2:
  add ip, pc, ip
  ldr ip, [ip]

  cmp ip, #0

  // Fast path
  bxne ip

  // Slow path
  ldr ip, =263
  push {ip}
  .cfi_adjust_cfa_offset 4
  PUSH_REG(lr)
  bl _libX11_so_save_regs_and_resolve
  POP_REG(lr)
  add sp, #4
  .cfi_adjust_cfa_offset -4
  bx ip

  // Force constant pool for ldr above
  .ltorg

  .cfi_endproc

3:
  .word _libX11_so_tramp_table - (2b + 8) + 1052

/*
 * Copyright 2018-2025 Yury Gribov
 *
 * The MIT License (MIT)
 *
 * Use of this source code is governed by MIT license that can be
 * found in the LICENSE.txt file.
 */

  .globl XListHosts
  .p2align 4
  .type XListHosts, %function
#ifndef IMPLIB_EXPORT_SHIMS
  .hidden XListHosts
#endif
XListHosts:
  .cfi_startproc

1:
  // Load address
  // TODO: can we do this faster on newer ARMs?
  ldr ip, 3f
2:
  add ip, pc, ip
  ldr ip, [ip]

  cmp ip, #0

  // Fast path
  bxne ip

  // Slow path
  ldr ip, =264
  push {ip}
  .cfi_adjust_cfa_offset 4
  PUSH_REG(lr)
  bl _libX11_so_save_regs_and_resolve
  POP_REG(lr)
  add sp, #4
  .cfi_adjust_cfa_offset -4
  bx ip

  // Force constant pool for ldr above
  .ltorg

  .cfi_endproc

3:
  .word _libX11_so_tramp_table - (2b + 8) + 1056

/*
 * Copyright 2018-2025 Yury Gribov
 *
 * The MIT License (MIT)
 *
 * Use of this source code is governed by MIT license that can be
 * found in the LICENSE.txt file.
 */

  .globl XListInstalledColormaps
  .p2align 4
  .type XListInstalledColormaps, %function
#ifndef IMPLIB_EXPORT_SHIMS
  .hidden XListInstalledColormaps
#endif
XListInstalledColormaps:
  .cfi_startproc

1:
  // Load address
  // TODO: can we do this faster on newer ARMs?
  ldr ip, 3f
2:
  add ip, pc, ip
  ldr ip, [ip]

  cmp ip, #0

  // Fast path
  bxne ip

  // Slow path
  ldr ip, =265
  push {ip}
  .cfi_adjust_cfa_offset 4
  PUSH_REG(lr)
  bl _libX11_so_save_regs_and_resolve
  POP_REG(lr)
  add sp, #4
  .cfi_adjust_cfa_offset -4
  bx ip

  // Force constant pool for ldr above
  .ltorg

  .cfi_endproc

3:
  .word _libX11_so_tramp_table - (2b + 8) + 1060

/*
 * Copyright 2018-2025 Yury Gribov
 *
 * The MIT License (MIT)
 *
 * Use of this source code is governed by MIT license that can be
 * found in the LICENSE.txt file.
 */

  .globl XListPixmapFormats
  .p2align 4
  .type XListPixmapFormats, %function
#ifndef IMPLIB_EXPORT_SHIMS
  .hidden XListPixmapFormats
#endif
XListPixmapFormats:
  .cfi_startproc

1:
  // Load address
  // TODO: can we do this faster on newer ARMs?
  ldr ip, 3f
2:
  add ip, pc, ip
  ldr ip, [ip]

  cmp ip, #0

  // Fast path
  bxne ip

  // Slow path
  ldr ip, =266
  push {ip}
  .cfi_adjust_cfa_offset 4
  PUSH_REG(lr)
  bl _libX11_so_save_regs_and_resolve
  POP_REG(lr)
  add sp, #4
  .cfi_adjust_cfa_offset -4
  bx ip

  // Force constant pool for ldr above
  .ltorg

  .cfi_endproc

3:
  .word _libX11_so_tramp_table - (2b + 8) + 1064

/*
 * Copyright 2018-2025 Yury Gribov
 *
 * The MIT License (MIT)
 *
 * Use of this source code is governed by MIT license that can be
 * found in the LICENSE.txt file.
 */

  .globl XListProperties
  .p2align 4
  .type XListProperties, %function
#ifndef IMPLIB_EXPORT_SHIMS
  .hidden XListProperties
#endif
XListProperties:
  .cfi_startproc

1:
  // Load address
  // TODO: can we do this faster on newer ARMs?
  ldr ip, 3f
2:
  add ip, pc, ip
  ldr ip, [ip]

  cmp ip, #0

  // Fast path
  bxne ip

  // Slow path
  ldr ip, =267
  push {ip}
  .cfi_adjust_cfa_offset 4
  PUSH_REG(lr)
  bl _libX11_so_save_regs_and_resolve
  POP_REG(lr)
  add sp, #4
  .cfi_adjust_cfa_offset -4
  bx ip

  // Force constant pool for ldr above
  .ltorg

  .cfi_endproc

3:
  .word _libX11_so_tramp_table - (2b + 8) + 1068

/*
 * Copyright 2018-2025 Yury Gribov
 *
 * The MIT License (MIT)
 *
 * Use of this source code is governed by MIT license that can be
 * found in the LICENSE.txt file.
 */

  .globl XLoadFont
  .p2align 4
  .type XLoadFont, %function
#ifndef IMPLIB_EXPORT_SHIMS
  .hidden XLoadFont
#endif
XLoadFont:
  .cfi_startproc

1:
  // Load address
  // TODO: can we do this faster on newer ARMs?
  ldr ip, 3f
2:
  add ip, pc, ip
  ldr ip, [ip]

  cmp ip, #0

  // Fast path
  bxne ip

  // Slow path
  ldr ip, =268
  push {ip}
  .cfi_adjust_cfa_offset 4
  PUSH_REG(lr)
  bl _libX11_so_save_regs_and_resolve
  POP_REG(lr)
  add sp, #4
  .cfi_adjust_cfa_offset -4
  bx ip

  // Force constant pool for ldr above
  .ltorg

  .cfi_endproc

3:
  .word _libX11_so_tramp_table - (2b + 8) + 1072

/*
 * Copyright 2018-2025 Yury Gribov
 *
 * The MIT License (MIT)
 *
 * Use of this source code is governed by MIT license that can be
 * found in the LICENSE.txt file.
 */

  .globl XLoadQueryFont
  .p2align 4
  .type XLoadQueryFont, %function
#ifndef IMPLIB_EXPORT_SHIMS
  .hidden XLoadQueryFont
#endif
XLoadQueryFont:
  .cfi_startproc

1:
  // Load address
  // TODO: can we do this faster on newer ARMs?
  ldr ip, 3f
2:
  add ip, pc, ip
  ldr ip, [ip]

  cmp ip, #0

  // Fast path
  bxne ip

  // Slow path
  ldr ip, =269
  push {ip}
  .cfi_adjust_cfa_offset 4
  PUSH_REG(lr)
  bl _libX11_so_save_regs_and_resolve
  POP_REG(lr)
  add sp, #4
  .cfi_adjust_cfa_offset -4
  bx ip

  // Force constant pool for ldr above
  .ltorg

  .cfi_endproc

3:
  .word _libX11_so_tramp_table - (2b + 8) + 1076

/*
 * Copyright 2018-2025 Yury Gribov
 *
 * The MIT License (MIT)
 *
 * Use of this source code is governed by MIT license that can be
 * found in the LICENSE.txt file.
 */

  .globl XLocaleOfFontSet
  .p2align 4
  .type XLocaleOfFontSet, %function
#ifndef IMPLIB_EXPORT_SHIMS
  .hidden XLocaleOfFontSet
#endif
XLocaleOfFontSet:
  .cfi_startproc

1:
  // Load address
  // TODO: can we do this faster on newer ARMs?
  ldr ip, 3f
2:
  add ip, pc, ip
  ldr ip, [ip]

  cmp ip, #0

  // Fast path
  bxne ip

  // Slow path
  ldr ip, =270
  push {ip}
  .cfi_adjust_cfa_offset 4
  PUSH_REG(lr)
  bl _libX11_so_save_regs_and_resolve
  POP_REG(lr)
  add sp, #4
  .cfi_adjust_cfa_offset -4
  bx ip

  // Force constant pool for ldr above
  .ltorg

  .cfi_endproc

3:
  .word _libX11_so_tramp_table - (2b + 8) + 1080

/*
 * Copyright 2018-2025 Yury Gribov
 *
 * The MIT License (MIT)
 *
 * Use of this source code is governed by MIT license that can be
 * found in the LICENSE.txt file.
 */

  .globl XLocaleOfIM
  .p2align 4
  .type XLocaleOfIM, %function
#ifndef IMPLIB_EXPORT_SHIMS
  .hidden XLocaleOfIM
#endif
XLocaleOfIM:
  .cfi_startproc

1:
  // Load address
  // TODO: can we do this faster on newer ARMs?
  ldr ip, 3f
2:
  add ip, pc, ip
  ldr ip, [ip]

  cmp ip, #0

  // Fast path
  bxne ip

  // Slow path
  ldr ip, =271
  push {ip}
  .cfi_adjust_cfa_offset 4
  PUSH_REG(lr)
  bl _libX11_so_save_regs_and_resolve
  POP_REG(lr)
  add sp, #4
  .cfi_adjust_cfa_offset -4
  bx ip

  // Force constant pool for ldr above
  .ltorg

  .cfi_endproc

3:
  .word _libX11_so_tramp_table - (2b + 8) + 1084

/*
 * Copyright 2018-2025 Yury Gribov
 *
 * The MIT License (MIT)
 *
 * Use of this source code is governed by MIT license that can be
 * found in the LICENSE.txt file.
 */

  .globl XLocaleOfOM
  .p2align 4
  .type XLocaleOfOM, %function
#ifndef IMPLIB_EXPORT_SHIMS
  .hidden XLocaleOfOM
#endif
XLocaleOfOM:
  .cfi_startproc

1:
  // Load address
  // TODO: can we do this faster on newer ARMs?
  ldr ip, 3f
2:
  add ip, pc, ip
  ldr ip, [ip]

  cmp ip, #0

  // Fast path
  bxne ip

  // Slow path
  ldr ip, =272
  push {ip}
  .cfi_adjust_cfa_offset 4
  PUSH_REG(lr)
  bl _libX11_so_save_regs_and_resolve
  POP_REG(lr)
  add sp, #4
  .cfi_adjust_cfa_offset -4
  bx ip

  // Force constant pool for ldr above
  .ltorg

  .cfi_endproc

3:
  .word _libX11_so_tramp_table - (2b + 8) + 1088

/*
 * Copyright 2018-2025 Yury Gribov
 *
 * The MIT License (MIT)
 *
 * Use of this source code is governed by MIT license that can be
 * found in the LICENSE.txt file.
 */

  .globl XLockDisplay
  .p2align 4
  .type XLockDisplay, %function
#ifndef IMPLIB_EXPORT_SHIMS
  .hidden XLockDisplay
#endif
XLockDisplay:
  .cfi_startproc

1:
  // Load address
  // TODO: can we do this faster on newer ARMs?
  ldr ip, 3f
2:
  add ip, pc, ip
  ldr ip, [ip]

  cmp ip, #0

  // Fast path
  bxne ip

  // Slow path
  ldr ip, =273
  push {ip}
  .cfi_adjust_cfa_offset 4
  PUSH_REG(lr)
  bl _libX11_so_save_regs_and_resolve
  POP_REG(lr)
  add sp, #4
  .cfi_adjust_cfa_offset -4
  bx ip

  // Force constant pool for ldr above
  .ltorg

  .cfi_endproc

3:
  .word _libX11_so_tramp_table - (2b + 8) + 1092

/*
 * Copyright 2018-2025 Yury Gribov
 *
 * The MIT License (MIT)
 *
 * Use of this source code is governed by MIT license that can be
 * found in the LICENSE.txt file.
 */

  .globl XLookupColor
  .p2align 4
  .type XLookupColor, %function
#ifndef IMPLIB_EXPORT_SHIMS
  .hidden XLookupColor
#endif
XLookupColor:
  .cfi_startproc

1:
  // Load address
  // TODO: can we do this faster on newer ARMs?
  ldr ip, 3f
2:
  add ip, pc, ip
  ldr ip, [ip]

  cmp ip, #0

  // Fast path
  bxne ip

  // Slow path
  ldr ip, =274
  push {ip}
  .cfi_adjust_cfa_offset 4
  PUSH_REG(lr)
  bl _libX11_so_save_regs_and_resolve
  POP_REG(lr)
  add sp, #4
  .cfi_adjust_cfa_offset -4
  bx ip

  // Force constant pool for ldr above
  .ltorg

  .cfi_endproc

3:
  .word _libX11_so_tramp_table - (2b + 8) + 1096

/*
 * Copyright 2018-2025 Yury Gribov
 *
 * The MIT License (MIT)
 *
 * Use of this source code is governed by MIT license that can be
 * found in the LICENSE.txt file.
 */

  .globl XLookupKeysym
  .p2align 4
  .type XLookupKeysym, %function
#ifndef IMPLIB_EXPORT_SHIMS
  .hidden XLookupKeysym
#endif
XLookupKeysym:
  .cfi_startproc

1:
  // Load address
  // TODO: can we do this faster on newer ARMs?
  ldr ip, 3f
2:
  add ip, pc, ip
  ldr ip, [ip]

  cmp ip, #0

  // Fast path
  bxne ip

  // Slow path
  ldr ip, =275
  push {ip}
  .cfi_adjust_cfa_offset 4
  PUSH_REG(lr)
  bl _libX11_so_save_regs_and_resolve
  POP_REG(lr)
  add sp, #4
  .cfi_adjust_cfa_offset -4
  bx ip

  // Force constant pool for ldr above
  .ltorg

  .cfi_endproc

3:
  .word _libX11_so_tramp_table - (2b + 8) + 1100

/*
 * Copyright 2018-2025 Yury Gribov
 *
 * The MIT License (MIT)
 *
 * Use of this source code is governed by MIT license that can be
 * found in the LICENSE.txt file.
 */

  .globl XLookupString
  .p2align 4
  .type XLookupString, %function
#ifndef IMPLIB_EXPORT_SHIMS
  .hidden XLookupString
#endif
XLookupString:
  .cfi_startproc

1:
  // Load address
  // TODO: can we do this faster on newer ARMs?
  ldr ip, 3f
2:
  add ip, pc, ip
  ldr ip, [ip]

  cmp ip, #0

  // Fast path
  bxne ip

  // Slow path
  ldr ip, =276
  push {ip}
  .cfi_adjust_cfa_offset 4
  PUSH_REG(lr)
  bl _libX11_so_save_regs_and_resolve
  POP_REG(lr)
  add sp, #4
  .cfi_adjust_cfa_offset -4
  bx ip

  // Force constant pool for ldr above
  .ltorg

  .cfi_endproc

3:
  .word _libX11_so_tramp_table - (2b + 8) + 1104

/*
 * Copyright 2018-2025 Yury Gribov
 *
 * The MIT License (MIT)
 *
 * Use of this source code is governed by MIT license that can be
 * found in the LICENSE.txt file.
 */

  .globl XLowerWindow
  .p2align 4
  .type XLowerWindow, %function
#ifndef IMPLIB_EXPORT_SHIMS
  .hidden XLowerWindow
#endif
XLowerWindow:
  .cfi_startproc

1:
  // Load address
  // TODO: can we do this faster on newer ARMs?
  ldr ip, 3f
2:
  add ip, pc, ip
  ldr ip, [ip]

  cmp ip, #0

  // Fast path
  bxne ip

  // Slow path
  ldr ip, =277
  push {ip}
  .cfi_adjust_cfa_offset 4
  PUSH_REG(lr)
  bl _libX11_so_save_regs_and_resolve
  POP_REG(lr)
  add sp, #4
  .cfi_adjust_cfa_offset -4
  bx ip

  // Force constant pool for ldr above
  .ltorg

  .cfi_endproc

3:
  .word _libX11_so_tramp_table - (2b + 8) + 1108

/*
 * Copyright 2018-2025 Yury Gribov
 *
 * The MIT License (MIT)
 *
 * Use of this source code is governed by MIT license that can be
 * found in the LICENSE.txt file.
 */

  .globl XMapRaised
  .p2align 4
  .type XMapRaised, %function
#ifndef IMPLIB_EXPORT_SHIMS
  .hidden XMapRaised
#endif
XMapRaised:
  .cfi_startproc

1:
  // Load address
  // TODO: can we do this faster on newer ARMs?
  ldr ip, 3f
2:
  add ip, pc, ip
  ldr ip, [ip]

  cmp ip, #0

  // Fast path
  bxne ip

  // Slow path
  ldr ip, =278
  push {ip}
  .cfi_adjust_cfa_offset 4
  PUSH_REG(lr)
  bl _libX11_so_save_regs_and_resolve
  POP_REG(lr)
  add sp, #4
  .cfi_adjust_cfa_offset -4
  bx ip

  // Force constant pool for ldr above
  .ltorg

  .cfi_endproc

3:
  .word _libX11_so_tramp_table - (2b + 8) + 1112

/*
 * Copyright 2018-2025 Yury Gribov
 *
 * The MIT License (MIT)
 *
 * Use of this source code is governed by MIT license that can be
 * found in the LICENSE.txt file.
 */

  .globl XMapSubwindows
  .p2align 4
  .type XMapSubwindows, %function
#ifndef IMPLIB_EXPORT_SHIMS
  .hidden XMapSubwindows
#endif
XMapSubwindows:
  .cfi_startproc

1:
  // Load address
  // TODO: can we do this faster on newer ARMs?
  ldr ip, 3f
2:
  add ip, pc, ip
  ldr ip, [ip]

  cmp ip, #0

  // Fast path
  bxne ip

  // Slow path
  ldr ip, =279
  push {ip}
  .cfi_adjust_cfa_offset 4
  PUSH_REG(lr)
  bl _libX11_so_save_regs_and_resolve
  POP_REG(lr)
  add sp, #4
  .cfi_adjust_cfa_offset -4
  bx ip

  // Force constant pool for ldr above
  .ltorg

  .cfi_endproc

3:
  .word _libX11_so_tramp_table - (2b + 8) + 1116

/*
 * Copyright 2018-2025 Yury Gribov
 *
 * The MIT License (MIT)
 *
 * Use of this source code is governed by MIT license that can be
 * found in the LICENSE.txt file.
 */

  .globl XMapWindow
  .p2align 4
  .type XMapWindow, %function
#ifndef IMPLIB_EXPORT_SHIMS
  .hidden XMapWindow
#endif
XMapWindow:
  .cfi_startproc

1:
  // Load address
  // TODO: can we do this faster on newer ARMs?
  ldr ip, 3f
2:
  add ip, pc, ip
  ldr ip, [ip]

  cmp ip, #0

  // Fast path
  bxne ip

  // Slow path
  ldr ip, =280
  push {ip}
  .cfi_adjust_cfa_offset 4
  PUSH_REG(lr)
  bl _libX11_so_save_regs_and_resolve
  POP_REG(lr)
  add sp, #4
  .cfi_adjust_cfa_offset -4
  bx ip

  // Force constant pool for ldr above
  .ltorg

  .cfi_endproc

3:
  .word _libX11_so_tramp_table - (2b + 8) + 1120

/*
 * Copyright 2018-2025 Yury Gribov
 *
 * The MIT License (MIT)
 *
 * Use of this source code is governed by MIT license that can be
 * found in the LICENSE.txt file.
 */

  .globl XMaskEvent
  .p2align 4
  .type XMaskEvent, %function
#ifndef IMPLIB_EXPORT_SHIMS
  .hidden XMaskEvent
#endif
XMaskEvent:
  .cfi_startproc

1:
  // Load address
  // TODO: can we do this faster on newer ARMs?
  ldr ip, 3f
2:
  add ip, pc, ip
  ldr ip, [ip]

  cmp ip, #0

  // Fast path
  bxne ip

  // Slow path
  ldr ip, =281
  push {ip}
  .cfi_adjust_cfa_offset 4
  PUSH_REG(lr)
  bl _libX11_so_save_regs_and_resolve
  POP_REG(lr)
  add sp, #4
  .cfi_adjust_cfa_offset -4
  bx ip

  // Force constant pool for ldr above
  .ltorg

  .cfi_endproc

3:
  .word _libX11_so_tramp_table - (2b + 8) + 1124

/*
 * Copyright 2018-2025 Yury Gribov
 *
 * The MIT License (MIT)
 *
 * Use of this source code is governed by MIT license that can be
 * found in the LICENSE.txt file.
 */

  .globl XMatchVisualInfo
  .p2align 4
  .type XMatchVisualInfo, %function
#ifndef IMPLIB_EXPORT_SHIMS
  .hidden XMatchVisualInfo
#endif
XMatchVisualInfo:
  .cfi_startproc

1:
  // Load address
  // TODO: can we do this faster on newer ARMs?
  ldr ip, 3f
2:
  add ip, pc, ip
  ldr ip, [ip]

  cmp ip, #0

  // Fast path
  bxne ip

  // Slow path
  ldr ip, =282
  push {ip}
  .cfi_adjust_cfa_offset 4
  PUSH_REG(lr)
  bl _libX11_so_save_regs_and_resolve
  POP_REG(lr)
  add sp, #4
  .cfi_adjust_cfa_offset -4
  bx ip

  // Force constant pool for ldr above
  .ltorg

  .cfi_endproc

3:
  .word _libX11_so_tramp_table - (2b + 8) + 1128

/*
 * Copyright 2018-2025 Yury Gribov
 *
 * The MIT License (MIT)
 *
 * Use of this source code is governed by MIT license that can be
 * found in the LICENSE.txt file.
 */

  .globl XMaxCmapsOfScreen
  .p2align 4
  .type XMaxCmapsOfScreen, %function
#ifndef IMPLIB_EXPORT_SHIMS
  .hidden XMaxCmapsOfScreen
#endif
XMaxCmapsOfScreen:
  .cfi_startproc

1:
  // Load address
  // TODO: can we do this faster on newer ARMs?
  ldr ip, 3f
2:
  add ip, pc, ip
  ldr ip, [ip]

  cmp ip, #0

  // Fast path
  bxne ip

  // Slow path
  ldr ip, =283
  push {ip}
  .cfi_adjust_cfa_offset 4
  PUSH_REG(lr)
  bl _libX11_so_save_regs_and_resolve
  POP_REG(lr)
  add sp, #4
  .cfi_adjust_cfa_offset -4
  bx ip

  // Force constant pool for ldr above
  .ltorg

  .cfi_endproc

3:
  .word _libX11_so_tramp_table - (2b + 8) + 1132

/*
 * Copyright 2018-2025 Yury Gribov
 *
 * The MIT License (MIT)
 *
 * Use of this source code is governed by MIT license that can be
 * found in the LICENSE.txt file.
 */

  .globl XMaxRequestSize
  .p2align 4
  .type XMaxRequestSize, %function
#ifndef IMPLIB_EXPORT_SHIMS
  .hidden XMaxRequestSize
#endif
XMaxRequestSize:
  .cfi_startproc

1:
  // Load address
  // TODO: can we do this faster on newer ARMs?
  ldr ip, 3f
2:
  add ip, pc, ip
  ldr ip, [ip]

  cmp ip, #0

  // Fast path
  bxne ip

  // Slow path
  ldr ip, =284
  push {ip}
  .cfi_adjust_cfa_offset 4
  PUSH_REG(lr)
  bl _libX11_so_save_regs_and_resolve
  POP_REG(lr)
  add sp, #4
  .cfi_adjust_cfa_offset -4
  bx ip

  // Force constant pool for ldr above
  .ltorg

  .cfi_endproc

3:
  .word _libX11_so_tramp_table - (2b + 8) + 1136

/*
 * Copyright 2018-2025 Yury Gribov
 *
 * The MIT License (MIT)
 *
 * Use of this source code is governed by MIT license that can be
 * found in the LICENSE.txt file.
 */

  .globl XMinCmapsOfScreen
  .p2align 4
  .type XMinCmapsOfScreen, %function
#ifndef IMPLIB_EXPORT_SHIMS
  .hidden XMinCmapsOfScreen
#endif
XMinCmapsOfScreen:
  .cfi_startproc

1:
  // Load address
  // TODO: can we do this faster on newer ARMs?
  ldr ip, 3f
2:
  add ip, pc, ip
  ldr ip, [ip]

  cmp ip, #0

  // Fast path
  bxne ip

  // Slow path
  ldr ip, =285
  push {ip}
  .cfi_adjust_cfa_offset 4
  PUSH_REG(lr)
  bl _libX11_so_save_regs_and_resolve
  POP_REG(lr)
  add sp, #4
  .cfi_adjust_cfa_offset -4
  bx ip

  // Force constant pool for ldr above
  .ltorg

  .cfi_endproc

3:
  .word _libX11_so_tramp_table - (2b + 8) + 1140

/*
 * Copyright 2018-2025 Yury Gribov
 *
 * The MIT License (MIT)
 *
 * Use of this source code is governed by MIT license that can be
 * found in the LICENSE.txt file.
 */

  .globl XMoveResizeWindow
  .p2align 4
  .type XMoveResizeWindow, %function
#ifndef IMPLIB_EXPORT_SHIMS
  .hidden XMoveResizeWindow
#endif
XMoveResizeWindow:
  .cfi_startproc

1:
  // Load address
  // TODO: can we do this faster on newer ARMs?
  ldr ip, 3f
2:
  add ip, pc, ip
  ldr ip, [ip]

  cmp ip, #0

  // Fast path
  bxne ip

  // Slow path
  ldr ip, =286
  push {ip}
  .cfi_adjust_cfa_offset 4
  PUSH_REG(lr)
  bl _libX11_so_save_regs_and_resolve
  POP_REG(lr)
  add sp, #4
  .cfi_adjust_cfa_offset -4
  bx ip

  // Force constant pool for ldr above
  .ltorg

  .cfi_endproc

3:
  .word _libX11_so_tramp_table - (2b + 8) + 1144

/*
 * Copyright 2018-2025 Yury Gribov
 *
 * The MIT License (MIT)
 *
 * Use of this source code is governed by MIT license that can be
 * found in the LICENSE.txt file.
 */

  .globl XMoveWindow
  .p2align 4
  .type XMoveWindow, %function
#ifndef IMPLIB_EXPORT_SHIMS
  .hidden XMoveWindow
#endif
XMoveWindow:
  .cfi_startproc

1:
  // Load address
  // TODO: can we do this faster on newer ARMs?
  ldr ip, 3f
2:
  add ip, pc, ip
  ldr ip, [ip]

  cmp ip, #0

  // Fast path
  bxne ip

  // Slow path
  ldr ip, =287
  push {ip}
  .cfi_adjust_cfa_offset 4
  PUSH_REG(lr)
  bl _libX11_so_save_regs_and_resolve
  POP_REG(lr)
  add sp, #4
  .cfi_adjust_cfa_offset -4
  bx ip

  // Force constant pool for ldr above
  .ltorg

  .cfi_endproc

3:
  .word _libX11_so_tramp_table - (2b + 8) + 1148

/*
 * Copyright 2018-2025 Yury Gribov
 *
 * The MIT License (MIT)
 *
 * Use of this source code is governed by MIT license that can be
 * found in the LICENSE.txt file.
 */

  .globl XNewModifiermap
  .p2align 4
  .type XNewModifiermap, %function
#ifndef IMPLIB_EXPORT_SHIMS
  .hidden XNewModifiermap
#endif
XNewModifiermap:
  .cfi_startproc

1:
  // Load address
  // TODO: can we do this faster on newer ARMs?
  ldr ip, 3f
2:
  add ip, pc, ip
  ldr ip, [ip]

  cmp ip, #0

  // Fast path
  bxne ip

  // Slow path
  ldr ip, =288
  push {ip}
  .cfi_adjust_cfa_offset 4
  PUSH_REG(lr)
  bl _libX11_so_save_regs_and_resolve
  POP_REG(lr)
  add sp, #4
  .cfi_adjust_cfa_offset -4
  bx ip

  // Force constant pool for ldr above
  .ltorg

  .cfi_endproc

3:
  .word _libX11_so_tramp_table - (2b + 8) + 1152

/*
 * Copyright 2018-2025 Yury Gribov
 *
 * The MIT License (MIT)
 *
 * Use of this source code is governed by MIT license that can be
 * found in the LICENSE.txt file.
 */

  .globl XNextEvent
  .p2align 4
  .type XNextEvent, %function
#ifndef IMPLIB_EXPORT_SHIMS
  .hidden XNextEvent
#endif
XNextEvent:
  .cfi_startproc

1:
  // Load address
  // TODO: can we do this faster on newer ARMs?
  ldr ip, 3f
2:
  add ip, pc, ip
  ldr ip, [ip]

  cmp ip, #0

  // Fast path
  bxne ip

  // Slow path
  ldr ip, =289
  push {ip}
  .cfi_adjust_cfa_offset 4
  PUSH_REG(lr)
  bl _libX11_so_save_regs_and_resolve
  POP_REG(lr)
  add sp, #4
  .cfi_adjust_cfa_offset -4
  bx ip

  // Force constant pool for ldr above
  .ltorg

  .cfi_endproc

3:
  .word _libX11_so_tramp_table - (2b + 8) + 1156

/*
 * Copyright 2018-2025 Yury Gribov
 *
 * The MIT License (MIT)
 *
 * Use of this source code is governed by MIT license that can be
 * found in the LICENSE.txt file.
 */

  .globl XNextRequest
  .p2align 4
  .type XNextRequest, %function
#ifndef IMPLIB_EXPORT_SHIMS
  .hidden XNextRequest
#endif
XNextRequest:
  .cfi_startproc

1:
  // Load address
  // TODO: can we do this faster on newer ARMs?
  ldr ip, 3f
2:
  add ip, pc, ip
  ldr ip, [ip]

  cmp ip, #0

  // Fast path
  bxne ip

  // Slow path
  ldr ip, =290
  push {ip}
  .cfi_adjust_cfa_offset 4
  PUSH_REG(lr)
  bl _libX11_so_save_regs_and_resolve
  POP_REG(lr)
  add sp, #4
  .cfi_adjust_cfa_offset -4
  bx ip

  // Force constant pool for ldr above
  .ltorg

  .cfi_endproc

3:
  .word _libX11_so_tramp_table - (2b + 8) + 1160

/*
 * Copyright 2018-2025 Yury Gribov
 *
 * The MIT License (MIT)
 *
 * Use of this source code is governed by MIT license that can be
 * found in the LICENSE.txt file.
 */

  .globl XNoOp
  .p2align 4
  .type XNoOp, %function
#ifndef IMPLIB_EXPORT_SHIMS
  .hidden XNoOp
#endif
XNoOp:
  .cfi_startproc

1:
  // Load address
  // TODO: can we do this faster on newer ARMs?
  ldr ip, 3f
2:
  add ip, pc, ip
  ldr ip, [ip]

  cmp ip, #0

  // Fast path
  bxne ip

  // Slow path
  ldr ip, =291
  push {ip}
  .cfi_adjust_cfa_offset 4
  PUSH_REG(lr)
  bl _libX11_so_save_regs_and_resolve
  POP_REG(lr)
  add sp, #4
  .cfi_adjust_cfa_offset -4
  bx ip

  // Force constant pool for ldr above
  .ltorg

  .cfi_endproc

3:
  .word _libX11_so_tramp_table - (2b + 8) + 1164

/*
 * Copyright 2018-2025 Yury Gribov
 *
 * The MIT License (MIT)
 *
 * Use of this source code is governed by MIT license that can be
 * found in the LICENSE.txt file.
 */

  .globl XOMOfOC
  .p2align 4
  .type XOMOfOC, %function
#ifndef IMPLIB_EXPORT_SHIMS
  .hidden XOMOfOC
#endif
XOMOfOC:
  .cfi_startproc

1:
  // Load address
  // TODO: can we do this faster on newer ARMs?
  ldr ip, 3f
2:
  add ip, pc, ip
  ldr ip, [ip]

  cmp ip, #0

  // Fast path
  bxne ip

  // Slow path
  ldr ip, =292
  push {ip}
  .cfi_adjust_cfa_offset 4
  PUSH_REG(lr)
  bl _libX11_so_save_regs_and_resolve
  POP_REG(lr)
  add sp, #4
  .cfi_adjust_cfa_offset -4
  bx ip

  // Force constant pool for ldr above
  .ltorg

  .cfi_endproc

3:
  .word _libX11_so_tramp_table - (2b + 8) + 1168

/*
 * Copyright 2018-2025 Yury Gribov
 *
 * The MIT License (MIT)
 *
 * Use of this source code is governed by MIT license that can be
 * found in the LICENSE.txt file.
 */

  .globl XOffsetRegion
  .p2align 4
  .type XOffsetRegion, %function
#ifndef IMPLIB_EXPORT_SHIMS
  .hidden XOffsetRegion
#endif
XOffsetRegion:
  .cfi_startproc

1:
  // Load address
  // TODO: can we do this faster on newer ARMs?
  ldr ip, 3f
2:
  add ip, pc, ip
  ldr ip, [ip]

  cmp ip, #0

  // Fast path
  bxne ip

  // Slow path
  ldr ip, =293
  push {ip}
  .cfi_adjust_cfa_offset 4
  PUSH_REG(lr)
  bl _libX11_so_save_regs_and_resolve
  POP_REG(lr)
  add sp, #4
  .cfi_adjust_cfa_offset -4
  bx ip

  // Force constant pool for ldr above
  .ltorg

  .cfi_endproc

3:
  .word _libX11_so_tramp_table - (2b + 8) + 1172

/*
 * Copyright 2018-2025 Yury Gribov
 *
 * The MIT License (MIT)
 *
 * Use of this source code is governed by MIT license that can be
 * found in the LICENSE.txt file.
 */

  .globl XOpenDisplay
  .p2align 4
  .type XOpenDisplay, %function
#ifndef IMPLIB_EXPORT_SHIMS
  .hidden XOpenDisplay
#endif
XOpenDisplay:
  .cfi_startproc

1:
  // Load address
  // TODO: can we do this faster on newer ARMs?
  ldr ip, 3f
2:
  add ip, pc, ip
  ldr ip, [ip]

  cmp ip, #0

  // Fast path
  bxne ip

  // Slow path
  ldr ip, =294
  push {ip}
  .cfi_adjust_cfa_offset 4
  PUSH_REG(lr)
  bl _libX11_so_save_regs_and_resolve
  POP_REG(lr)
  add sp, #4
  .cfi_adjust_cfa_offset -4
  bx ip

  // Force constant pool for ldr above
  .ltorg

  .cfi_endproc

3:
  .word _libX11_so_tramp_table - (2b + 8) + 1176

/*
 * Copyright 2018-2025 Yury Gribov
 *
 * The MIT License (MIT)
 *
 * Use of this source code is governed by MIT license that can be
 * found in the LICENSE.txt file.
 */

  .globl XOpenIM
  .p2align 4
  .type XOpenIM, %function
#ifndef IMPLIB_EXPORT_SHIMS
  .hidden XOpenIM
#endif
XOpenIM:
  .cfi_startproc

1:
  // Load address
  // TODO: can we do this faster on newer ARMs?
  ldr ip, 3f
2:
  add ip, pc, ip
  ldr ip, [ip]

  cmp ip, #0

  // Fast path
  bxne ip

  // Slow path
  ldr ip, =295
  push {ip}
  .cfi_adjust_cfa_offset 4
  PUSH_REG(lr)
  bl _libX11_so_save_regs_and_resolve
  POP_REG(lr)
  add sp, #4
  .cfi_adjust_cfa_offset -4
  bx ip

  // Force constant pool for ldr above
  .ltorg

  .cfi_endproc

3:
  .word _libX11_so_tramp_table - (2b + 8) + 1180

/*
 * Copyright 2018-2025 Yury Gribov
 *
 * The MIT License (MIT)
 *
 * Use of this source code is governed by MIT license that can be
 * found in the LICENSE.txt file.
 */

  .globl XOpenOM
  .p2align 4
  .type XOpenOM, %function
#ifndef IMPLIB_EXPORT_SHIMS
  .hidden XOpenOM
#endif
XOpenOM:
  .cfi_startproc

1:
  // Load address
  // TODO: can we do this faster on newer ARMs?
  ldr ip, 3f
2:
  add ip, pc, ip
  ldr ip, [ip]

  cmp ip, #0

  // Fast path
  bxne ip

  // Slow path
  ldr ip, =296
  push {ip}
  .cfi_adjust_cfa_offset 4
  PUSH_REG(lr)
  bl _libX11_so_save_regs_and_resolve
  POP_REG(lr)
  add sp, #4
  .cfi_adjust_cfa_offset -4
  bx ip

  // Force constant pool for ldr above
  .ltorg

  .cfi_endproc

3:
  .word _libX11_so_tramp_table - (2b + 8) + 1184

/*
 * Copyright 2018-2025 Yury Gribov
 *
 * The MIT License (MIT)
 *
 * Use of this source code is governed by MIT license that can be
 * found in the LICENSE.txt file.
 */

  .globl XParseColor
  .p2align 4
  .type XParseColor, %function
#ifndef IMPLIB_EXPORT_SHIMS
  .hidden XParseColor
#endif
XParseColor:
  .cfi_startproc

1:
  // Load address
  // TODO: can we do this faster on newer ARMs?
  ldr ip, 3f
2:
  add ip, pc, ip
  ldr ip, [ip]

  cmp ip, #0

  // Fast path
  bxne ip

  // Slow path
  ldr ip, =297
  push {ip}
  .cfi_adjust_cfa_offset 4
  PUSH_REG(lr)
  bl _libX11_so_save_regs_and_resolve
  POP_REG(lr)
  add sp, #4
  .cfi_adjust_cfa_offset -4
  bx ip

  // Force constant pool for ldr above
  .ltorg

  .cfi_endproc

3:
  .word _libX11_so_tramp_table - (2b + 8) + 1188

/*
 * Copyright 2018-2025 Yury Gribov
 *
 * The MIT License (MIT)
 *
 * Use of this source code is governed by MIT license that can be
 * found in the LICENSE.txt file.
 */

  .globl XParseGeometry
  .p2align 4
  .type XParseGeometry, %function
#ifndef IMPLIB_EXPORT_SHIMS
  .hidden XParseGeometry
#endif
XParseGeometry:
  .cfi_startproc

1:
  // Load address
  // TODO: can we do this faster on newer ARMs?
  ldr ip, 3f
2:
  add ip, pc, ip
  ldr ip, [ip]

  cmp ip, #0

  // Fast path
  bxne ip

  // Slow path
  ldr ip, =298
  push {ip}
  .cfi_adjust_cfa_offset 4
  PUSH_REG(lr)
  bl _libX11_so_save_regs_and_resolve
  POP_REG(lr)
  add sp, #4
  .cfi_adjust_cfa_offset -4
  bx ip

  // Force constant pool for ldr above
  .ltorg

  .cfi_endproc

3:
  .word _libX11_so_tramp_table - (2b + 8) + 1192

/*
 * Copyright 2018-2025 Yury Gribov
 *
 * The MIT License (MIT)
 *
 * Use of this source code is governed by MIT license that can be
 * found in the LICENSE.txt file.
 */

  .globl XPeekEvent
  .p2align 4
  .type XPeekEvent, %function
#ifndef IMPLIB_EXPORT_SHIMS
  .hidden XPeekEvent
#endif
XPeekEvent:
  .cfi_startproc

1:
  // Load address
  // TODO: can we do this faster on newer ARMs?
  ldr ip, 3f
2:
  add ip, pc, ip
  ldr ip, [ip]

  cmp ip, #0

  // Fast path
  bxne ip

  // Slow path
  ldr ip, =299
  push {ip}
  .cfi_adjust_cfa_offset 4
  PUSH_REG(lr)
  bl _libX11_so_save_regs_and_resolve
  POP_REG(lr)
  add sp, #4
  .cfi_adjust_cfa_offset -4
  bx ip

  // Force constant pool for ldr above
  .ltorg

  .cfi_endproc

3:
  .word _libX11_so_tramp_table - (2b + 8) + 1196

/*
 * Copyright 2018-2025 Yury Gribov
 *
 * The MIT License (MIT)
 *
 * Use of this source code is governed by MIT license that can be
 * found in the LICENSE.txt file.
 */

  .globl XPeekIfEvent
  .p2align 4
  .type XPeekIfEvent, %function
#ifndef IMPLIB_EXPORT_SHIMS
  .hidden XPeekIfEvent
#endif
XPeekIfEvent:
  .cfi_startproc

1:
  // Load address
  // TODO: can we do this faster on newer ARMs?
  ldr ip, 3f
2:
  add ip, pc, ip
  ldr ip, [ip]

  cmp ip, #0

  // Fast path
  bxne ip

  // Slow path
  ldr ip, =300
  push {ip}
  .cfi_adjust_cfa_offset 4
  PUSH_REG(lr)
  bl _libX11_so_save_regs_and_resolve
  POP_REG(lr)
  add sp, #4
  .cfi_adjust_cfa_offset -4
  bx ip

  // Force constant pool for ldr above
  .ltorg

  .cfi_endproc

3:
  .word _libX11_so_tramp_table - (2b + 8) + 1200

/*
 * Copyright 2018-2025 Yury Gribov
 *
 * The MIT License (MIT)
 *
 * Use of this source code is governed by MIT license that can be
 * found in the LICENSE.txt file.
 */

  .globl XPending
  .p2align 4
  .type XPending, %function
#ifndef IMPLIB_EXPORT_SHIMS
  .hidden XPending
#endif
XPending:
  .cfi_startproc

1:
  // Load address
  // TODO: can we do this faster on newer ARMs?
  ldr ip, 3f
2:
  add ip, pc, ip
  ldr ip, [ip]

  cmp ip, #0

  // Fast path
  bxne ip

  // Slow path
  ldr ip, =301
  push {ip}
  .cfi_adjust_cfa_offset 4
  PUSH_REG(lr)
  bl _libX11_so_save_regs_and_resolve
  POP_REG(lr)
  add sp, #4
  .cfi_adjust_cfa_offset -4
  bx ip

  // Force constant pool for ldr above
  .ltorg

  .cfi_endproc

3:
  .word _libX11_so_tramp_table - (2b + 8) + 1204

/*
 * Copyright 2018-2025 Yury Gribov
 *
 * The MIT License (MIT)
 *
 * Use of this source code is governed by MIT license that can be
 * found in the LICENSE.txt file.
 */

  .globl XPlanesOfScreen
  .p2align 4
  .type XPlanesOfScreen, %function
#ifndef IMPLIB_EXPORT_SHIMS
  .hidden XPlanesOfScreen
#endif
XPlanesOfScreen:
  .cfi_startproc

1:
  // Load address
  // TODO: can we do this faster on newer ARMs?
  ldr ip, 3f
2:
  add ip, pc, ip
  ldr ip, [ip]

  cmp ip, #0

  // Fast path
  bxne ip

  // Slow path
  ldr ip, =302
  push {ip}
  .cfi_adjust_cfa_offset 4
  PUSH_REG(lr)
  bl _libX11_so_save_regs_and_resolve
  POP_REG(lr)
  add sp, #4
  .cfi_adjust_cfa_offset -4
  bx ip

  // Force constant pool for ldr above
  .ltorg

  .cfi_endproc

3:
  .word _libX11_so_tramp_table - (2b + 8) + 1208

/*
 * Copyright 2018-2025 Yury Gribov
 *
 * The MIT License (MIT)
 *
 * Use of this source code is governed by MIT license that can be
 * found in the LICENSE.txt file.
 */

  .globl XPointInRegion
  .p2align 4
  .type XPointInRegion, %function
#ifndef IMPLIB_EXPORT_SHIMS
  .hidden XPointInRegion
#endif
XPointInRegion:
  .cfi_startproc

1:
  // Load address
  // TODO: can we do this faster on newer ARMs?
  ldr ip, 3f
2:
  add ip, pc, ip
  ldr ip, [ip]

  cmp ip, #0

  // Fast path
  bxne ip

  // Slow path
  ldr ip, =303
  push {ip}
  .cfi_adjust_cfa_offset 4
  PUSH_REG(lr)
  bl _libX11_so_save_regs_and_resolve
  POP_REG(lr)
  add sp, #4
  .cfi_adjust_cfa_offset -4
  bx ip

  // Force constant pool for ldr above
  .ltorg

  .cfi_endproc

3:
  .word _libX11_so_tramp_table - (2b + 8) + 1212

/*
 * Copyright 2018-2025 Yury Gribov
 *
 * The MIT License (MIT)
 *
 * Use of this source code is governed by MIT license that can be
 * found in the LICENSE.txt file.
 */

  .globl XPolygonRegion
  .p2align 4
  .type XPolygonRegion, %function
#ifndef IMPLIB_EXPORT_SHIMS
  .hidden XPolygonRegion
#endif
XPolygonRegion:
  .cfi_startproc

1:
  // Load address
  // TODO: can we do this faster on newer ARMs?
  ldr ip, 3f
2:
  add ip, pc, ip
  ldr ip, [ip]

  cmp ip, #0

  // Fast path
  bxne ip

  // Slow path
  ldr ip, =304
  push {ip}
  .cfi_adjust_cfa_offset 4
  PUSH_REG(lr)
  bl _libX11_so_save_regs_and_resolve
  POP_REG(lr)
  add sp, #4
  .cfi_adjust_cfa_offset -4
  bx ip

  // Force constant pool for ldr above
  .ltorg

  .cfi_endproc

3:
  .word _libX11_so_tramp_table - (2b + 8) + 1216

/*
 * Copyright 2018-2025 Yury Gribov
 *
 * The MIT License (MIT)
 *
 * Use of this source code is governed by MIT license that can be
 * found in the LICENSE.txt file.
 */

  .globl XProcessInternalConnection
  .p2align 4
  .type XProcessInternalConnection, %function
#ifndef IMPLIB_EXPORT_SHIMS
  .hidden XProcessInternalConnection
#endif
XProcessInternalConnection:
  .cfi_startproc

1:
  // Load address
  // TODO: can we do this faster on newer ARMs?
  ldr ip, 3f
2:
  add ip, pc, ip
  ldr ip, [ip]

  cmp ip, #0

  // Fast path
  bxne ip

  // Slow path
  ldr ip, =305
  push {ip}
  .cfi_adjust_cfa_offset 4
  PUSH_REG(lr)
  bl _libX11_so_save_regs_and_resolve
  POP_REG(lr)
  add sp, #4
  .cfi_adjust_cfa_offset -4
  bx ip

  // Force constant pool for ldr above
  .ltorg

  .cfi_endproc

3:
  .word _libX11_so_tramp_table - (2b + 8) + 1220

/*
 * Copyright 2018-2025 Yury Gribov
 *
 * The MIT License (MIT)
 *
 * Use of this source code is governed by MIT license that can be
 * found in the LICENSE.txt file.
 */

  .globl XProtocolRevision
  .p2align 4
  .type XProtocolRevision, %function
#ifndef IMPLIB_EXPORT_SHIMS
  .hidden XProtocolRevision
#endif
XProtocolRevision:
  .cfi_startproc

1:
  // Load address
  // TODO: can we do this faster on newer ARMs?
  ldr ip, 3f
2:
  add ip, pc, ip
  ldr ip, [ip]

  cmp ip, #0

  // Fast path
  bxne ip

  // Slow path
  ldr ip, =306
  push {ip}
  .cfi_adjust_cfa_offset 4
  PUSH_REG(lr)
  bl _libX11_so_save_regs_and_resolve
  POP_REG(lr)
  add sp, #4
  .cfi_adjust_cfa_offset -4
  bx ip

  // Force constant pool for ldr above
  .ltorg

  .cfi_endproc

3:
  .word _libX11_so_tramp_table - (2b + 8) + 1224

/*
 * Copyright 2018-2025 Yury Gribov
 *
 * The MIT License (MIT)
 *
 * Use of this source code is governed by MIT license that can be
 * found in the LICENSE.txt file.
 */

  .globl XProtocolVersion
  .p2align 4
  .type XProtocolVersion, %function
#ifndef IMPLIB_EXPORT_SHIMS
  .hidden XProtocolVersion
#endif
XProtocolVersion:
  .cfi_startproc

1:
  // Load address
  // TODO: can we do this faster on newer ARMs?
  ldr ip, 3f
2:
  add ip, pc, ip
  ldr ip, [ip]

  cmp ip, #0

  // Fast path
  bxne ip

  // Slow path
  ldr ip, =307
  push {ip}
  .cfi_adjust_cfa_offset 4
  PUSH_REG(lr)
  bl _libX11_so_save_regs_and_resolve
  POP_REG(lr)
  add sp, #4
  .cfi_adjust_cfa_offset -4
  bx ip

  // Force constant pool for ldr above
  .ltorg

  .cfi_endproc

3:
  .word _libX11_so_tramp_table - (2b + 8) + 1228

/*
 * Copyright 2018-2025 Yury Gribov
 *
 * The MIT License (MIT)
 *
 * Use of this source code is governed by MIT license that can be
 * found in the LICENSE.txt file.
 */

  .globl XPutBackEvent
  .p2align 4
  .type XPutBackEvent, %function
#ifndef IMPLIB_EXPORT_SHIMS
  .hidden XPutBackEvent
#endif
XPutBackEvent:
  .cfi_startproc

1:
  // Load address
  // TODO: can we do this faster on newer ARMs?
  ldr ip, 3f
2:
  add ip, pc, ip
  ldr ip, [ip]

  cmp ip, #0

  // Fast path
  bxne ip

  // Slow path
  ldr ip, =308
  push {ip}
  .cfi_adjust_cfa_offset 4
  PUSH_REG(lr)
  bl _libX11_so_save_regs_and_resolve
  POP_REG(lr)
  add sp, #4
  .cfi_adjust_cfa_offset -4
  bx ip

  // Force constant pool for ldr above
  .ltorg

  .cfi_endproc

3:
  .word _libX11_so_tramp_table - (2b + 8) + 1232

/*
 * Copyright 2018-2025 Yury Gribov
