/*
 * Copyright 2018-2025 Yury Gribov
 *
 * The MIT License (MIT)
 *
 * Use of this source code is governed by MIT license that can be
 * found in the LICENSE.txt file.
 */

  .section .note.GNU-stack,"",@progbits

  .data

  .globl _libcuda_so_tramp_table
  .hidden _libcuda_so_tramp_table
  .align 8
_libcuda_so_tramp_table:
  .zero 5280

  .text

  .globl _libcuda_so_tramp_resolve
  .hidden _libcuda_so_tramp_resolve

  .globl _libcuda_so_save_regs_and_resolve
  .hidden _libcuda_so_save_regs_and_resolve
  .type _libcuda_so_save_regs_and_resolve, %function
_libcuda_so_save_regs_and_resolve:
  .cfi_startproc

#define PUSH_REG(reg) pushq %reg ; .cfi_adjust_cfa_offset 8; .cfi_rel_offset reg, 0
#define POP_REG(reg) popq %reg ; .cfi_adjust_cfa_offset -8; .cfi_restore reg

#define DEC_STACK(d) subq $d, %rsp; .cfi_adjust_cfa_offset d
#define INC_STACK(d) addq $d, %rsp; .cfi_adjust_cfa_offset -d

#define PUSH_MMX_REG(reg) DEC_STACK(8); movq %reg, (%rsp); .cfi_rel_offset reg, 0
#define POP_MMX_REG(reg) movq (%rsp), %reg; .cfi_restore reg; INC_STACK(8)

#define PUSH_XMM_REG(reg) DEC_STACK(16); movdqa %reg, (%rsp); .cfi_rel_offset reg, 0
#define POP_XMM_REG(reg) movdqa (%rsp), %reg; .cfi_restore reg; INC_STACK(16)

// TODO: cfi_offset/cfi_restore
#define PUSH_YMM_REG(reg) DEC_STACK(32); vmovdqu %reg, (%rsp)
#define POP_YMM_REG(reg) vmovdqu (%rsp), %reg; INC_STACK(32)

// TODO: cfi_offset/cfi_restore
#define PUSH_ZMM_REG(reg) DEC_STACK(64); vmovdqu32 %reg, (%rsp)
#define POP_ZMM_REG(reg) vmovdqu32 (%rsp), %reg; INC_STACK(64)

  // Slow path which calls dlsym, taken only on first call.
  // All registers are stored to handle arbitrary calling conventions
  // (except x87 FPU registers which do not have to be preserved).
  // For Dwarf directives, read https://www.imperialviolet.org/2017/01/18/cfi.html.

  .cfi_def_cfa_offset 8  // Return address

  PUSH_REG(rdi)  // 16
  mov 0x10(%rsp), %rdi
  PUSH_REG(rbx)
  PUSH_REG(rbx)  // 16
  PUSH_REG(rcx)
  PUSH_REG(rdx)  // 16
  PUSH_REG(rbp)
  PUSH_REG(rsi)  // 16
  PUSH_REG(r8)
  PUSH_REG(r9)  // 16
  PUSH_REG(r10)
  PUSH_REG(r11)  // 16
  PUSH_REG(r12)
  PUSH_REG(r13)  // 16
  PUSH_REG(r14)
  PUSH_REG(r15)  // 16

  // Maybe use cpuid instead of macro to detect current vector size...
#ifdef __AVX512F__
  PUSH_ZMM_REG(zmm0)
  PUSH_ZMM_REG(zmm1)
  PUSH_ZMM_REG(zmm2)
  PUSH_ZMM_REG(zmm3)
  PUSH_ZMM_REG(zmm4)
  PUSH_ZMM_REG(zmm5)
  PUSH_ZMM_REG(zmm6)
  PUSH_ZMM_REG(zmm7)
#elif defined __AVX__
  PUSH_YMM_REG(ymm0)
  PUSH_YMM_REG(ymm1)
  PUSH_YMM_REG(ymm2)
  PUSH_YMM_REG(ymm3)
  PUSH_YMM_REG(ymm4)
  PUSH_YMM_REG(ymm5)
  PUSH_YMM_REG(ymm6)
  PUSH_YMM_REG(ymm7)
#elif defined __SSE__
  PUSH_XMM_REG(xmm0)
  PUSH_XMM_REG(xmm1)
  PUSH_XMM_REG(xmm2)
  PUSH_XMM_REG(xmm3)
  PUSH_XMM_REG(xmm4)
  PUSH_XMM_REG(xmm5)
  PUSH_XMM_REG(xmm6)
  PUSH_XMM_REG(xmm7)
#endif

  // MMX registers are not used to pass arguments so we do not save them

  // Stack is just 8-byte aligned but callee will re-align to 16
  call _libcuda_so_tramp_resolve

#ifdef __AVX512F__
  POP_ZMM_REG(zmm7)
  POP_ZMM_REG(zmm6)
  POP_ZMM_REG(zmm5)
  POP_ZMM_REG(zmm4)
  POP_ZMM_REG(zmm3)
  POP_ZMM_REG(zmm2)
  POP_ZMM_REG(zmm1)
  POP_ZMM_REG(zmm0)  // 16
#elif defined __AVX__
  POP_YMM_REG(ymm7)
  POP_YMM_REG(ymm6)
  POP_YMM_REG(ymm5)
  POP_YMM_REG(ymm4)
  POP_YMM_REG(ymm3)
  POP_YMM_REG(ymm2)
  POP_YMM_REG(ymm1)
  POP_YMM_REG(ymm0)  // 16
#elif defined __SSE__
  POP_XMM_REG(xmm7)
  POP_XMM_REG(xmm6)
  POP_XMM_REG(xmm5)
  POP_XMM_REG(xmm4)
  POP_XMM_REG(xmm3)
  POP_XMM_REG(xmm2)
  POP_XMM_REG(xmm1)
  POP_XMM_REG(xmm0)  // 16
#endif

  POP_REG(r15)
  POP_REG(r14)  // 16
  POP_REG(r13)
  POP_REG(r12)  // 16
  POP_REG(r11)
  POP_REG(r10)  // 16
  POP_REG(r9)
  POP_REG(r8)  // 16
  POP_REG(rsi)
  POP_REG(rbp)  // 16
  POP_REG(rdx)
  POP_REG(rcx)  // 16
  POP_REG(rbx)
  POP_REG(rbx)  // 16
  POP_REG(rdi)

  ret

  .cfi_endproc

/*
 * Copyright 2018-2025 Yury Gribov
 *
 * The MIT License (MIT)
 *
 * Use of this source code is governed by MIT license that can be
 * found in the LICENSE.txt file.
 */

  .globl cuArray3DCreate
  .p2align 4
  .type cuArray3DCreate, %function
#ifndef IMPLIB_EXPORT_SHIMS
  .hidden cuArray3DCreate
#endif
cuArray3DCreate:
  .cfi_startproc
  .cfi_def_cfa_offset 8  // Return address
  // Intel opt. manual says to
  // "make the fall-through code following a conditional branch be the likely target for a branch with a forward target"
  // to hint static predictor.
  cmpq $0, _libcuda_so_tramp_table+0(%rip)
  je 2f
1:
  jmp *_libcuda_so_tramp_table+0(%rip)
2:
  pushq $0
  .cfi_adjust_cfa_offset 8
  call _libcuda_so_save_regs_and_resolve
  addq $8, %rsp
  .cfi_adjust_cfa_offset -8
  jmp *%rax
  .cfi_endproc

/*
 * Copyright 2018-2025 Yury Gribov
 *
 * The MIT License (MIT)
 *
 * Use of this source code is governed by MIT license that can be
 * found in the LICENSE.txt file.
 */

  .globl cuArray3DCreate_v2
  .p2align 4
  .type cuArray3DCreate_v2, %function
#ifndef IMPLIB_EXPORT_SHIMS
  .hidden cuArray3DCreate_v2
#endif
cuArray3DCreate_v2:
  .cfi_startproc
  .cfi_def_cfa_offset 8  // Return address
  // Intel opt. manual says to
  // "make the fall-through code following a conditional branch be the likely target for a branch with a forward target"
  // to hint static predictor.
  cmpq $0, _libcuda_so_tramp_table+8(%rip)
  je 2f
1:
  jmp *_libcuda_so_tramp_table+8(%rip)
2:
  pushq $1
  .cfi_adjust_cfa_offset 8
  call _libcuda_so_save_regs_and_resolve
  addq $8, %rsp
  .cfi_adjust_cfa_offset -8
  jmp *%rax
  .cfi_endproc

/*
 * Copyright 2018-2025 Yury Gribov
 *
 * The MIT License (MIT)
 *
 * Use of this source code is governed by MIT license that can be
 * found in the LICENSE.txt file.
 */

  .globl cuArray3DGetDescriptor
  .p2align 4
  .type cuArray3DGetDescriptor, %function
#ifndef IMPLIB_EXPORT_SHIMS
  .hidden cuArray3DGetDescriptor
#endif
cuArray3DGetDescriptor:
  .cfi_startproc
  .cfi_def_cfa_offset 8  // Return address
  // Intel opt. manual says to
  // "make the fall-through code following a conditional branch be the likely target for a branch with a forward target"
  // to hint static predictor.
  cmpq $0, _libcuda_so_tramp_table+16(%rip)
  je 2f
1:
  jmp *_libcuda_so_tramp_table+16(%rip)
2:
  pushq $2
  .cfi_adjust_cfa_offset 8
  call _libcuda_so_save_regs_and_resolve
  addq $8, %rsp
  .cfi_adjust_cfa_offset -8
  jmp *%rax
  .cfi_endproc

/*
 * Copyright 2018-2025 Yury Gribov
 *
 * The MIT License (MIT)
 *
 * Use of this source code is governed by MIT license that can be
 * found in the LICENSE.txt file.
 */

  .globl cuArray3DGetDescriptor_v2
  .p2align 4
  .type cuArray3DGetDescriptor_v2, %function
#ifndef IMPLIB_EXPORT_SHIMS
  .hidden cuArray3DGetDescriptor_v2
#endif
cuArray3DGetDescriptor_v2:
  .cfi_startproc
  .cfi_def_cfa_offset 8  // Return address
  // Intel opt. manual says to
  // "make the fall-through code following a conditional branch be the likely target for a branch with a forward target"
  // to hint static predictor.
  cmpq $0, _libcuda_so_tramp_table+24(%rip)
  je 2f
1:
  jmp *_libcuda_so_tramp_table+24(%rip)
2:
  pushq $3
  .cfi_adjust_cfa_offset 8
  call _libcuda_so_save_regs_and_resolve
  addq $8, %rsp
  .cfi_adjust_cfa_offset -8
  jmp *%rax
  .cfi_endproc

/*
 * Copyright 2018-2025 Yury Gribov
 *
 * The MIT License (MIT)
 *
 * Use of this source code is governed by MIT license that can be
 * found in the LICENSE.txt file.
 */

  .globl cuArrayCreate
  .p2align 4
  .type cuArrayCreate, %function
#ifndef IMPLIB_EXPORT_SHIMS
  .hidden cuArrayCreate
#endif
cuArrayCreate:
  .cfi_startproc
  .cfi_def_cfa_offset 8  // Return address
  // Intel opt. manual says to
  // "make the fall-through code following a conditional branch be the likely target for a branch with a forward target"
  // to hint static predictor.
  cmpq $0, _libcuda_so_tramp_table+32(%rip)
  je 2f
1:
  jmp *_libcuda_so_tramp_table+32(%rip)
2:
  pushq $4
  .cfi_adjust_cfa_offset 8
  call _libcuda_so_save_regs_and_resolve
  addq $8, %rsp
  .cfi_adjust_cfa_offset -8
  jmp *%rax
  .cfi_endproc

/*
 * Copyright 2018-2025 Yury Gribov
 *
 * The MIT License (MIT)
 *
 * Use of this source code is governed by MIT license that can be
 * found in the LICENSE.txt file.
 */

  .globl cuArrayCreate_v2
  .p2align 4
  .type cuArrayCreate_v2, %function
#ifndef IMPLIB_EXPORT_SHIMS
  .hidden cuArrayCreate_v2
#endif
cuArrayCreate_v2:
  .cfi_startproc
  .cfi_def_cfa_offset 8  // Return address
  // Intel opt. manual says to
  // "make the fall-through code following a conditional branch be the likely target for a branch with a forward target"
  // to hint static predictor.
  cmpq $0, _libcuda_so_tramp_table+40(%rip)
  je 2f
1:
  jmp *_libcuda_so_tramp_table+40(%rip)
2:
  pushq $5
  .cfi_adjust_cfa_offset 8
  call _libcuda_so_save_regs_and_resolve
  addq $8, %rsp
  .cfi_adjust_cfa_offset -8
  jmp *%rax
  .cfi_endproc

/*
 * Copyright 2018-2025 Yury Gribov
 *
 * The MIT License (MIT)
 *
 * Use of this source code is governed by MIT license that can be
 * found in the LICENSE.txt file.
 */

  .globl cuArrayDestroy
  .p2align 4
  .type cuArrayDestroy, %function
#ifndef IMPLIB_EXPORT_SHIMS
  .hidden cuArrayDestroy
#endif
cuArrayDestroy:
  .cfi_startproc
  .cfi_def_cfa_offset 8  // Return address
  // Intel opt. manual says to
  // "make the fall-through code following a conditional branch be the likely target for a branch with a forward target"
  // to hint static predictor.
  cmpq $0, _libcuda_so_tramp_table+48(%rip)
  je 2f
1:
  jmp *_libcuda_so_tramp_table+48(%rip)
2:
  pushq $6
  .cfi_adjust_cfa_offset 8
  call _libcuda_so_save_regs_and_resolve
  addq $8, %rsp
  .cfi_adjust_cfa_offset -8
  jmp *%rax
  .cfi_endproc

/*
 * Copyright 2018-2025 Yury Gribov
 *
 * The MIT License (MIT)
 *
 * Use of this source code is governed by MIT license that can be
 * found in the LICENSE.txt file.
 */

  .globl cuArrayGetDescriptor
  .p2align 4
  .type cuArrayGetDescriptor, %function
#ifndef IMPLIB_EXPORT_SHIMS
  .hidden cuArrayGetDescriptor
#endif
cuArrayGetDescriptor:
  .cfi_startproc
  .cfi_def_cfa_offset 8  // Return address
  // Intel opt. manual says to
  // "make the fall-through code following a conditional branch be the likely target for a branch with a forward target"
  // to hint static predictor.
  cmpq $0, _libcuda_so_tramp_table+56(%rip)
  je 2f
1:
  jmp *_libcuda_so_tramp_table+56(%rip)
2:
  pushq $7
  .cfi_adjust_cfa_offset 8
  call _libcuda_so_save_regs_and_resolve
  addq $8, %rsp
  .cfi_adjust_cfa_offset -8
  jmp *%rax
  .cfi_endproc

/*
 * Copyright 2018-2025 Yury Gribov
 *
 * The MIT License (MIT)
 *
 * Use of this source code is governed by MIT license that can be
 * found in the LICENSE.txt file.
 */

  .globl cuArrayGetDescriptor_v2
  .p2align 4
  .type cuArrayGetDescriptor_v2, %function
#ifndef IMPLIB_EXPORT_SHIMS
  .hidden cuArrayGetDescriptor_v2
#endif
cuArrayGetDescriptor_v2:
  .cfi_startproc
  .cfi_def_cfa_offset 8  // Return address
  // Intel opt. manual says to
  // "make the fall-through code following a conditional branch be the likely target for a branch with a forward target"
  // to hint static predictor.
  cmpq $0, _libcuda_so_tramp_table+64(%rip)
  je 2f
1:
  jmp *_libcuda_so_tramp_table+64(%rip)
2:
  pushq $8
  .cfi_adjust_cfa_offset 8
  call _libcuda_so_save_regs_and_resolve
  addq $8, %rsp
  .cfi_adjust_cfa_offset -8
  jmp *%rax
  .cfi_endproc

/*
 * Copyright 2018-2025 Yury Gribov
 *
 * The MIT License (MIT)
 *
 * Use of this source code is governed by MIT license that can be
 * found in the LICENSE.txt file.
 */

  .globl cuArrayGetMemoryRequirements
  .p2align 4
  .type cuArrayGetMemoryRequirements, %function
#ifndef IMPLIB_EXPORT_SHIMS
  .hidden cuArrayGetMemoryRequirements
#endif
cuArrayGetMemoryRequirements:
  .cfi_startproc
  .cfi_def_cfa_offset 8  // Return address
  // Intel opt. manual says to
  // "make the fall-through code following a conditional branch be the likely target for a branch with a forward target"
  // to hint static predictor.
  cmpq $0, _libcuda_so_tramp_table+72(%rip)
  je 2f
1:
  jmp *_libcuda_so_tramp_table+72(%rip)
2:
  pushq $9
  .cfi_adjust_cfa_offset 8
  call _libcuda_so_save_regs_and_resolve
  addq $8, %rsp
  .cfi_adjust_cfa_offset -8
  jmp *%rax
  .cfi_endproc

/*
 * Copyright 2018-2025 Yury Gribov
 *
 * The MIT License (MIT)
 *
 * Use of this source code is governed by MIT license that can be
 * found in the LICENSE.txt file.
 */

  .globl cuArrayGetPlane
  .p2align 4
  .type cuArrayGetPlane, %function
#ifndef IMPLIB_EXPORT_SHIMS
  .hidden cuArrayGetPlane
#endif
cuArrayGetPlane:
  .cfi_startproc
  .cfi_def_cfa_offset 8  // Return address
  // Intel opt. manual says to
  // "make the fall-through code following a conditional branch be the likely target for a branch with a forward target"
  // to hint static predictor.
  cmpq $0, _libcuda_so_tramp_table+80(%rip)
  je 2f
1:
  jmp *_libcuda_so_tramp_table+80(%rip)
2:
  pushq $10
  .cfi_adjust_cfa_offset 8
  call _libcuda_so_save_regs_and_resolve
  addq $8, %rsp
  .cfi_adjust_cfa_offset -8
  jmp *%rax
  .cfi_endproc

/*
 * Copyright 2018-2025 Yury Gribov
 *
 * The MIT License (MIT)
 *
 * Use of this source code is governed by MIT license that can be
 * found in the LICENSE.txt file.
 */

  .globl cuArrayGetSparseProperties
  .p2align 4
  .type cuArrayGetSparseProperties, %function
#ifndef IMPLIB_EXPORT_SHIMS
  .hidden cuArrayGetSparseProperties
#endif
cuArrayGetSparseProperties:
  .cfi_startproc
  .cfi_def_cfa_offset 8  // Return address
  // Intel opt. manual says to
  // "make the fall-through code following a conditional branch be the likely target for a branch with a forward target"
  // to hint static predictor.
  cmpq $0, _libcuda_so_tramp_table+88(%rip)
  je 2f
1:
  jmp *_libcuda_so_tramp_table+88(%rip)
2:
  pushq $11
  .cfi_adjust_cfa_offset 8
  call _libcuda_so_save_regs_and_resolve
  addq $8, %rsp
  .cfi_adjust_cfa_offset -8
  jmp *%rax
  .cfi_endproc

/*
 * Copyright 2018-2025 Yury Gribov
 *
 * The MIT License (MIT)
 *
 * Use of this source code is governed by MIT license that can be
 * found in the LICENSE.txt file.
 */

  .globl cuCheckpointProcessCheckpoint
  .p2align 4
  .type cuCheckpointProcessCheckpoint, %function
#ifndef IMPLIB_EXPORT_SHIMS
  .hidden cuCheckpointProcessCheckpoint
#endif
cuCheckpointProcessCheckpoint:
  .cfi_startproc
  .cfi_def_cfa_offset 8  // Return address
  // Intel opt. manual says to
  // "make the fall-through code following a conditional branch be the likely target for a branch with a forward target"
  // to hint static predictor.
  cmpq $0, _libcuda_so_tramp_table+96(%rip)
  je 2f
1:
  jmp *_libcuda_so_tramp_table+96(%rip)
2:
  pushq $12
  .cfi_adjust_cfa_offset 8
  call _libcuda_so_save_regs_and_resolve
  addq $8, %rsp
  .cfi_adjust_cfa_offset -8
  jmp *%rax
  .cfi_endproc

/*
 * Copyright 2018-2025 Yury Gribov
 *
 * The MIT License (MIT)
 *
 * Use of this source code is governed by MIT license that can be
 * found in the LICENSE.txt file.
 */

  .globl cuCheckpointProcessGetRestoreThreadId
  .p2align 4
  .type cuCheckpointProcessGetRestoreThreadId, %function
#ifndef IMPLIB_EXPORT_SHIMS
  .hidden cuCheckpointProcessGetRestoreThreadId
#endif
cuCheckpointProcessGetRestoreThreadId:
  .cfi_startproc
  .cfi_def_cfa_offset 8  // Return address
  // Intel opt. manual says to
  // "make the fall-through code following a conditional branch be the likely target for a branch with a forward target"
  // to hint static predictor.
  cmpq $0, _libcuda_so_tramp_table+104(%rip)
  je 2f
1:
  jmp *_libcuda_so_tramp_table+104(%rip)
2:
  pushq $13
  .cfi_adjust_cfa_offset 8
  call _libcuda_so_save_regs_and_resolve
  addq $8, %rsp
  .cfi_adjust_cfa_offset -8
  jmp *%rax
  .cfi_endproc

/*
 * Copyright 2018-2025 Yury Gribov
 *
 * The MIT License (MIT)
 *
 * Use of this source code is governed by MIT license that can be
 * found in the LICENSE.txt file.
 */

  .globl cuCheckpointProcessGetState
  .p2align 4
  .type cuCheckpointProcessGetState, %function
#ifndef IMPLIB_EXPORT_SHIMS
  .hidden cuCheckpointProcessGetState
#endif
cuCheckpointProcessGetState:
  .cfi_startproc
  .cfi_def_cfa_offset 8  // Return address
  // Intel opt. manual says to
  // "make the fall-through code following a conditional branch be the likely target for a branch with a forward target"
  // to hint static predictor.
  cmpq $0, _libcuda_so_tramp_table+112(%rip)
  je 2f
1:
  jmp *_libcuda_so_tramp_table+112(%rip)
2:
  pushq $14
  .cfi_adjust_cfa_offset 8
  call _libcuda_so_save_regs_and_resolve
  addq $8, %rsp
  .cfi_adjust_cfa_offset -8
  jmp *%rax
  .cfi_endproc

/*
 * Copyright 2018-2025 Yury Gribov
 *
 * The MIT License (MIT)
 *
 * Use of this source code is governed by MIT license that can be
 * found in the LICENSE.txt file.
 */

  .globl cuCheckpointProcessLock
  .p2align 4
  .type cuCheckpointProcessLock, %function
#ifndef IMPLIB_EXPORT_SHIMS
  .hidden cuCheckpointProcessLock
#endif
cuCheckpointProcessLock:
  .cfi_startproc
  .cfi_def_cfa_offset 8  // Return address
  // Intel opt. manual says to
  // "make the fall-through code following a conditional branch be the likely target for a branch with a forward target"
  // to hint static predictor.
  cmpq $0, _libcuda_so_tramp_table+120(%rip)
  je 2f
1:
  jmp *_libcuda_so_tramp_table+120(%rip)
2:
  pushq $15
  .cfi_adjust_cfa_offset 8
  call _libcuda_so_save_regs_and_resolve
  addq $8, %rsp
  .cfi_adjust_cfa_offset -8
  jmp *%rax
  .cfi_endproc

/*
 * Copyright 2018-2025 Yury Gribov
 *
 * The MIT License (MIT)
 *
 * Use of this source code is governed by MIT license that can be
 * found in the LICENSE.txt file.
 */

  .globl cuCheckpointProcessRestore
  .p2align 4
  .type cuCheckpointProcessRestore, %function
#ifndef IMPLIB_EXPORT_SHIMS
  .hidden cuCheckpointProcessRestore
#endif
cuCheckpointProcessRestore:
  .cfi_startproc
  .cfi_def_cfa_offset 8  // Return address
  // Intel opt. manual says to
  // "make the fall-through code following a conditional branch be the likely target for a branch with a forward target"
  // to hint static predictor.
  cmpq $0, _libcuda_so_tramp_table+128(%rip)
  je 2f
1:
  jmp *_libcuda_so_tramp_table+128(%rip)
2:
  pushq $16
  .cfi_adjust_cfa_offset 8
  call _libcuda_so_save_regs_and_resolve
  addq $8, %rsp
  .cfi_adjust_cfa_offset -8
  jmp *%rax
  .cfi_endproc

/*
 * Copyright 2018-2025 Yury Gribov
 *
 * The MIT License (MIT)
 *
 * Use of this source code is governed by MIT license that can be
 * found in the LICENSE.txt file.
 */

  .globl cuCheckpointProcessUnlock
  .p2align 4
  .type cuCheckpointProcessUnlock, %function
#ifndef IMPLIB_EXPORT_SHIMS
  .hidden cuCheckpointProcessUnlock
#endif
cuCheckpointProcessUnlock:
  .cfi_startproc
  .cfi_def_cfa_offset 8  // Return address
  // Intel opt. manual says to
  // "make the fall-through code following a conditional branch be the likely target for a branch with a forward target"
  // to hint static predictor.
  cmpq $0, _libcuda_so_tramp_table+136(%rip)
  je 2f
1:
  jmp *_libcuda_so_tramp_table+136(%rip)
2:
  pushq $17
  .cfi_adjust_cfa_offset 8
  call _libcuda_so_save_regs_and_resolve
  addq $8, %rsp
  .cfi_adjust_cfa_offset -8
  jmp *%rax
  .cfi_endproc

/*
 * Copyright 2018-2025 Yury Gribov
 *
 * The MIT License (MIT)
 *
 * Use of this source code is governed by MIT license that can be
 * found in the LICENSE.txt file.
 */

  .globl cuCoredumpGetAttribute
  .p2align 4
  .type cuCoredumpGetAttribute, %function
#ifndef IMPLIB_EXPORT_SHIMS
  .hidden cuCoredumpGetAttribute
#endif
cuCoredumpGetAttribute:
  .cfi_startproc
  .cfi_def_cfa_offset 8  // Return address
  // Intel opt. manual says to
  // "make the fall-through code following a conditional branch be the likely target for a branch with a forward target"
  // to hint static predictor.
  cmpq $0, _libcuda_so_tramp_table+144(%rip)
  je 2f
1:
  jmp *_libcuda_so_tramp_table+144(%rip)
2:
  pushq $18
  .cfi_adjust_cfa_offset 8
  call _libcuda_so_save_regs_and_resolve
  addq $8, %rsp
  .cfi_adjust_cfa_offset -8
  jmp *%rax
  .cfi_endproc

/*
 * Copyright 2018-2025 Yury Gribov
 *
 * The MIT License (MIT)
 *
 * Use of this source code is governed by MIT license that can be
 * found in the LICENSE.txt file.
 */

  .globl cuCoredumpGetAttributeGlobal
  .p2align 4
  .type cuCoredumpGetAttributeGlobal, %function
#ifndef IMPLIB_EXPORT_SHIMS
  .hidden cuCoredumpGetAttributeGlobal
#endif
cuCoredumpGetAttributeGlobal:
  .cfi_startproc
  .cfi_def_cfa_offset 8  // Return address
  // Intel opt. manual says to
  // "make the fall-through code following a conditional branch be the likely target for a branch with a forward target"
  // to hint static predictor.
  cmpq $0, _libcuda_so_tramp_table+152(%rip)
  je 2f
1:
  jmp *_libcuda_so_tramp_table+152(%rip)
2:
  pushq $19
  .cfi_adjust_cfa_offset 8
  call _libcuda_so_save_regs_and_resolve
  addq $8, %rsp
  .cfi_adjust_cfa_offset -8
  jmp *%rax
  .cfi_endproc

/*
 * Copyright 2018-2025 Yury Gribov
 *
 * The MIT License (MIT)
 *
 * Use of this source code is governed by MIT license that can be
 * found in the LICENSE.txt file.
 */

  .globl cuCoredumpSetAttribute
  .p2align 4
  .type cuCoredumpSetAttribute, %function
#ifndef IMPLIB_EXPORT_SHIMS
  .hidden cuCoredumpSetAttribute
#endif
cuCoredumpSetAttribute:
  .cfi_startproc
  .cfi_def_cfa_offset 8  // Return address
  // Intel opt. manual says to
  // "make the fall-through code following a conditional branch be the likely target for a branch with a forward target"
  // to hint static predictor.
  cmpq $0, _libcuda_so_tramp_table+160(%rip)
  je 2f
1:
  jmp *_libcuda_so_tramp_table+160(%rip)
2:
  pushq $20
  .cfi_adjust_cfa_offset 8
  call _libcuda_so_save_regs_and_resolve
  addq $8, %rsp
  .cfi_adjust_cfa_offset -8
  jmp *%rax
  .cfi_endproc

/*
 * Copyright 2018-2025 Yury Gribov
 *
 * The MIT License (MIT)
 *
 * Use of this source code is governed by MIT license that can be
 * found in the LICENSE.txt file.
 */

  .globl cuCoredumpSetAttributeGlobal
  .p2align 4
  .type cuCoredumpSetAttributeGlobal, %function
#ifndef IMPLIB_EXPORT_SHIMS
  .hidden cuCoredumpSetAttributeGlobal
#endif
cuCoredumpSetAttributeGlobal:
  .cfi_startproc
  .cfi_def_cfa_offset 8  // Return address
  // Intel opt. manual says to
  // "make the fall-through code following a conditional branch be the likely target for a branch with a forward target"
  // to hint static predictor.
  cmpq $0, _libcuda_so_tramp_table+168(%rip)
  je 2f
1:
  jmp *_libcuda_so_tramp_table+168(%rip)
2:
  pushq $21
  .cfi_adjust_cfa_offset 8
  call _libcuda_so_save_regs_and_resolve
  addq $8, %rsp
  .cfi_adjust_cfa_offset -8
  jmp *%rax
  .cfi_endproc

/*
 * Copyright 2018-2025 Yury Gribov
 *
 * The MIT License (MIT)
 *
 * Use of this source code is governed by MIT license that can be
 * found in the LICENSE.txt file.
 */

  .globl cuCtxAttach
  .p2align 4
  .type cuCtxAttach, %function
#ifndef IMPLIB_EXPORT_SHIMS
  .hidden cuCtxAttach
#endif
cuCtxAttach:
  .cfi_startproc
  .cfi_def_cfa_offset 8  // Return address
  // Intel opt. manual says to
  // "make the fall-through code following a conditional branch be the likely target for a branch with a forward target"
  // to hint static predictor.
  cmpq $0, _libcuda_so_tramp_table+176(%rip)
  je 2f
1:
  jmp *_libcuda_so_tramp_table+176(%rip)
2:
  pushq $22
  .cfi_adjust_cfa_offset 8
  call _libcuda_so_save_regs_and_resolve
  addq $8, %rsp
  .cfi_adjust_cfa_offset -8
  jmp *%rax
  .cfi_endproc

/*
 * Copyright 2018-2025 Yury Gribov
 *
 * The MIT License (MIT)
 *
 * Use of this source code is governed by MIT license that can be
 * found in the LICENSE.txt file.
 */

  .globl cuCtxCreate
  .p2align 4
  .type cuCtxCreate, %function
#ifndef IMPLIB_EXPORT_SHIMS
  .hidden cuCtxCreate
#endif
cuCtxCreate:
  .cfi_startproc
  .cfi_def_cfa_offset 8  // Return address
  // Intel opt. manual says to
  // "make the fall-through code following a conditional branch be the likely target for a branch with a forward target"
  // to hint static predictor.
  cmpq $0, _libcuda_so_tramp_table+184(%rip)
  je 2f
1:
  jmp *_libcuda_so_tramp_table+184(%rip)
2:
  pushq $23
  .cfi_adjust_cfa_offset 8
  call _libcuda_so_save_regs_and_resolve
  addq $8, %rsp
  .cfi_adjust_cfa_offset -8
  jmp *%rax
  .cfi_endproc

/*
 * Copyright 2018-2025 Yury Gribov
 *
 * The MIT License (MIT)
 *
 * Use of this source code is governed by MIT license that can be
 * found in the LICENSE.txt file.
 */

  .globl cuCtxCreate_v2
  .p2align 4
  .type cuCtxCreate_v2, %function
#ifndef IMPLIB_EXPORT_SHIMS
  .hidden cuCtxCreate_v2
#endif
cuCtxCreate_v2:
  .cfi_startproc
  .cfi_def_cfa_offset 8  // Return address
  // Intel opt. manual says to
  // "make the fall-through code following a conditional branch be the likely target for a branch with a forward target"
  // to hint static predictor.
  cmpq $0, _libcuda_so_tramp_table+192(%rip)
  je 2f
1:
  jmp *_libcuda_so_tramp_table+192(%rip)
2:
  pushq $24
  .cfi_adjust_cfa_offset 8
  call _libcuda_so_save_regs_and_resolve
  addq $8, %rsp
  .cfi_adjust_cfa_offset -8
  jmp *%rax
  .cfi_endproc

/*
 * Copyright 2018-2025 Yury Gribov
 *
 * The MIT License (MIT)
 *
 * Use of this source code is governed by MIT license that can be
 * found in the LICENSE.txt file.
 */

  .globl cuCtxCreate_v3
  .p2align 4
  .type cuCtxCreate_v3, %function
#ifndef IMPLIB_EXPORT_SHIMS
  .hidden cuCtxCreate_v3
#endif
cuCtxCreate_v3:
  .cfi_startproc
  .cfi_def_cfa_offset 8  // Return address
  // Intel opt. manual says to
  // "make the fall-through code following a conditional branch be the likely target for a branch with a forward target"
  // to hint static predictor.
  cmpq $0, _libcuda_so_tramp_table+200(%rip)
  je 2f
1:
  jmp *_libcuda_so_tramp_table+200(%rip)
2:
  pushq $25
  .cfi_adjust_cfa_offset 8
  call _libcuda_so_save_regs_and_resolve
  addq $8, %rsp
  .cfi_adjust_cfa_offset -8
  jmp *%rax
  .cfi_endproc

/*
 * Copyright 2018-2025 Yury Gribov
 *
 * The MIT License (MIT)
 *
 * Use of this source code is governed by MIT license that can be
 * found in the LICENSE.txt file.
 */

  .globl cuCtxCreate_v4
  .p2align 4
  .type cuCtxCreate_v4, %function
#ifndef IMPLIB_EXPORT_SHIMS
  .hidden cuCtxCreate_v4
#endif
cuCtxCreate_v4:
  .cfi_startproc
  .cfi_def_cfa_offset 8  // Return address
  // Intel opt. manual says to
  // "make the fall-through code following a conditional branch be the likely target for a branch with a forward target"
  // to hint static predictor.
  cmpq $0, _libcuda_so_tramp_table+208(%rip)
  je 2f
1:
  jmp *_libcuda_so_tramp_table+208(%rip)
2:
  pushq $26
  .cfi_adjust_cfa_offset 8
  call _libcuda_so_save_regs_and_resolve
  addq $8, %rsp
  .cfi_adjust_cfa_offset -8
  jmp *%rax
  .cfi_endproc

/*
 * Copyright 2018-2025 Yury Gribov
 *
 * The MIT License (MIT)
 *
 * Use of this source code is governed by MIT license that can be
 * found in the LICENSE.txt file.
 */

  .globl cuCtxDestroy
  .p2align 4
  .type cuCtxDestroy, %function
#ifndef IMPLIB_EXPORT_SHIMS
  .hidden cuCtxDestroy
#endif
cuCtxDestroy:
  .cfi_startproc
  .cfi_def_cfa_offset 8  // Return address
  // Intel opt. manual says to
  // "make the fall-through code following a conditional branch be the likely target for a branch with a forward target"
  // to hint static predictor.
  cmpq $0, _libcuda_so_tramp_table+216(%rip)
  je 2f
1:
  jmp *_libcuda_so_tramp_table+216(%rip)
2:
  pushq $27
  .cfi_adjust_cfa_offset 8
  call _libcuda_so_save_regs_and_resolve
  addq $8, %rsp
  .cfi_adjust_cfa_offset -8
  jmp *%rax
  .cfi_endproc

/*
 * Copyright 2018-2025 Yury Gribov
 *
 * The MIT License (MIT)
 *
 * Use of this source code is governed by MIT license that can be
 * found in the LICENSE.txt file.
 */

  .globl cuCtxDestroy_v2
  .p2align 4
  .type cuCtxDestroy_v2, %function
#ifndef IMPLIB_EXPORT_SHIMS
  .hidden cuCtxDestroy_v2
#endif
cuCtxDestroy_v2:
  .cfi_startproc
  .cfi_def_cfa_offset 8  // Return address
  // Intel opt. manual says to
  // "make the fall-through code following a conditional branch be the likely target for a branch with a forward target"
  // to hint static predictor.
  cmpq $0, _libcuda_so_tramp_table+224(%rip)
  je 2f
1:
  jmp *_libcuda_so_tramp_table+224(%rip)
2:
  pushq $28
  .cfi_adjust_cfa_offset 8
  call _libcuda_so_save_regs_and_resolve
  addq $8, %rsp
  .cfi_adjust_cfa_offset -8
  jmp *%rax
  .cfi_endproc

/*
 * Copyright 2018-2025 Yury Gribov
 *
 * The MIT License (MIT)
 *
 * Use of this source code is governed by MIT license that can be
 * found in the LICENSE.txt file.
 */

  .globl cuCtxDetach
  .p2align 4
  .type cuCtxDetach, %function
#ifndef IMPLIB_EXPORT_SHIMS
  .hidden cuCtxDetach
#endif
cuCtxDetach:
  .cfi_startproc
  .cfi_def_cfa_offset 8  // Return address
  // Intel opt. manual says to
  // "make the fall-through code following a conditional branch be the likely target for a branch with a forward target"
  // to hint static predictor.
  cmpq $0, _libcuda_so_tramp_table+232(%rip)
  je 2f
1:
  jmp *_libcuda_so_tramp_table+232(%rip)
2:
  pushq $29
  .cfi_adjust_cfa_offset 8
  call _libcuda_so_save_regs_and_resolve
  addq $8, %rsp
  .cfi_adjust_cfa_offset -8
  jmp *%rax
  .cfi_endproc

/*
 * Copyright 2018-2025 Yury Gribov
 *
 * The MIT License (MIT)
 *
 * Use of this source code is governed by MIT license that can be
 * found in the LICENSE.txt file.
 */

  .globl cuCtxDisablePeerAccess
  .p2align 4
  .type cuCtxDisablePeerAccess, %function
#ifndef IMPLIB_EXPORT_SHIMS
  .hidden cuCtxDisablePeerAccess
#endif
cuCtxDisablePeerAccess:
  .cfi_startproc
  .cfi_def_cfa_offset 8  // Return address
  // Intel opt. manual says to
  // "make the fall-through code following a conditional branch be the likely target for a branch with a forward target"
  // to hint static predictor.
  cmpq $0, _libcuda_so_tramp_table+240(%rip)
  je 2f
1:
  jmp *_libcuda_so_tramp_table+240(%rip)
2:
  pushq $30
  .cfi_adjust_cfa_offset 8
  call _libcuda_so_save_regs_and_resolve
  addq $8, %rsp
  .cfi_adjust_cfa_offset -8
  jmp *%rax
  .cfi_endproc

/*
 * Copyright 2018-2025 Yury Gribov
 *
 * The MIT License (MIT)
 *
 * Use of this source code is governed by MIT license that can be
 * found in the LICENSE.txt file.
 */

  .globl cuCtxEnablePeerAccess
  .p2align 4
  .type cuCtxEnablePeerAccess, %function
#ifndef IMPLIB_EXPORT_SHIMS
  .hidden cuCtxEnablePeerAccess
#endif
cuCtxEnablePeerAccess:
  .cfi_startproc
  .cfi_def_cfa_offset 8  // Return address
  // Intel opt. manual says to
  // "make the fall-through code following a conditional branch be the likely target for a branch with a forward target"
  // to hint static predictor.
  cmpq $0, _libcuda_so_tramp_table+248(%rip)
  je 2f
1:
  jmp *_libcuda_so_tramp_table+248(%rip)
2:
  pushq $31
  .cfi_adjust_cfa_offset 8
  call _libcuda_so_save_regs_and_resolve
  addq $8, %rsp
  .cfi_adjust_cfa_offset -8
  jmp *%rax
  .cfi_endproc

/*
 * Copyright 2018-2025 Yury Gribov
 *
 * The MIT License (MIT)
 *
 * Use of this source code is governed by MIT license that can be
 * found in the LICENSE.txt file.
 */

  .globl cuCtxFromGreenCtx
  .p2align 4
  .type cuCtxFromGreenCtx, %function
#ifndef IMPLIB_EXPORT_SHIMS
  .hidden cuCtxFromGreenCtx
#endif
cuCtxFromGreenCtx:
  .cfi_startproc
  .cfi_def_cfa_offset 8  // Return address
  // Intel opt. manual says to
  // "make the fall-through code following a conditional branch be the likely target for a branch with a forward target"
  // to hint static predictor.
  cmpq $0, _libcuda_so_tramp_table+256(%rip)
  je 2f
1:
  jmp *_libcuda_so_tramp_table+256(%rip)
2:
  pushq $32
  .cfi_adjust_cfa_offset 8
  call _libcuda_so_save_regs_and_resolve
  addq $8, %rsp
  .cfi_adjust_cfa_offset -8
  jmp *%rax
  .cfi_endproc

/*
 * Copyright 2018-2025 Yury Gribov
 *
 * The MIT License (MIT)
 *
 * Use of this source code is governed by MIT license that can be
 * found in the LICENSE.txt file.
 */

  .globl cuCtxGetApiVersion
  .p2align 4
  .type cuCtxGetApiVersion, %function
#ifndef IMPLIB_EXPORT_SHIMS
  .hidden cuCtxGetApiVersion
#endif
cuCtxGetApiVersion:
  .cfi_startproc
  .cfi_def_cfa_offset 8  // Return address
  // Intel opt. manual says to
  // "make the fall-through code following a conditional branch be the likely target for a branch with a forward target"
  // to hint static predictor.
  cmpq $0, _libcuda_so_tramp_table+264(%rip)
  je 2f
1:
  jmp *_libcuda_so_tramp_table+264(%rip)
2:
  pushq $33
  .cfi_adjust_cfa_offset 8
  call _libcuda_so_save_regs_and_resolve
  addq $8, %rsp
  .cfi_adjust_cfa_offset -8
  jmp *%rax
  .cfi_endproc

/*
 * Copyright 2018-2025 Yury Gribov
 *
 * The MIT License (MIT)
 *
 * Use of this source code is governed by MIT license that can be
 * found in the LICENSE.txt file.
 */

  .globl cuCtxGetCacheConfig
  .p2align 4
  .type cuCtxGetCacheConfig, %function
#ifndef IMPLIB_EXPORT_SHIMS
  .hidden cuCtxGetCacheConfig
#endif
cuCtxGetCacheConfig:
  .cfi_startproc
  .cfi_def_cfa_offset 8  // Return address
  // Intel opt. manual says to
  // "make the fall-through code following a conditional branch be the likely target for a branch with a forward target"
  // to hint static predictor.
  cmpq $0, _libcuda_so_tramp_table+272(%rip)
  je 2f
1:
  jmp *_libcuda_so_tramp_table+272(%rip)
2:
  pushq $34
  .cfi_adjust_cfa_offset 8
  call _libcuda_so_save_regs_and_resolve
  addq $8, %rsp
  .cfi_adjust_cfa_offset -8
  jmp *%rax
  .cfi_endproc

/*
 * Copyright 2018-2025 Yury Gribov
 *
 * The MIT License (MIT)
 *
 * Use of this source code is governed by MIT license that can be
 * found in the LICENSE.txt file.
 */

  .globl cuCtxGetCurrent
  .p2align 4
  .type cuCtxGetCurrent, %function
#ifndef IMPLIB_EXPORT_SHIMS
  .hidden cuCtxGetCurrent
#endif
cuCtxGetCurrent:
  .cfi_startproc
  .cfi_def_cfa_offset 8  // Return address
  // Intel opt. manual says to
  // "make the fall-through code following a conditional branch be the likely target for a branch with a forward target"
  // to hint static predictor.
  cmpq $0, _libcuda_so_tramp_table+280(%rip)
  je 2f
1:
  jmp *_libcuda_so_tramp_table+280(%rip)
2:
  pushq $35
  .cfi_adjust_cfa_offset 8
  call _libcuda_so_save_regs_and_resolve
  addq $8, %rsp
  .cfi_adjust_cfa_offset -8
  jmp *%rax
  .cfi_endproc

/*
 * Copyright 2018-2025 Yury Gribov
 *
 * The MIT License (MIT)
 *
 * Use of this source code is governed by MIT license that can be
 * found in the LICENSE.txt file.
 */

  .globl cuCtxGetDevResource
  .p2align 4
  .type cuCtxGetDevResource, %function
#ifndef IMPLIB_EXPORT_SHIMS
  .hidden cuCtxGetDevResource
#endif
cuCtxGetDevResource:
  .cfi_startproc
  .cfi_def_cfa_offset 8  // Return address
  // Intel opt. manual says to
  // "make the fall-through code following a conditional branch be the likely target for a branch with a forward target"
  // to hint static predictor.
  cmpq $0, _libcuda_so_tramp_table+288(%rip)
  je 2f
1:
  jmp *_libcuda_so_tramp_table+288(%rip)
2:
  pushq $36
  .cfi_adjust_cfa_offset 8
  call _libcuda_so_save_regs_and_resolve
  addq $8, %rsp
  .cfi_adjust_cfa_offset -8
  jmp *%rax
  .cfi_endproc

/*
 * Copyright 2018-2025 Yury Gribov
 *
 * The MIT License (MIT)
 *
 * Use of this source code is governed by MIT license that can be
 * found in the LICENSE.txt file.
 */

  .globl cuCtxGetDevice
  .p2align 4
  .type cuCtxGetDevice, %function
#ifndef IMPLIB_EXPORT_SHIMS
  .hidden cuCtxGetDevice
#endif
cuCtxGetDevice:
  .cfi_startproc
  .cfi_def_cfa_offset 8  // Return address
  // Intel opt. manual says to
  // "make the fall-through code following a conditional branch be the likely target for a branch with a forward target"
  // to hint static predictor.
  cmpq $0, _libcuda_so_tramp_table+296(%rip)
  je 2f
1:
  jmp *_libcuda_so_tramp_table+296(%rip)
2:
  pushq $37
  .cfi_adjust_cfa_offset 8
  call _libcuda_so_save_regs_and_resolve
  addq $8, %rsp
  .cfi_adjust_cfa_offset -8
  jmp *%rax
  .cfi_endproc

/*
 * Copyright 2018-2025 Yury Gribov
 *
 * The MIT License (MIT)
 *
 * Use of this source code is governed by MIT license that can be
 * found in the LICENSE.txt file.
 */

  .globl cuCtxGetExecAffinity
  .p2align 4
  .type cuCtxGetExecAffinity, %function
#ifndef IMPLIB_EXPORT_SHIMS
  .hidden cuCtxGetExecAffinity
#endif
cuCtxGetExecAffinity:
  .cfi_startproc
  .cfi_def_cfa_offset 8  // Return address
  // Intel opt. manual says to
  // "make the fall-through code following a conditional branch be the likely target for a branch with a forward target"
  // to hint static predictor.
  cmpq $0, _libcuda_so_tramp_table+304(%rip)
  je 2f
1:
  jmp *_libcuda_so_tramp_table+304(%rip)
2:
  pushq $38
  .cfi_adjust_cfa_offset 8
  call _libcuda_so_save_regs_and_resolve
  addq $8, %rsp
  .cfi_adjust_cfa_offset -8
  jmp *%rax
  .cfi_endproc

/*
 * Copyright 2018-2025 Yury Gribov
 *
 * The MIT License (MIT)
 *
 * Use of this source code is governed by MIT license that can be
 * found in the LICENSE.txt file.
 */

  .globl cuCtxGetFlags
  .p2align 4
  .type cuCtxGetFlags, %function
#ifndef IMPLIB_EXPORT_SHIMS
  .hidden cuCtxGetFlags
#endif
cuCtxGetFlags:
  .cfi_startproc
  .cfi_def_cfa_offset 8  // Return address
  // Intel opt. manual says to
  // "make the fall-through code following a conditional branch be the likely target for a branch with a forward target"
  // to hint static predictor.
  cmpq $0, _libcuda_so_tramp_table+312(%rip)
  je 2f
1:
  jmp *_libcuda_so_tramp_table+312(%rip)
2:
  pushq $39
  .cfi_adjust_cfa_offset 8
  call _libcuda_so_save_regs_and_resolve
  addq $8, %rsp
  .cfi_adjust_cfa_offset -8
  jmp *%rax
  .cfi_endproc

/*
 * Copyright 2018-2025 Yury Gribov
 *
 * The MIT License (MIT)
 *
 * Use of this source code is governed by MIT license that can be
 * found in the LICENSE.txt file.
 */

  .globl cuCtxGetId
  .p2align 4
  .type cuCtxGetId, %function
#ifndef IMPLIB_EXPORT_SHIMS
  .hidden cuCtxGetId
#endif
cuCtxGetId:
  .cfi_startproc
  .cfi_def_cfa_offset 8  // Return address
  // Intel opt. manual says to
  // "make the fall-through code following a conditional branch be the likely target for a branch with a forward target"
  // to hint static predictor.
  cmpq $0, _libcuda_so_tramp_table+320(%rip)
  je 2f
1:
  jmp *_libcuda_so_tramp_table+320(%rip)
2:
  pushq $40
  .cfi_adjust_cfa_offset 8
  call _libcuda_so_save_regs_and_resolve
  addq $8, %rsp
  .cfi_adjust_cfa_offset -8
  jmp *%rax
  .cfi_endproc

/*
 * Copyright 2018-2025 Yury Gribov
 *
 * The MIT License (MIT)
 *
 * Use of this source code is governed by MIT license that can be
 * found in the LICENSE.txt file.
 */

  .globl cuCtxGetLimit
  .p2align 4
  .type cuCtxGetLimit, %function
#ifndef IMPLIB_EXPORT_SHIMS
  .hidden cuCtxGetLimit
#endif
cuCtxGetLimit:
  .cfi_startproc
  .cfi_def_cfa_offset 8  // Return address
  // Intel opt. manual says to
  // "make the fall-through code following a conditional branch be the likely target for a branch with a forward target"
  // to hint static predictor.
  cmpq $0, _libcuda_so_tramp_table+328(%rip)
  je 2f
1:
  jmp *_libcuda_so_tramp_table+328(%rip)
2:
  pushq $41
  .cfi_adjust_cfa_offset 8
  call _libcuda_so_save_regs_and_resolve
  addq $8, %rsp
  .cfi_adjust_cfa_offset -8
  jmp *%rax
  .cfi_endproc

/*
 * Copyright 2018-2025 Yury Gribov
 *
 * The MIT License (MIT)
 *
 * Use of this source code is governed by MIT license that can be
 * found in the LICENSE.txt file.
 */

  .globl cuCtxGetSharedMemConfig
  .p2align 4
  .type cuCtxGetSharedMemConfig, %function
#ifndef IMPLIB_EXPORT_SHIMS
  .hidden cuCtxGetSharedMemConfig
#endif
cuCtxGetSharedMemConfig:
  .cfi_startproc
  .cfi_def_cfa_offset 8  // Return address
  // Intel opt. manual says to
  // "make the fall-through code following a conditional branch be the likely target for a branch with a forward target"
  // to hint static predictor.
  cmpq $0, _libcuda_so_tramp_table+336(%rip)
  je 2f
1:
  jmp *_libcuda_so_tramp_table+336(%rip)
2:
  pushq $42
  .cfi_adjust_cfa_offset 8
  call _libcuda_so_save_regs_and_resolve
  addq $8, %rsp
  .cfi_adjust_cfa_offset -8
  jmp *%rax
  .cfi_endproc

/*
 * Copyright 2018-2025 Yury Gribov
 *
 * The MIT License (MIT)
 *
 * Use of this source code is governed by MIT license that can be
 * found in the LICENSE.txt file.
 */

  .globl cuCtxGetStreamPriorityRange
  .p2align 4
  .type cuCtxGetStreamPriorityRange, %function
#ifndef IMPLIB_EXPORT_SHIMS
  .hidden cuCtxGetStreamPriorityRange
#endif
cuCtxGetStreamPriorityRange:
  .cfi_startproc
  .cfi_def_cfa_offset 8  // Return address
  // Intel opt. manual says to
  // "make the fall-through code following a conditional branch be the likely target for a branch with a forward target"
  // to hint static predictor.
  cmpq $0, _libcuda_so_tramp_table+344(%rip)
  je 2f
1:
  jmp *_libcuda_so_tramp_table+344(%rip)
2:
  pushq $43
  .cfi_adjust_cfa_offset 8
  call _libcuda_so_save_regs_and_resolve
  addq $8, %rsp
  .cfi_adjust_cfa_offset -8
  jmp *%rax
  .cfi_endproc

/*
 * Copyright 2018-2025 Yury Gribov
 *
 * The MIT License (MIT)
 *
 * Use of this source code is governed by MIT license that can be
 * found in the LICENSE.txt file.
 */

  .globl cuCtxPopCurrent
  .p2align 4
  .type cuCtxPopCurrent, %function
#ifndef IMPLIB_EXPORT_SHIMS
  .hidden cuCtxPopCurrent
#endif
cuCtxPopCurrent:
  .cfi_startproc
  .cfi_def_cfa_offset 8  // Return address
  // Intel opt. manual says to
  // "make the fall-through code following a conditional branch be the likely target for a branch with a forward target"
  // to hint static predictor.
  cmpq $0, _libcuda_so_tramp_table+352(%rip)
  je 2f
1:
  jmp *_libcuda_so_tramp_table+352(%rip)
2:
  pushq $44
  .cfi_adjust_cfa_offset 8
  call _libcuda_so_save_regs_and_resolve
  addq $8, %rsp
  .cfi_adjust_cfa_offset -8
  jmp *%rax
  .cfi_endproc

/*
 * Copyright 2018-2025 Yury Gribov
 *
 * The MIT License (MIT)
 *
 * Use of this source code is governed by MIT license that can be
 * found in the LICENSE.txt file.
 */

  .globl cuCtxPopCurrent_v2
  .p2align 4
  .type cuCtxPopCurrent_v2, %function
#ifndef IMPLIB_EXPORT_SHIMS
  .hidden cuCtxPopCurrent_v2
#endif
cuCtxPopCurrent_v2:
  .cfi_startproc
  .cfi_def_cfa_offset 8  // Return address
  // Intel opt. manual says to
  // "make the fall-through code following a conditional branch be the likely target for a branch with a forward target"
  // to hint static predictor.
  cmpq $0, _libcuda_so_tramp_table+360(%rip)
  je 2f
1:
  jmp *_libcuda_so_tramp_table+360(%rip)
2:
  pushq $45
  .cfi_adjust_cfa_offset 8
  call _libcuda_so_save_regs_and_resolve
  addq $8, %rsp
  .cfi_adjust_cfa_offset -8
  jmp *%rax
  .cfi_endproc

/*
 * Copyright 2018-2025 Yury Gribov
 *
 * The MIT License (MIT)
 *
 * Use of this source code is governed by MIT license that can be
 * found in the LICENSE.txt file.
 */

  .globl cuCtxPushCurrent
  .p2align 4
  .type cuCtxPushCurrent, %function
#ifndef IMPLIB_EXPORT_SHIMS
  .hidden cuCtxPushCurrent
#endif
cuCtxPushCurrent:
  .cfi_startproc
  .cfi_def_cfa_offset 8  // Return address
  // Intel opt. manual says to
  // "make the fall-through code following a conditional branch be the likely target for a branch with a forward target"
  // to hint static predictor.
  cmpq $0, _libcuda_so_tramp_table+368(%rip)
  je 2f
1:
  jmp *_libcuda_so_tramp_table+368(%rip)
2:
  pushq $46
  .cfi_adjust_cfa_offset 8
  call _libcuda_so_save_regs_and_resolve
  addq $8, %rsp
  .cfi_adjust_cfa_offset -8
  jmp *%rax
  .cfi_endproc

/*
 * Copyright 2018-2025 Yury Gribov
 *
 * The MIT License (MIT)
 *
 * Use of this source code is governed by MIT license that can be
 * found in the LICENSE.txt file.
 */

  .globl cuCtxPushCurrent_v2
  .p2align 4
  .type cuCtxPushCurrent_v2, %function
#ifndef IMPLIB_EXPORT_SHIMS
  .hidden cuCtxPushCurrent_v2
#endif
cuCtxPushCurrent_v2:
  .cfi_startproc
  .cfi_def_cfa_offset 8  // Return address
  // Intel opt. manual says to
  // "make the fall-through code following a conditional branch be the likely target for a branch with a forward target"
  // to hint static predictor.
  cmpq $0, _libcuda_so_tramp_table+376(%rip)
  je 2f
1:
  jmp *_libcuda_so_tramp_table+376(%rip)
2:
  pushq $47
  .cfi_adjust_cfa_offset 8
  call _libcuda_so_save_regs_and_resolve
  addq $8, %rsp
  .cfi_adjust_cfa_offset -8
  jmp *%rax
  .cfi_endproc

/*
 * Copyright 2018-2025 Yury Gribov
 *
 * The MIT License (MIT)
 *
 * Use of this source code is governed by MIT license that can be
 * found in the LICENSE.txt file.
 */

  .globl cuCtxRecordEvent
  .p2align 4
  .type cuCtxRecordEvent, %function
#ifndef IMPLIB_EXPORT_SHIMS
  .hidden cuCtxRecordEvent
#endif
cuCtxRecordEvent:
  .cfi_startproc
  .cfi_def_cfa_offset 8  // Return address
  // Intel opt. manual says to
  // "make the fall-through code following a conditional branch be the likely target for a branch with a forward target"
  // to hint static predictor.
  cmpq $0, _libcuda_so_tramp_table+384(%rip)
  je 2f
1:
  jmp *_libcuda_so_tramp_table+384(%rip)
2:
  pushq $48
  .cfi_adjust_cfa_offset 8
  call _libcuda_so_save_regs_and_resolve
  addq $8, %rsp
  .cfi_adjust_cfa_offset -8
  jmp *%rax
  .cfi_endproc

/*
 * Copyright 2018-2025 Yury Gribov
 *
 * The MIT License (MIT)
 *
 * Use of this source code is governed by MIT license that can be
 * found in the LICENSE.txt file.
 */

  .globl cuCtxResetPersistingL2Cache
  .p2align 4
  .type cuCtxResetPersistingL2Cache, %function
#ifndef IMPLIB_EXPORT_SHIMS
  .hidden cuCtxResetPersistingL2Cache
#endif
cuCtxResetPersistingL2Cache:
  .cfi_startproc
  .cfi_def_cfa_offset 8  // Return address
  // Intel opt. manual says to
  // "make the fall-through code following a conditional branch be the likely target for a branch with a forward target"
  // to hint static predictor.
  cmpq $0, _libcuda_so_tramp_table+392(%rip)
  je 2f
1:
  jmp *_libcuda_so_tramp_table+392(%rip)
2:
  pushq $49
  .cfi_adjust_cfa_offset 8
  call _libcuda_so_save_regs_and_resolve
  addq $8, %rsp
  .cfi_adjust_cfa_offset -8
  jmp *%rax
  .cfi_endproc

/*
 * Copyright 2018-2025 Yury Gribov
 *
 * The MIT License (MIT)
 *
 * Use of this source code is governed by MIT license that can be
 * found in the LICENSE.txt file.
 */

  .globl cuCtxSetCacheConfig
  .p2align 4
  .type cuCtxSetCacheConfig, %function
#ifndef IMPLIB_EXPORT_SHIMS
  .hidden cuCtxSetCacheConfig
#endif
cuCtxSetCacheConfig:
  .cfi_startproc
  .cfi_def_cfa_offset 8  // Return address
  // Intel opt. manual says to
  // "make the fall-through code following a conditional branch be the likely target for a branch with a forward target"
  // to hint static predictor.
  cmpq $0, _libcuda_so_tramp_table+400(%rip)
  je 2f
1:
  jmp *_libcuda_so_tramp_table+400(%rip)
2:
  pushq $50
  .cfi_adjust_cfa_offset 8
  call _libcuda_so_save_regs_and_resolve
  addq $8, %rsp
  .cfi_adjust_cfa_offset -8
  jmp *%rax
  .cfi_endproc

/*
 * Copyright 2018-2025 Yury Gribov
 *
 * The MIT License (MIT)
 *
 * Use of this source code is governed by MIT license that can be
 * found in the LICENSE.txt file.
 */

  .globl cuCtxSetCurrent
  .p2align 4
  .type cuCtxSetCurrent, %function
#ifndef IMPLIB_EXPORT_SHIMS
  .hidden cuCtxSetCurrent
#endif
cuCtxSetCurrent:
  .cfi_startproc
  .cfi_def_cfa_offset 8  // Return address
  // Intel opt. manual says to
  // "make the fall-through code following a conditional branch be the likely target for a branch with a forward target"
  // to hint static predictor.
  cmpq $0, _libcuda_so_tramp_table+408(%rip)
  je 2f
1:
  jmp *_libcuda_so_tramp_table+408(%rip)
2:
  pushq $51
  .cfi_adjust_cfa_offset 8
  call _libcuda_so_save_regs_and_resolve
  addq $8, %rsp
  .cfi_adjust_cfa_offset -8
  jmp *%rax
  .cfi_endproc

/*
 * Copyright 2018-2025 Yury Gribov
 *
 * The MIT License (MIT)
 *
 * Use of this source code is governed by MIT license that can be
 * found in the LICENSE.txt file.
 */

  .globl cuCtxSetFlags
  .p2align 4
  .type cuCtxSetFlags, %function
#ifndef IMPLIB_EXPORT_SHIMS
  .hidden cuCtxSetFlags
#endif
cuCtxSetFlags:
  .cfi_startproc
  .cfi_def_cfa_offset 8  // Return address
  // Intel opt. manual says to
  // "make the fall-through code following a conditional branch be the likely target for a branch with a forward target"
  // to hint static predictor.
  cmpq $0, _libcuda_so_tramp_table+416(%rip)
  je 2f
1:
  jmp *_libcuda_so_tramp_table+416(%rip)
2:
  pushq $52
  .cfi_adjust_cfa_offset 8
  call _libcuda_so_save_regs_and_resolve
  addq $8, %rsp
  .cfi_adjust_cfa_offset -8
  jmp *%rax
  .cfi_endproc

/*
 * Copyright 2018-2025 Yury Gribov
 *
 * The MIT License (MIT)
 *
 * Use of this source code is governed by MIT license that can be
 * found in the LICENSE.txt file.
 */

  .globl cuCtxSetLimit
  .p2align 4
  .type cuCtxSetLimit, %function
#ifndef IMPLIB_EXPORT_SHIMS
  .hidden cuCtxSetLimit
#endif
cuCtxSetLimit:
  .cfi_startproc
  .cfi_def_cfa_offset 8  // Return address
  // Intel opt. manual says to
  // "make the fall-through code following a conditional branch be the likely target for a branch with a forward target"
  // to hint static predictor.
  cmpq $0, _libcuda_so_tramp_table+424(%rip)
  je 2f
1:
  jmp *_libcuda_so_tramp_table+424(%rip)
2:
  pushq $53
  .cfi_adjust_cfa_offset 8
  call _libcuda_so_save_regs_and_resolve
  addq $8, %rsp
  .cfi_adjust_cfa_offset -8
  jmp *%rax
  .cfi_endproc

/*
 * Copyright 2018-2025 Yury Gribov
 *
 * The MIT License (MIT)
 *
 * Use of this source code is governed by MIT license that can be
 * found in the LICENSE.txt file.
 */

  .globl cuCtxSetSharedMemConfig
  .p2align 4
  .type cuCtxSetSharedMemConfig, %function
#ifndef IMPLIB_EXPORT_SHIMS
  .hidden cuCtxSetSharedMemConfig
#endif
cuCtxSetSharedMemConfig:
  .cfi_startproc
  .cfi_def_cfa_offset 8  // Return address
  // Intel opt. manual says to
  // "make the fall-through code following a conditional branch be the likely target for a branch with a forward target"
  // to hint static predictor.
  cmpq $0, _libcuda_so_tramp_table+432(%rip)
  je 2f
1:
  jmp *_libcuda_so_tramp_table+432(%rip)
2:
  pushq $54
  .cfi_adjust_cfa_offset 8
  call _libcuda_so_save_regs_and_resolve
  addq $8, %rsp
  .cfi_adjust_cfa_offset -8
  jmp *%rax
  .cfi_endproc

/*
 * Copyright 2018-2025 Yury Gribov
 *
 * The MIT License (MIT)
 *
 * Use of this source code is governed by MIT license that can be
 * found in the LICENSE.txt file.
 */

  .globl cuCtxSynchronize
  .p2align 4
  .type cuCtxSynchronize, %function
#ifndef IMPLIB_EXPORT_SHIMS
  .hidden cuCtxSynchronize
#endif
cuCtxSynchronize:
  .cfi_startproc
  .cfi_def_cfa_offset 8  // Return address
  // Intel opt. manual says to
  // "make the fall-through code following a conditional branch be the likely target for a branch with a forward target"
  // to hint static predictor.
  cmpq $0, _libcuda_so_tramp_table+440(%rip)
  je 2f
1:
  jmp *_libcuda_so_tramp_table+440(%rip)
2:
  pushq $55
  .cfi_adjust_cfa_offset 8
  call _libcuda_so_save_regs_and_resolve
  addq $8, %rsp
  .cfi_adjust_cfa_offset -8
  jmp *%rax
  .cfi_endproc

/*
 * Copyright 2018-2025 Yury Gribov
 *
 * The MIT License (MIT)
 *
 * Use of this source code is governed by MIT license that can be
 * found in the LICENSE.txt file.
 */

  .globl cuCtxWaitEvent
  .p2align 4
  .type cuCtxWaitEvent, %function
#ifndef IMPLIB_EXPORT_SHIMS
  .hidden cuCtxWaitEvent
#endif
cuCtxWaitEvent:
  .cfi_startproc
  .cfi_def_cfa_offset 8  // Return address
  // Intel opt. manual says to
  // "make the fall-through code following a conditional branch be the likely target for a branch with a forward target"
  // to hint static predictor.
  cmpq $0, _libcuda_so_tramp_table+448(%rip)
  je 2f
1:
  jmp *_libcuda_so_tramp_table+448(%rip)
2:
  pushq $56
  .cfi_adjust_cfa_offset 8
  call _libcuda_so_save_regs_and_resolve
  addq $8, %rsp
  .cfi_adjust_cfa_offset -8
  jmp *%rax
  .cfi_endproc

/*
 * Copyright 2018-2025 Yury Gribov
 *
 * The MIT License (MIT)
 *
 * Use of this source code is governed by MIT license that can be
 * found in the LICENSE.txt file.
 */

  .globl cuDestroyExternalMemory
  .p2align 4
  .type cuDestroyExternalMemory, %function
#ifndef IMPLIB_EXPORT_SHIMS
  .hidden cuDestroyExternalMemory
#endif
cuDestroyExternalMemory:
  .cfi_startproc
  .cfi_def_cfa_offset 8  // Return address
  // Intel opt. manual says to
  // "make the fall-through code following a conditional branch be the likely target for a branch with a forward target"
  // to hint static predictor.
  cmpq $0, _libcuda_so_tramp_table+456(%rip)
  je 2f
1:
  jmp *_libcuda_so_tramp_table+456(%rip)
2:
  pushq $57
  .cfi_adjust_cfa_offset 8
  call _libcuda_so_save_regs_and_resolve
  addq $8, %rsp
  .cfi_adjust_cfa_offset -8
  jmp *%rax
  .cfi_endproc

/*
 * Copyright 2018-2025 Yury Gribov
 *
 * The MIT License (MIT)
 *
 * Use of this source code is governed by MIT license that can be
 * found in the LICENSE.txt file.
 */

  .globl cuDestroyExternalSemaphore
  .p2align 4
  .type cuDestroyExternalSemaphore, %function
#ifndef IMPLIB_EXPORT_SHIMS
  .hidden cuDestroyExternalSemaphore
#endif
cuDestroyExternalSemaphore:
  .cfi_startproc
  .cfi_def_cfa_offset 8  // Return address
  // Intel opt. manual says to
  // "make the fall-through code following a conditional branch be the likely target for a branch with a forward target"
  // to hint static predictor.
  cmpq $0, _libcuda_so_tramp_table+464(%rip)
  je 2f
1:
  jmp *_libcuda_so_tramp_table+464(%rip)
2:
  pushq $58
  .cfi_adjust_cfa_offset 8
  call _libcuda_so_save_regs_and_resolve
  addq $8, %rsp
  .cfi_adjust_cfa_offset -8
  jmp *%rax
  .cfi_endproc

/*
 * Copyright 2018-2025 Yury Gribov
 *
 * The MIT License (MIT)
 *
 * Use of this source code is governed by MIT license that can be
 * found in the LICENSE.txt file.
 */

  .globl cuDevResourceGenerateDesc
  .p2align 4
  .type cuDevResourceGenerateDesc, %function
#ifndef IMPLIB_EXPORT_SHIMS
  .hidden cuDevResourceGenerateDesc
#endif
cuDevResourceGenerateDesc:
  .cfi_startproc
  .cfi_def_cfa_offset 8  // Return address
  // Intel opt. manual says to
  // "make the fall-through code following a conditional branch be the likely target for a branch with a forward target"
  // to hint static predictor.
  cmpq $0, _libcuda_so_tramp_table+472(%rip)
  je 2f
1:
  jmp *_libcuda_so_tramp_table+472(%rip)
2:
  pushq $59
  .cfi_adjust_cfa_offset 8
  call _libcuda_so_save_regs_and_resolve
  addq $8, %rsp
  .cfi_adjust_cfa_offset -8
  jmp *%rax
  .cfi_endproc

/*
 * Copyright 2018-2025 Yury Gribov
 *
 * The MIT License (MIT)
 *
 * Use of this source code is governed by MIT license that can be
 * found in the LICENSE.txt file.
 */

  .globl cuDevSmResourceSplitByCount
  .p2align 4
  .type cuDevSmResourceSplitByCount, %function
#ifndef IMPLIB_EXPORT_SHIMS
  .hidden cuDevSmResourceSplitByCount
#endif
cuDevSmResourceSplitByCount:
  .cfi_startproc
  .cfi_def_cfa_offset 8  // Return address
  // Intel opt. manual says to
  // "make the fall-through code following a conditional branch be the likely target for a branch with a forward target"
  // to hint static predictor.
  cmpq $0, _libcuda_so_tramp_table+480(%rip)
  je 2f
1:
  jmp *_libcuda_so_tramp_table+480(%rip)
2:
  pushq $60
  .cfi_adjust_cfa_offset 8
  call _libcuda_so_save_regs_and_resolve
  addq $8, %rsp
  .cfi_adjust_cfa_offset -8
  jmp *%rax
  .cfi_endproc

/*
 * Copyright 2018-2025 Yury Gribov
 *
 * The MIT License (MIT)
 *
 * Use of this source code is governed by MIT license that can be
 * found in the LICENSE.txt file.
 */

  .globl cuDeviceCanAccessPeer
  .p2align 4
  .type cuDeviceCanAccessPeer, %function
#ifndef IMPLIB_EXPORT_SHIMS
  .hidden cuDeviceCanAccessPeer
#endif
cuDeviceCanAccessPeer:
  .cfi_startproc
  .cfi_def_cfa_offset 8  // Return address
  // Intel opt. manual says to
  // "make the fall-through code following a conditional branch be the likely target for a branch with a forward target"
  // to hint static predictor.
  cmpq $0, _libcuda_so_tramp_table+488(%rip)
  je 2f
1:
  jmp *_libcuda_so_tramp_table+488(%rip)
2:
  pushq $61
  .cfi_adjust_cfa_offset 8
  call _libcuda_so_save_regs_and_resolve
  addq $8, %rsp
  .cfi_adjust_cfa_offset -8
  jmp *%rax
  .cfi_endproc

/*
 * Copyright 2018-2025 Yury Gribov
 *
 * The MIT License (MIT)
 *
 * Use of this source code is governed by MIT license that can be
 * found in the LICENSE.txt file.
 */

  .globl cuDeviceComputeCapability
  .p2align 4
  .type cuDeviceComputeCapability, %function
#ifndef IMPLIB_EXPORT_SHIMS
  .hidden cuDeviceComputeCapability
#endif
cuDeviceComputeCapability:
  .cfi_startproc
  .cfi_def_cfa_offset 8  // Return address
  // Intel opt. manual says to
  // "make the fall-through code following a conditional branch be the likely target for a branch with a forward target"
  // to hint static predictor.
  cmpq $0, _libcuda_so_tramp_table+496(%rip)
  je 2f
1:
  jmp *_libcuda_so_tramp_table+496(%rip)
2:
  pushq $62
  .cfi_adjust_cfa_offset 8
  call _libcuda_so_save_regs_and_resolve
  addq $8, %rsp
  .cfi_adjust_cfa_offset -8
  jmp *%rax
  .cfi_endproc

/*
 * Copyright 2018-2025 Yury Gribov
 *
 * The MIT License (MIT)
 *
 * Use of this source code is governed by MIT license that can be
 * found in the LICENSE.txt file.
 */

  .globl cuDeviceGet
  .p2align 4
  .type cuDeviceGet, %function
#ifndef IMPLIB_EXPORT_SHIMS
  .hidden cuDeviceGet
#endif
cuDeviceGet:
  .cfi_startproc
  .cfi_def_cfa_offset 8  // Return address
  // Intel opt. manual says to
  // "make the fall-through code following a conditional branch be the likely target for a branch with a forward target"
  // to hint static predictor.
  cmpq $0, _libcuda_so_tramp_table+504(%rip)
  je 2f
1:
  jmp *_libcuda_so_tramp_table+504(%rip)
2:
  pushq $63
  .cfi_adjust_cfa_offset 8
  call _libcuda_so_save_regs_and_resolve
  addq $8, %rsp
  .cfi_adjust_cfa_offset -8
  jmp *%rax
  .cfi_endproc

/*
 * Copyright 2018-2025 Yury Gribov
 *
 * The MIT License (MIT)
 *
 * Use of this source code is governed by MIT license that can be
 * found in the LICENSE.txt file.
 */

  .globl cuDeviceGetAttribute
  .p2align 4
  .type cuDeviceGetAttribute, %function
#ifndef IMPLIB_EXPORT_SHIMS
  .hidden cuDeviceGetAttribute
#endif
cuDeviceGetAttribute:
  .cfi_startproc
  .cfi_def_cfa_offset 8  // Return address
  // Intel opt. manual says to
  // "make the fall-through code following a conditional branch be the likely target for a branch with a forward target"
  // to hint static predictor.
  cmpq $0, _libcuda_so_tramp_table+512(%rip)
  je 2f
1:
  jmp *_libcuda_so_tramp_table+512(%rip)
2:
  pushq $64
  .cfi_adjust_cfa_offset 8
  call _libcuda_so_save_regs_and_resolve
  addq $8, %rsp
  .cfi_adjust_cfa_offset -8
  jmp *%rax
  .cfi_endproc

/*
 * Copyright 2018-2025 Yury Gribov
 *
 * The MIT License (MIT)
 *
 * Use of this source code is governed by MIT license that can be
 * found in the LICENSE.txt file.
 */

  .globl cuDeviceGetByPCIBusId
  .p2align 4
  .type cuDeviceGetByPCIBusId, %function
#ifndef IMPLIB_EXPORT_SHIMS
  .hidden cuDeviceGetByPCIBusId
#endif
cuDeviceGetByPCIBusId:
  .cfi_startproc
  .cfi_def_cfa_offset 8  // Return address
  // Intel opt. manual says to
  // "make the fall-through code following a conditional branch be the likely target for a branch with a forward target"
  // to hint static predictor.
  cmpq $0, _libcuda_so_tramp_table+520(%rip)
  je 2f
1:
  jmp *_libcuda_so_tramp_table+520(%rip)
2:
  pushq $65
  .cfi_adjust_cfa_offset 8
  call _libcuda_so_save_regs_and_resolve
  addq $8, %rsp
  .cfi_adjust_cfa_offset -8
  jmp *%rax
  .cfi_endproc

/*
 * Copyright 2018-2025 Yury Gribov
 *
 * The MIT License (MIT)
 *
 * Use of this source code is governed by MIT license that can be
 * found in the LICENSE.txt file.
 */

  .globl cuDeviceGetCount
  .p2align 4
  .type cuDeviceGetCount, %function
#ifndef IMPLIB_EXPORT_SHIMS
  .hidden cuDeviceGetCount
#endif
cuDeviceGetCount:
  .cfi_startproc
  .cfi_def_cfa_offset 8  // Return address
  // Intel opt. manual says to
  // "make the fall-through code following a conditional branch be the likely target for a branch with a forward target"
  // to hint static predictor.
  cmpq $0, _libcuda_so_tramp_table+528(%rip)
  je 2f
1:
  jmp *_libcuda_so_tramp_table+528(%rip)
2:
  pushq $66
  .cfi_adjust_cfa_offset 8
  call _libcuda_so_save_regs_and_resolve
  addq $8, %rsp
  .cfi_adjust_cfa_offset -8
  jmp *%rax
  .cfi_endproc

/*
 * Copyright 2018-2025 Yury Gribov
 *
 * The MIT License (MIT)
 *
 * Use of this source code is governed by MIT license that can be
 * found in the LICENSE.txt file.
 */

  .globl cuDeviceGetDefaultMemPool
  .p2align 4
  .type cuDeviceGetDefaultMemPool, %function
#ifndef IMPLIB_EXPORT_SHIMS
  .hidden cuDeviceGetDefaultMemPool
#endif
cuDeviceGetDefaultMemPool:
  .cfi_startproc
  .cfi_def_cfa_offset 8  // Return address
  // Intel opt. manual says to
  // "make the fall-through code following a conditional branch be the likely target for a branch with a forward target"
  // to hint static predictor.
  cmpq $0, _libcuda_so_tramp_table+536(%rip)
  je 2f
1:
  jmp *_libcuda_so_tramp_table+536(%rip)
2:
  pushq $67
  .cfi_adjust_cfa_offset 8
  call _libcuda_so_save_regs_and_resolve
  addq $8, %rsp
  .cfi_adjust_cfa_offset -8
  jmp *%rax
  .cfi_endproc

/*
 * Copyright 2018-2025 Yury Gribov
 *
 * The MIT License (MIT)
 *
 * Use of this source code is governed by MIT license that can be
 * found in the LICENSE.txt file.
 */

  .globl cuDeviceGetDevResource
  .p2align 4
  .type cuDeviceGetDevResource, %function
#ifndef IMPLIB_EXPORT_SHIMS
  .hidden cuDeviceGetDevResource
#endif
cuDeviceGetDevResource:
  .cfi_startproc
  .cfi_def_cfa_offset 8  // Return address
  // Intel opt. manual says to
  // "make the fall-through code following a conditional branch be the likely target for a branch with a forward target"
  // to hint static predictor.
  cmpq $0, _libcuda_so_tramp_table+544(%rip)
  je 2f
1:
  jmp *_libcuda_so_tramp_table+544(%rip)
2:
  pushq $68
  .cfi_adjust_cfa_offset 8
  call _libcuda_so_save_regs_and_resolve
  addq $8, %rsp
  .cfi_adjust_cfa_offset -8
  jmp *%rax
  .cfi_endproc

/*
 * Copyright 2018-2025 Yury Gribov
 *
 * The MIT License (MIT)
 *
 * Use of this source code is governed by MIT license that can be
 * found in the LICENSE.txt file.
 */

  .globl cuDeviceGetExecAffinitySupport
  .p2align 4
  .type cuDeviceGetExecAffinitySupport, %function
#ifndef IMPLIB_EXPORT_SHIMS
  .hidden cuDeviceGetExecAffinitySupport
#endif
cuDeviceGetExecAffinitySupport:
  .cfi_startproc
  .cfi_def_cfa_offset 8  // Return address
  // Intel opt. manual says to
  // "make the fall-through code following a conditional branch be the likely target for a branch with a forward target"
  // to hint static predictor.
  cmpq $0, _libcuda_so_tramp_table+552(%rip)
  je 2f
1:
  jmp *_libcuda_so_tramp_table+552(%rip)
2:
  pushq $69
  .cfi_adjust_cfa_offset 8
  call _libcuda_so_save_regs_and_resolve
  addq $8, %rsp
  .cfi_adjust_cfa_offset -8
  jmp *%rax
  .cfi_endproc

/*
 * Copyright 2018-2025 Yury Gribov
 *
 * The MIT License (MIT)
 *
 * Use of this source code is governed by MIT license that can be
 * found in the LICENSE.txt file.
 */

  .globl cuDeviceGetGraphMemAttribute
  .p2align 4
  .type cuDeviceGetGraphMemAttribute, %function
#ifndef IMPLIB_EXPORT_SHIMS
  .hidden cuDeviceGetGraphMemAttribute
#endif
cuDeviceGetGraphMemAttribute:
  .cfi_startproc
  .cfi_def_cfa_offset 8  // Return address
  // Intel opt. manual says to
  // "make the fall-through code following a conditional branch be the likely target for a branch with a forward target"
  // to hint static predictor.
  cmpq $0, _libcuda_so_tramp_table+560(%rip)
  je 2f
1:
  jmp *_libcuda_so_tramp_table+560(%rip)
2:
  pushq $70
  .cfi_adjust_cfa_offset 8
  call _libcuda_so_save_regs_and_resolve
  addq $8, %rsp
  .cfi_adjust_cfa_offset -8
  jmp *%rax
  .cfi_endproc

/*
 * Copyright 2018-2025 Yury Gribov
 *
 * The MIT License (MIT)
 *
 * Use of this source code is governed by MIT license that can be
 * found in the LICENSE.txt file.
 */

  .globl cuDeviceGetLuid
  .p2align 4
  .type cuDeviceGetLuid, %function
#ifndef IMPLIB_EXPORT_SHIMS
  .hidden cuDeviceGetLuid
#endif
cuDeviceGetLuid:
  .cfi_startproc
  .cfi_def_cfa_offset 8  // Return address
  // Intel opt. manual says to
  // "make the fall-through code following a conditional branch be the likely target for a branch with a forward target"
  // to hint static predictor.
  cmpq $0, _libcuda_so_tramp_table+568(%rip)
  je 2f
1:
  jmp *_libcuda_so_tramp_table+568(%rip)
2:
  pushq $71
  .cfi_adjust_cfa_offset 8
  call _libcuda_so_save_regs_and_resolve
  addq $8, %rsp
  .cfi_adjust_cfa_offset -8
  jmp *%rax
  .cfi_endproc

/*
 * Copyright 2018-2025 Yury Gribov
 *
 * The MIT License (MIT)
 *
 * Use of this source code is governed by MIT license that can be
 * found in the LICENSE.txt file.
 */

  .globl cuDeviceGetMemPool
  .p2align 4
  .type cuDeviceGetMemPool, %function
#ifndef IMPLIB_EXPORT_SHIMS
  .hidden cuDeviceGetMemPool
#endif
cuDeviceGetMemPool:
  .cfi_startproc
  .cfi_def_cfa_offset 8  // Return address
  // Intel opt. manual says to
  // "make the fall-through code following a conditional branch be the likely target for a branch with a forward target"
  // to hint static predictor.
  cmpq $0, _libcuda_so_tramp_table+576(%rip)
  je 2f
1:
  jmp *_libcuda_so_tramp_table+576(%rip)
2:
  pushq $72
  .cfi_adjust_cfa_offset 8
  call _libcuda_so_save_regs_and_resolve
  addq $8, %rsp
  .cfi_adjust_cfa_offset -8
  jmp *%rax
  .cfi_endproc

/*
 * Copyright 2018-2025 Yury Gribov
 *
 * The MIT License (MIT)
 *
 * Use of this source code is governed by MIT license that can be
 * found in the LICENSE.txt file.
 */

  .globl cuDeviceGetName
  .p2align 4
  .type cuDeviceGetName, %function
#ifndef IMPLIB_EXPORT_SHIMS
  .hidden cuDeviceGetName
#endif
cuDeviceGetName:
  .cfi_startproc
  .cfi_def_cfa_offset 8  // Return address
  // Intel opt. manual says to
  // "make the fall-through code following a conditional branch be the likely target for a branch with a forward target"
  // to hint static predictor.
  cmpq $0, _libcuda_so_tramp_table+584(%rip)
  je 2f
1:
  jmp *_libcuda_so_tramp_table+584(%rip)
2:
  pushq $73
  .cfi_adjust_cfa_offset 8
  call _libcuda_so_save_regs_and_resolve
  addq $8, %rsp
  .cfi_adjust_cfa_offset -8
  jmp *%rax
  .cfi_endproc

/*
 * Copyright 2018-2025 Yury Gribov
 *
 * The MIT License (MIT)
 *
 * Use of this source code is governed by MIT license that can be
 * found in the LICENSE.txt file.
 */

  .globl cuDeviceGetNvSciSyncAttributes
  .p2align 4
  .type cuDeviceGetNvSciSyncAttributes, %function
#ifndef IMPLIB_EXPORT_SHIMS
  .hidden cuDeviceGetNvSciSyncAttributes
#endif
cuDeviceGetNvSciSyncAttributes:
  .cfi_startproc
  .cfi_def_cfa_offset 8  // Return address
  // Intel opt. manual says to
  // "make the fall-through code following a conditional branch be the likely target for a branch with a forward target"
  // to hint static predictor.
  cmpq $0, _libcuda_so_tramp_table+592(%rip)
  je 2f
1:
  jmp *_libcuda_so_tramp_table+592(%rip)
2:
  pushq $74
  .cfi_adjust_cfa_offset 8
  call _libcuda_so_save_regs_and_resolve
  addq $8, %rsp
  .cfi_adjust_cfa_offset -8
  jmp *%rax
  .cfi_endproc

/*
 * Copyright 2018-2025 Yury Gribov
 *
 * The MIT License (MIT)
 *
 * Use of this source code is governed by MIT license that can be
 * found in the LICENSE.txt file.
 */

  .globl cuDeviceGetP2PAttribute
  .p2align 4
  .type cuDeviceGetP2PAttribute, %function
#ifndef IMPLIB_EXPORT_SHIMS
  .hidden cuDeviceGetP2PAttribute
#endif
cuDeviceGetP2PAttribute:
  .cfi_startproc
  .cfi_def_cfa_offset 8  // Return address
  // Intel opt. manual says to
  // "make the fall-through code following a conditional branch be the likely target for a branch with a forward target"
  // to hint static predictor.
  cmpq $0, _libcuda_so_tramp_table+600(%rip)
  je 2f
1:
  jmp *_libcuda_so_tramp_table+600(%rip)
2:
  pushq $75
  .cfi_adjust_cfa_offset 8
  call _libcuda_so_save_regs_and_resolve
  addq $8, %rsp
  .cfi_adjust_cfa_offset -8
  jmp *%rax
  .cfi_endproc

/*
 * Copyright 2018-2025 Yury Gribov
 *
 * The MIT License (MIT)
 *
 * Use of this source code is governed by MIT license that can be
 * found in the LICENSE.txt file.
 */

  .globl cuDeviceGetPCIBusId
  .p2align 4
  .type cuDeviceGetPCIBusId, %function
#ifndef IMPLIB_EXPORT_SHIMS
  .hidden cuDeviceGetPCIBusId
#endif
cuDeviceGetPCIBusId:
  .cfi_startproc
  .cfi_def_cfa_offset 8  // Return address
  // Intel opt. manual says to
  // "make the fall-through code following a conditional branch be the likely target for a branch with a forward target"
  // to hint static predictor.
  cmpq $0, _libcuda_so_tramp_table+608(%rip)
  je 2f
1:
  jmp *_libcuda_so_tramp_table+608(%rip)
2:
  pushq $76
  .cfi_adjust_cfa_offset 8
  call _libcuda_so_save_regs_and_resolve
  addq $8, %rsp
  .cfi_adjust_cfa_offset -8
  jmp *%rax
  .cfi_endproc

/*
 * Copyright 2018-2025 Yury Gribov
 *
 * The MIT License (MIT)
 *
 * Use of this source code is governed by MIT license that can be
 * found in the LICENSE.txt file.
 */

  .globl cuDeviceGetProperties
  .p2align 4
  .type cuDeviceGetProperties, %function
#ifndef IMPLIB_EXPORT_SHIMS
  .hidden cuDeviceGetProperties
#endif
cuDeviceGetProperties:
  .cfi_startproc
  .cfi_def_cfa_offset 8  // Return address
  // Intel opt. manual says to
  // "make the fall-through code following a conditional branch be the likely target for a branch with a forward target"
  // to hint static predictor.
  cmpq $0, _libcuda_so_tramp_table+616(%rip)
  je 2f
1:
  jmp *_libcuda_so_tramp_table+616(%rip)
2:
  pushq $77
  .cfi_adjust_cfa_offset 8
  call _libcuda_so_save_regs_and_resolve
  addq $8, %rsp
  .cfi_adjust_cfa_offset -8
  jmp *%rax
  .cfi_endproc

/*
 * Copyright 2018-2025 Yury Gribov
 *
 * The MIT License (MIT)
 *
 * Use of this source code is governed by MIT license that can be
 * found in the LICENSE.txt file.
 */

  .globl cuDeviceGetTexture1DLinearMaxWidth
  .p2align 4
  .type cuDeviceGetTexture1DLinearMaxWidth, %function
#ifndef IMPLIB_EXPORT_SHIMS
  .hidden cuDeviceGetTexture1DLinearMaxWidth
#endif
cuDeviceGetTexture1DLinearMaxWidth:
  .cfi_startproc
  .cfi_def_cfa_offset 8  // Return address
  // Intel opt. manual says to
  // "make the fall-through code following a conditional branch be the likely target for a branch with a forward target"
  // to hint static predictor.
  cmpq $0, _libcuda_so_tramp_table+624(%rip)
  je 2f
1:
  jmp *_libcuda_so_tramp_table+624(%rip)
2:
  pushq $78
  .cfi_adjust_cfa_offset 8
  call _libcuda_so_save_regs_and_resolve
  addq $8, %rsp
  .cfi_adjust_cfa_offset -8
  jmp *%rax
  .cfi_endproc

/*
 * Copyright 2018-2025 Yury Gribov
 *
 * The MIT License (MIT)
 *
 * Use of this source code is governed by MIT license that can be
 * found in the LICENSE.txt file.
 */

  .globl cuDeviceGetUuid
  .p2align 4
  .type cuDeviceGetUuid, %function
#ifndef IMPLIB_EXPORT_SHIMS
  .hidden cuDeviceGetUuid
#endif
cuDeviceGetUuid:
  .cfi_startproc
  .cfi_def_cfa_offset 8  // Return address
  // Intel opt. manual says to
  // "make the fall-through code following a conditional branch be the likely target for a branch with a forward target"
  // to hint static predictor.
  cmpq $0, _libcuda_so_tramp_table+632(%rip)
  je 2f
1:
  jmp *_libcuda_so_tramp_table+632(%rip)
2:
  pushq $79
  .cfi_adjust_cfa_offset 8
  call _libcuda_so_save_regs_and_resolve
  addq $8, %rsp
  .cfi_adjust_cfa_offset -8
  jmp *%rax
  .cfi_endproc

/*
 * Copyright 2018-2025 Yury Gribov
 *
 * The MIT License (MIT)
 *
 * Use of this source code is governed by MIT license that can be
 * found in the LICENSE.txt file.
 */

  .globl cuDeviceGetUuid_v2
  .p2align 4
  .type cuDeviceGetUuid_v2, %function
#ifndef IMPLIB_EXPORT_SHIMS
  .hidden cuDeviceGetUuid_v2
#endif
cuDeviceGetUuid_v2:
  .cfi_startproc
  .cfi_def_cfa_offset 8  // Return address
  // Intel opt. manual says to
  // "make the fall-through code following a conditional branch be the likely target for a branch with a forward target"
  // to hint static predictor.
  cmpq $0, _libcuda_so_tramp_table+640(%rip)
  je 2f
1:
  jmp *_libcuda_so_tramp_table+640(%rip)
2:
  pushq $80
  .cfi_adjust_cfa_offset 8
  call _libcuda_so_save_regs_and_resolve
  addq $8, %rsp
  .cfi_adjust_cfa_offset -8
  jmp *%rax
  .cfi_endproc

/*
 * Copyright 2018-2025 Yury Gribov
 *
 * The MIT License (MIT)
 *
 * Use of this source code is governed by MIT license that can be
 * found in the LICENSE.txt file.
 */

  .globl cuDeviceGraphMemTrim
  .p2align 4
  .type cuDeviceGraphMemTrim, %function
#ifndef IMPLIB_EXPORT_SHIMS
  .hidden cuDeviceGraphMemTrim
#endif
cuDeviceGraphMemTrim:
  .cfi_startproc
  .cfi_def_cfa_offset 8  // Return address
  // Intel opt. manual says to
  // "make the fall-through code following a conditional branch be the likely target for a branch with a forward target"
  // to hint static predictor.
  cmpq $0, _libcuda_so_tramp_table+648(%rip)
  je 2f
1:
  jmp *_libcuda_so_tramp_table+648(%rip)
2:
  pushq $81
  .cfi_adjust_cfa_offset 8
  call _libcuda_so_save_regs_and_resolve
  addq $8, %rsp
  .cfi_adjust_cfa_offset -8
  jmp *%rax
  .cfi_endproc

/*
 * Copyright 2018-2025 Yury Gribov
 *
 * The MIT License (MIT)
 *
 * Use of this source code is governed by MIT license that can be
 * found in the LICENSE.txt file.
 */

  .globl cuDevicePrimaryCtxGetState
  .p2align 4
  .type cuDevicePrimaryCtxGetState, %function
#ifndef IMPLIB_EXPORT_SHIMS
  .hidden cuDevicePrimaryCtxGetState
#endif
cuDevicePrimaryCtxGetState:
  .cfi_startproc
  .cfi_def_cfa_offset 8  // Return address
  // Intel opt. manual says to
  // "make the fall-through code following a conditional branch be the likely target for a branch with a forward target"
  // to hint static predictor.
  cmpq $0, _libcuda_so_tramp_table+656(%rip)
  je 2f
1:
  jmp *_libcuda_so_tramp_table+656(%rip)
2:
  pushq $82
  .cfi_adjust_cfa_offset 8
  call _libcuda_so_save_regs_and_resolve
  addq $8, %rsp
  .cfi_adjust_cfa_offset -8
  jmp *%rax
  .cfi_endproc

/*
 * Copyright 2018-2025 Yury Gribov
 *
 * The MIT License (MIT)
 *
 * Use of this source code is governed by MIT license that can be
 * found in the LICENSE.txt file.
 */

  .globl cuDevicePrimaryCtxRelease
  .p2align 4
  .type cuDevicePrimaryCtxRelease, %function
#ifndef IMPLIB_EXPORT_SHIMS
  .hidden cuDevicePrimaryCtxRelease
#endif
cuDevicePrimaryCtxRelease:
  .cfi_startproc
  .cfi_def_cfa_offset 8  // Return address
  // Intel opt. manual says to
  // "make the fall-through code following a conditional branch be the likely target for a branch with a forward target"
  // to hint static predictor.
  cmpq $0, _libcuda_so_tramp_table+664(%rip)
  je 2f
1:
  jmp *_libcuda_so_tramp_table+664(%rip)
2:
  pushq $83
  .cfi_adjust_cfa_offset 8
  call _libcuda_so_save_regs_and_resolve
  addq $8, %rsp
  .cfi_adjust_cfa_offset -8
  jmp *%rax
  .cfi_endproc

/*
 * Copyright 2018-2025 Yury Gribov
 *
 * The MIT License (MIT)
 *
 * Use of this source code is governed by MIT license that can be
 * found in the LICENSE.txt file.
 */

  .globl cuDevicePrimaryCtxRelease_v2
  .p2align 4
  .type cuDevicePrimaryCtxRelease_v2, %function
#ifndef IMPLIB_EXPORT_SHIMS
  .hidden cuDevicePrimaryCtxRelease_v2
#endif
cuDevicePrimaryCtxRelease_v2:
  .cfi_startproc
  .cfi_def_cfa_offset 8  // Return address
  // Intel opt. manual says to
  // "make the fall-through code following a conditional branch be the likely target for a branch with a forward target"
  // to hint static predictor.
  cmpq $0, _libcuda_so_tramp_table+672(%rip)
  je 2f
1:
  jmp *_libcuda_so_tramp_table+672(%rip)
2:
  pushq $84
  .cfi_adjust_cfa_offset 8
  call _libcuda_so_save_regs_and_resolve
  addq $8, %rsp
  .cfi_adjust_cfa_offset -8
  jmp *%rax
  .cfi_endproc

/*
 * Copyright 2018-2025 Yury Gribov
 *
 * The MIT License (MIT)
 *
 * Use of this source code is governed by MIT license that can be
 * found in the LICENSE.txt file.
 */

  .globl cuDevicePrimaryCtxReset
  .p2align 4
  .type cuDevicePrimaryCtxReset, %function
#ifndef IMPLIB_EXPORT_SHIMS
  .hidden cuDevicePrimaryCtxReset
#endif
cuDevicePrimaryCtxReset:
  .cfi_startproc
  .cfi_def_cfa_offset 8  // Return address
  // Intel opt. manual says to
  // "make the fall-through code following a conditional branch be the likely target for a branch with a forward target"
  // to hint static predictor.
  cmpq $0, _libcuda_so_tramp_table+680(%rip)
  je 2f
1:
  jmp *_libcuda_so_tramp_table+680(%rip)
2:
  pushq $85
  .cfi_adjust_cfa_offset 8
  call _libcuda_so_save_regs_and_resolve
  addq $8, %rsp
  .cfi_adjust_cfa_offset -8
  jmp *%rax
  .cfi_endproc

/*
 * Copyright 2018-2025 Yury Gribov
 *
 * The MIT License (MIT)
 *
 * Use of this source code is governed by MIT license that can be
 * found in the LICENSE.txt file.
 */

  .globl cuDevicePrimaryCtxReset_v2
  .p2align 4
  .type cuDevicePrimaryCtxReset_v2, %function
#ifndef IMPLIB_EXPORT_SHIMS
  .hidden cuDevicePrimaryCtxReset_v2
#endif
cuDevicePrimaryCtxReset_v2:
  .cfi_startproc
  .cfi_def_cfa_offset 8  // Return address
  // Intel opt. manual says to
  // "make the fall-through code following a conditional branch be the likely target for a branch with a forward target"
  // to hint static predictor.
  cmpq $0, _libcuda_so_tramp_table+688(%rip)
  je 2f
1:
  jmp *_libcuda_so_tramp_table+688(%rip)
2:
  pushq $86
  .cfi_adjust_cfa_offset 8
  call _libcuda_so_save_regs_and_resolve
  addq $8, %rsp
  .cfi_adjust_cfa_offset -8
  jmp *%rax
  .cfi_endproc

/*
 * Copyright 2018-2025 Yury Gribov
 *
 * The MIT License (MIT)
 *
 * Use of this source code is governed by MIT license that can be
 * found in the LICENSE.txt file.
 */

  .globl cuDevicePrimaryCtxRetain
  .p2align 4
  .type cuDevicePrimaryCtxRetain, %function
#ifndef IMPLIB_EXPORT_SHIMS
  .hidden cuDevicePrimaryCtxRetain
#endif
cuDevicePrimaryCtxRetain:
  .cfi_startproc
  .cfi_def_cfa_offset 8  // Return address
  // Intel opt. manual says to
  // "make the fall-through code following a conditional branch be the likely target for a branch with a forward target"
  // to hint static predictor.
  cmpq $0, _libcuda_so_tramp_table+696(%rip)
  je 2f
1:
  jmp *_libcuda_so_tramp_table+696(%rip)
2:
  pushq $87
  .cfi_adjust_cfa_offset 8
  call _libcuda_so_save_regs_and_resolve
  addq $8, %rsp
  .cfi_adjust_cfa_offset -8
  jmp *%rax
  .cfi_endproc

/*
 * Copyright 2018-2025 Yury Gribov
 *
 * The MIT License (MIT)
 *
 * Use of this source code is governed by MIT license that can be
 * found in the LICENSE.txt file.
 */

  .globl cuDevicePrimaryCtxSetFlags
  .p2align 4
  .type cuDevicePrimaryCtxSetFlags, %function
#ifndef IMPLIB_EXPORT_SHIMS
  .hidden cuDevicePrimaryCtxSetFlags
#endif
cuDevicePrimaryCtxSetFlags:
  .cfi_startproc
  .cfi_def_cfa_offset 8  // Return address
  // Intel opt. manual says to
  // "make the fall-through code following a conditional branch be the likely target for a branch with a forward target"
  // to hint static predictor.
  cmpq $0, _libcuda_so_tramp_table+704(%rip)
  je 2f
1:
  jmp *_libcuda_so_tramp_table+704(%rip)
2:
  pushq $88
  .cfi_adjust_cfa_offset 8
  call _libcuda_so_save_regs_and_resolve
  addq $8, %rsp
  .cfi_adjust_cfa_offset -8
  jmp *%rax
  .cfi_endproc

/*
 * Copyright 2018-2025 Yury Gribov
 *
 * The MIT License (MIT)
 *
 * Use of this source code is governed by MIT license that can be
 * found in the LICENSE.txt file.
 */

  .globl cuDevicePrimaryCtxSetFlags_v2
  .p2align 4
  .type cuDevicePrimaryCtxSetFlags_v2, %function
#ifndef IMPLIB_EXPORT_SHIMS
  .hidden cuDevicePrimaryCtxSetFlags_v2
#endif
cuDevicePrimaryCtxSetFlags_v2:
  .cfi_startproc
  .cfi_def_cfa_offset 8  // Return address
  // Intel opt. manual says to
  // "make the fall-through code following a conditional branch be the likely target for a branch with a forward target"
  // to hint static predictor.
  cmpq $0, _libcuda_so_tramp_table+712(%rip)
  je 2f
1:
  jmp *_libcuda_so_tramp_table+712(%rip)
2:
  pushq $89
  .cfi_adjust_cfa_offset 8
  call _libcuda_so_save_regs_and_resolve
  addq $8, %rsp
  .cfi_adjust_cfa_offset -8
  jmp *%rax
  .cfi_endproc

/*
 * Copyright 2018-2025 Yury Gribov
 *
 * The MIT License (MIT)
 *
 * Use of this source code is governed by MIT license that can be
 * found in the LICENSE.txt file.
 */

  .globl cuDeviceRegisterAsyncNotification
  .p2align 4
  .type cuDeviceRegisterAsyncNotification, %function
#ifndef IMPLIB_EXPORT_SHIMS
  .hidden cuDeviceRegisterAsyncNotification
#endif
cuDeviceRegisterAsyncNotification:
  .cfi_startproc
  .cfi_def_cfa_offset 8  // Return address
  // Intel opt. manual says to
  // "make the fall-through code following a conditional branch be the likely target for a branch with a forward target"
  // to hint static predictor.
  cmpq $0, _libcuda_so_tramp_table+720(%rip)
  je 2f
1:
  jmp *_libcuda_so_tramp_table+720(%rip)
2:
  pushq $90
  .cfi_adjust_cfa_offset 8
  call _libcuda_so_save_regs_and_resolve
  addq $8, %rsp
  .cfi_adjust_cfa_offset -8
  jmp *%rax
  .cfi_endproc

/*
 * Copyright 2018-2025 Yury Gribov
 *
 * The MIT License (MIT)
 *
 * Use of this source code is governed by MIT license that can be
 * found in the LICENSE.txt file.
 */

  .globl cuDeviceSetGraphMemAttribute
  .p2align 4
  .type cuDeviceSetGraphMemAttribute, %function
#ifndef IMPLIB_EXPORT_SHIMS
  .hidden cuDeviceSetGraphMemAttribute
#endif
cuDeviceSetGraphMemAttribute:
  .cfi_startproc
  .cfi_def_cfa_offset 8  // Return address
  // Intel opt. manual says to
  // "make the fall-through code following a conditional branch be the likely target for a branch with a forward target"
  // to hint static predictor.
  cmpq $0, _libcuda_so_tramp_table+728(%rip)
  je 2f
1:
  jmp *_libcuda_so_tramp_table+728(%rip)
2:
  pushq $91
  .cfi_adjust_cfa_offset 8
  call _libcuda_so_save_regs_and_resolve
  addq $8, %rsp
  .cfi_adjust_cfa_offset -8
  jmp *%rax
  .cfi_endproc

/*
 * Copyright 2018-2025 Yury Gribov
 *
 * The MIT License (MIT)
 *
 * Use of this source code is governed by MIT license that can be
 * found in the LICENSE.txt file.
 */

  .globl cuDeviceSetMemPool
  .p2align 4
  .type cuDeviceSetMemPool, %function
#ifndef IMPLIB_EXPORT_SHIMS
  .hidden cuDeviceSetMemPool
#endif
cuDeviceSetMemPool:
  .cfi_startproc
  .cfi_def_cfa_offset 8  // Return address
  // Intel opt. manual says to
  // "make the fall-through code following a conditional branch be the likely target for a branch with a forward target"
  // to hint static predictor.
  cmpq $0, _libcuda_so_tramp_table+736(%rip)
  je 2f
1:
  jmp *_libcuda_so_tramp_table+736(%rip)
2:
  pushq $92
  .cfi_adjust_cfa_offset 8
  call _libcuda_so_save_regs_and_resolve
  addq $8, %rsp
  .cfi_adjust_cfa_offset -8
  jmp *%rax
  .cfi_endproc

/*
 * Copyright 2018-2025 Yury Gribov
 *
 * The MIT License (MIT)
 *
 * Use of this source code is governed by MIT license that can be
 * found in the LICENSE.txt file.
 */

  .globl cuDeviceTotalMem
  .p2align 4
  .type cuDeviceTotalMem, %function
#ifndef IMPLIB_EXPORT_SHIMS
  .hidden cuDeviceTotalMem
#endif
cuDeviceTotalMem:
  .cfi_startproc
  .cfi_def_cfa_offset 8  // Return address
  // Intel opt. manual says to
  // "make the fall-through code following a conditional branch be the likely target for a branch with a forward target"
  // to hint static predictor.
  cmpq $0, _libcuda_so_tramp_table+744(%rip)
  je 2f
1:
  jmp *_libcuda_so_tramp_table+744(%rip)
2:
  pushq $93
  .cfi_adjust_cfa_offset 8
  call _libcuda_so_save_regs_and_resolve
  addq $8, %rsp
  .cfi_adjust_cfa_offset -8
  jmp *%rax
  .cfi_endproc

/*
 * Copyright 2018-2025 Yury Gribov
 *
 * The MIT License (MIT)
 *
 * Use of this source code is governed by MIT license that can be
 * found in the LICENSE.txt file.
 */

  .globl cuDeviceTotalMem_v2
  .p2align 4
  .type cuDeviceTotalMem_v2, %function
#ifndef IMPLIB_EXPORT_SHIMS
  .hidden cuDeviceTotalMem_v2
#endif
cuDeviceTotalMem_v2:
  .cfi_startproc
  .cfi_def_cfa_offset 8  // Return address
  // Intel opt. manual says to
  // "make the fall-through code following a conditional branch be the likely target for a branch with a forward target"
  // to hint static predictor.
  cmpq $0, _libcuda_so_tramp_table+752(%rip)
  je 2f
1:
  jmp *_libcuda_so_tramp_table+752(%rip)
2:
  pushq $94
  .cfi_adjust_cfa_offset 8
  call _libcuda_so_save_regs_and_resolve
  addq $8, %rsp
  .cfi_adjust_cfa_offset -8
  jmp *%rax
  .cfi_endproc

/*
 * Copyright 2018-2025 Yury Gribov
 *
 * The MIT License (MIT)
 *
 * Use of this source code is governed by MIT license that can be
 * found in the LICENSE.txt file.
 */

  .globl cuDeviceUnregisterAsyncNotification
  .p2align 4
  .type cuDeviceUnregisterAsyncNotification, %function
#ifndef IMPLIB_EXPORT_SHIMS
  .hidden cuDeviceUnregisterAsyncNotification
#endif
cuDeviceUnregisterAsyncNotification:
  .cfi_startproc
  .cfi_def_cfa_offset 8  // Return address
  // Intel opt. manual says to
  // "make the fall-through code following a conditional branch be the likely target for a branch with a forward target"
  // to hint static predictor.
  cmpq $0, _libcuda_so_tramp_table+760(%rip)
  je 2f
1:
  jmp *_libcuda_so_tramp_table+760(%rip)
2:
  pushq $95
  .cfi_adjust_cfa_offset 8
  call _libcuda_so_save_regs_and_resolve
  addq $8, %rsp
  .cfi_adjust_cfa_offset -8
  jmp *%rax
  .cfi_endproc

/*
 * Copyright 2018-2025 Yury Gribov
 *
 * The MIT License (MIT)
 *
 * Use of this source code is governed by MIT license that can be
 * found in the LICENSE.txt file.
 */

  .globl cuDriverGetVersion
  .p2align 4
  .type cuDriverGetVersion, %function
#ifndef IMPLIB_EXPORT_SHIMS
  .hidden cuDriverGetVersion
#endif
cuDriverGetVersion:
  .cfi_startproc
  .cfi_def_cfa_offset 8  // Return address
  // Intel opt. manual says to
  // "make the fall-through code following a conditional branch be the likely target for a branch with a forward target"
  // to hint static predictor.
  cmpq $0, _libcuda_so_tramp_table+768(%rip)
  je 2f
1:
  jmp *_libcuda_so_tramp_table+768(%rip)
2:
  pushq $96
  .cfi_adjust_cfa_offset 8
  call _libcuda_so_save_regs_and_resolve
  addq $8, %rsp
  .cfi_adjust_cfa_offset -8
  jmp *%rax
  .cfi_endproc

/*
 * Copyright 2018-2025 Yury Gribov
 *
 * The MIT License (MIT)
 *
 * Use of this source code is governed by MIT license that can be
 * found in the LICENSE.txt file.
 */

  .globl cuEGLApiInit
  .p2align 4
  .type cuEGLApiInit, %function
#ifndef IMPLIB_EXPORT_SHIMS
  .hidden cuEGLApiInit
#endif
cuEGLApiInit:
  .cfi_startproc
  .cfi_def_cfa_offset 8  // Return address
  // Intel opt. manual says to
  // "make the fall-through code following a conditional branch be the likely target for a branch with a forward target"
  // to hint static predictor.
  cmpq $0, _libcuda_so_tramp_table+776(%rip)
  je 2f
1:
  jmp *_libcuda_so_tramp_table+776(%rip)
2:
  pushq $97
  .cfi_adjust_cfa_offset 8
  call _libcuda_so_save_regs_and_resolve
  addq $8, %rsp
  .cfi_adjust_cfa_offset -8
  jmp *%rax
  .cfi_endproc

/*
 * Copyright 2018-2025 Yury Gribov
 *
 * The MIT License (MIT)
 *
 * Use of this source code is governed by MIT license that can be
 * found in the LICENSE.txt file.
 */

  .globl cuEGLStreamConsumerAcquireFrame
  .p2align 4
  .type cuEGLStreamConsumerAcquireFrame, %function
#ifndef IMPLIB_EXPORT_SHIMS
  .hidden cuEGLStreamConsumerAcquireFrame
#endif
cuEGLStreamConsumerAcquireFrame:
  .cfi_startproc
  .cfi_def_cfa_offset 8  // Return address
  // Intel opt. manual says to
  // "make the fall-through code following a conditional branch be the likely target for a branch with a forward target"
  // to hint static predictor.
  cmpq $0, _libcuda_so_tramp_table+784(%rip)
  je 2f
1:
  jmp *_libcuda_so_tramp_table+784(%rip)
2:
  pushq $98
  .cfi_adjust_cfa_offset 8
  call _libcuda_so_save_regs_and_resolve
  addq $8, %rsp
  .cfi_adjust_cfa_offset -8
  jmp *%rax
  .cfi_endproc

/*
 * Copyright 2018-2025 Yury Gribov
 *
 * The MIT License (MIT)
 *
 * Use of this source code is governed by MIT license that can be
 * found in the LICENSE.txt file.
 */

  .globl cuEGLStreamConsumerConnect
  .p2align 4
  .type cuEGLStreamConsumerConnect, %function
#ifndef IMPLIB_EXPORT_SHIMS
  .hidden cuEGLStreamConsumerConnect
#endif
cuEGLStreamConsumerConnect:
  .cfi_startproc
  .cfi_def_cfa_offset 8  // Return address
  // Intel opt. manual says to
  // "make the fall-through code following a conditional branch be the likely target for a branch with a forward target"
  // to hint static predictor.
  cmpq $0, _libcuda_so_tramp_table+792(%rip)
  je 2f
1:
  jmp *_libcuda_so_tramp_table+792(%rip)
2:
  pushq $99
  .cfi_adjust_cfa_offset 8
  call _libcuda_so_save_regs_and_resolve
  addq $8, %rsp
  .cfi_adjust_cfa_offset -8
  jmp *%rax
  .cfi_endproc

/*
 * Copyright 2018-2025 Yury Gribov
 *
 * The MIT License (MIT)
 *
 * Use of this source code is governed by MIT license that can be
 * found in the LICENSE.txt file.
 */

  .globl cuEGLStreamConsumerConnectWithFlags
  .p2align 4
  .type cuEGLStreamConsumerConnectWithFlags, %function
#ifndef IMPLIB_EXPORT_SHIMS
  .hidden cuEGLStreamConsumerConnectWithFlags
#endif
cuEGLStreamConsumerConnectWithFlags:
  .cfi_startproc
  .cfi_def_cfa_offset 8  // Return address
  // Intel opt. manual says to
  // "make the fall-through code following a conditional branch be the likely target for a branch with a forward target"
  // to hint static predictor.
  cmpq $0, _libcuda_so_tramp_table+800(%rip)
  je 2f
1:
  jmp *_libcuda_so_tramp_table+800(%rip)
2:
  pushq $100
  .cfi_adjust_cfa_offset 8
  call _libcuda_so_save_regs_and_resolve
  addq $8, %rsp
  .cfi_adjust_cfa_offset -8
  jmp *%rax
  .cfi_endproc

/*
 * Copyright 2018-2025 Yury Gribov
 *
 * The MIT License (MIT)
 *
 * Use of this source code is governed by MIT license that can be
 * found in the LICENSE.txt file.
 */

  .globl cuEGLStreamConsumerDisconnect
  .p2align 4
  .type cuEGLStreamConsumerDisconnect, %function
#ifndef IMPLIB_EXPORT_SHIMS
  .hidden cuEGLStreamConsumerDisconnect
#endif
cuEGLStreamConsumerDisconnect:
  .cfi_startproc
  .cfi_def_cfa_offset 8  // Return address
  // Intel opt. manual says to
  // "make the fall-through code following a conditional branch be the likely target for a branch with a forward target"
  // to hint static predictor.
  cmpq $0, _libcuda_so_tramp_table+808(%rip)
  je 2f
1:
  jmp *_libcuda_so_tramp_table+808(%rip)
2:
  pushq $101
  .cfi_adjust_cfa_offset 8
  call _libcuda_so_save_regs_and_resolve
  addq $8, %rsp
  .cfi_adjust_cfa_offset -8
  jmp *%rax
  .cfi_endproc

/*
 * Copyright 2018-2025 Yury Gribov
 *
 * The MIT License (MIT)
 *
 * Use of this source code is governed by MIT license that can be
 * found in the LICENSE.txt file.
 */

  .globl cuEGLStreamConsumerReleaseFrame
  .p2align 4
  .type cuEGLStreamConsumerReleaseFrame, %function
#ifndef IMPLIB_EXPORT_SHIMS
  .hidden cuEGLStreamConsumerReleaseFrame
#endif
cuEGLStreamConsumerReleaseFrame:
  .cfi_startproc
  .cfi_def_cfa_offset 8  // Return address
  // Intel opt. manual says to
  // "make the fall-through code following a conditional branch be the likely target for a branch with a forward target"
  // to hint static predictor.
  cmpq $0, _libcuda_so_tramp_table+816(%rip)
  je 2f
1:
  jmp *_libcuda_so_tramp_table+816(%rip)
2:
  pushq $102
  .cfi_adjust_cfa_offset 8
  call _libcuda_so_save_regs_and_resolve
  addq $8, %rsp
  .cfi_adjust_cfa_offset -8
  jmp *%rax
  .cfi_endproc

/*
 * Copyright 2018-2025 Yury Gribov
 *
 * The MIT License (MIT)
 *
 * Use of this source code is governed by MIT license that can be
 * found in the LICENSE.txt file.
 */

  .globl cuEGLStreamProducerConnect
  .p2align 4
  .type cuEGLStreamProducerConnect, %function
#ifndef IMPLIB_EXPORT_SHIMS
  .hidden cuEGLStreamProducerConnect
#endif
cuEGLStreamProducerConnect:
  .cfi_startproc
  .cfi_def_cfa_offset 8  // Return address
  // Intel opt. manual says to
  // "make the fall-through code following a conditional branch be the likely target for a branch with a forward target"
  // to hint static predictor.
  cmpq $0, _libcuda_so_tramp_table+824(%rip)
  je 2f
1:
  jmp *_libcuda_so_tramp_table+824(%rip)
2:
  pushq $103
  .cfi_adjust_cfa_offset 8
  call _libcuda_so_save_regs_and_resolve
  addq $8, %rsp
  .cfi_adjust_cfa_offset -8
  jmp *%rax
  .cfi_endproc

/*
 * Copyright 2018-2025 Yury Gribov
 *
 * The MIT License (MIT)
 *
 * Use of this source code is governed by MIT license that can be
 * found in the LICENSE.txt file.
 */

  .globl cuEGLStreamProducerDisconnect
  .p2align 4
  .type cuEGLStreamProducerDisconnect, %function
#ifndef IMPLIB_EXPORT_SHIMS
  .hidden cuEGLStreamProducerDisconnect
#endif
cuEGLStreamProducerDisconnect:
  .cfi_startproc
  .cfi_def_cfa_offset 8  // Return address
  // Intel opt. manual says to
  // "make the fall-through code following a conditional branch be the likely target for a branch with a forward target"
  // to hint static predictor.
  cmpq $0, _libcuda_so_tramp_table+832(%rip)
  je 2f
1:
  jmp *_libcuda_so_tramp_table+832(%rip)
2:
  pushq $104
  .cfi_adjust_cfa_offset 8
  call _libcuda_so_save_regs_and_resolve
  addq $8, %rsp
  .cfi_adjust_cfa_offset -8
  jmp *%rax
  .cfi_endproc

/*
 * Copyright 2018-2025 Yury Gribov
 *
 * The MIT License (MIT)
 *
 * Use of this source code is governed by MIT license that can be
 * found in the LICENSE.txt file.
 */

  .globl cuEGLStreamProducerPresentFrame
  .p2align 4
  .type cuEGLStreamProducerPresentFrame, %function
#ifndef IMPLIB_EXPORT_SHIMS
  .hidden cuEGLStreamProducerPresentFrame
#endif
cuEGLStreamProducerPresentFrame:
  .cfi_startproc
  .cfi_def_cfa_offset 8  // Return address
  // Intel opt. manual says to
  // "make the fall-through code following a conditional branch be the likely target for a branch with a forward target"
  // to hint static predictor.
  cmpq $0, _libcuda_so_tramp_table+840(%rip)
  je 2f
1:
  jmp *_libcuda_so_tramp_table+840(%rip)
2:
  pushq $105
  .cfi_adjust_cfa_offset 8
  call _libcuda_so_save_regs_and_resolve
  addq $8, %rsp
  .cfi_adjust_cfa_offset -8
  jmp *%rax
  .cfi_endproc

/*
 * Copyright 2018-2025 Yury Gribov
 *
 * The MIT License (MIT)
 *
 * Use of this source code is governed by MIT license that can be
 * found in the LICENSE.txt file.
 */

  .globl cuEGLStreamProducerReturnFrame
  .p2align 4
  .type cuEGLStreamProducerReturnFrame, %function
#ifndef IMPLIB_EXPORT_SHIMS
  .hidden cuEGLStreamProducerReturnFrame
#endif
cuEGLStreamProducerReturnFrame:
  .cfi_startproc
  .cfi_def_cfa_offset 8  // Return address
  // Intel opt. manual says to
  // "make the fall-through code following a conditional branch be the likely target for a branch with a forward target"
  // to hint static predictor.
  cmpq $0, _libcuda_so_tramp_table+848(%rip)
  je 2f
1:
  jmp *_libcuda_so_tramp_table+848(%rip)
2:
  pushq $106
  .cfi_adjust_cfa_offset 8
  call _libcuda_so_save_regs_and_resolve
  addq $8, %rsp
  .cfi_adjust_cfa_offset -8
  jmp *%rax
  .cfi_endproc

/*
 * Copyright 2018-2025 Yury Gribov
 *
 * The MIT License (MIT)
 *
 * Use of this source code is governed by MIT license that can be
 * found in the LICENSE.txt file.
 */

  .globl cuEventCreate
  .p2align 4
  .type cuEventCreate, %function
#ifndef IMPLIB_EXPORT_SHIMS
  .hidden cuEventCreate
#endif
cuEventCreate:
  .cfi_startproc
  .cfi_def_cfa_offset 8  // Return address
  // Intel opt. manual says to
  // "make the fall-through code following a conditional branch be the likely target for a branch with a forward target"
  // to hint static predictor.
  cmpq $0, _libcuda_so_tramp_table+856(%rip)
  je 2f
1:
  jmp *_libcuda_so_tramp_table+856(%rip)
2:
  pushq $107
  .cfi_adjust_cfa_offset 8
  call _libcuda_so_save_regs_and_resolve
  addq $8, %rsp
  .cfi_adjust_cfa_offset -8
  jmp *%rax
  .cfi_endproc

/*
 * Copyright 2018-2025 Yury Gribov
 *
 * The MIT License (MIT)
 *
 * Use of this source code is governed by MIT license that can be
 * found in the LICENSE.txt file.
 */

  .globl cuEventDestroy
  .p2align 4
  .type cuEventDestroy, %function
#ifndef IMPLIB_EXPORT_SHIMS
  .hidden cuEventDestroy
#endif
cuEventDestroy:
  .cfi_startproc
  .cfi_def_cfa_offset 8  // Return address
  // Intel opt. manual says to
  // "make the fall-through code following a conditional branch be the likely target for a branch with a forward target"
  // to hint static predictor.
  cmpq $0, _libcuda_so_tramp_table+864(%rip)
  je 2f
1:
  jmp *_libcuda_so_tramp_table+864(%rip)
2:
  pushq $108
  .cfi_adjust_cfa_offset 8
  call _libcuda_so_save_regs_and_resolve
  addq $8, %rsp
  .cfi_adjust_cfa_offset -8
  jmp *%rax
  .cfi_endproc

/*
 * Copyright 2018-2025 Yury Gribov
 *
 * The MIT License (MIT)
 *
 * Use of this source code is governed by MIT license that can be
 * found in the LICENSE.txt file.
 */

  .globl cuEventDestroy_v2
  .p2align 4
  .type cuEventDestroy_v2, %function
#ifndef IMPLIB_EXPORT_SHIMS
  .hidden cuEventDestroy_v2
#endif
cuEventDestroy_v2:
  .cfi_startproc
  .cfi_def_cfa_offset 8  // Return address
  // Intel opt. manual says to
  // "make the fall-through code following a conditional branch be the likely target for a branch with a forward target"
  // to hint static predictor.
  cmpq $0, _libcuda_so_tramp_table+872(%rip)
  je 2f
1:
  jmp *_libcuda_so_tramp_table+872(%rip)
2:
  pushq $109
  .cfi_adjust_cfa_offset 8
  call _libcuda_so_save_regs_and_resolve
  addq $8, %rsp
  .cfi_adjust_cfa_offset -8
  jmp *%rax
  .cfi_endproc

/*
 * Copyright 2018-2025 Yury Gribov
 *
 * The MIT License (MIT)
 *
 * Use of this source code is governed by MIT license that can be
 * found in the LICENSE.txt file.
 */

  .globl cuEventElapsedTime
  .p2align 4
  .type cuEventElapsedTime, %function
#ifndef IMPLIB_EXPORT_SHIMS
  .hidden cuEventElapsedTime
#endif
cuEventElapsedTime:
  .cfi_startproc
  .cfi_def_cfa_offset 8  // Return address
  // Intel opt. manual says to
  // "make the fall-through code following a conditional branch be the likely target for a branch with a forward target"
  // to hint static predictor.
  cmpq $0, _libcuda_so_tramp_table+880(%rip)
  je 2f
1:
  jmp *_libcuda_so_tramp_table+880(%rip)
2:
  pushq $110
  .cfi_adjust_cfa_offset 8
  call _libcuda_so_save_regs_and_resolve
  addq $8, %rsp
  .cfi_adjust_cfa_offset -8
  jmp *%rax
  .cfi_endproc

/*
 * Copyright 2018-2025 Yury Gribov
 *
 * The MIT License (MIT)
 *
 * Use of this source code is governed by MIT license that can be
 * found in the LICENSE.txt file.
 */

  .globl cuEventElapsedTime_v2
  .p2align 4
  .type cuEventElapsedTime_v2, %function
#ifndef IMPLIB_EXPORT_SHIMS
  .hidden cuEventElapsedTime_v2
#endif
cuEventElapsedTime_v2:
  .cfi_startproc
  .cfi_def_cfa_offset 8  // Return address
  // Intel opt. manual says to
  // "make the fall-through code following a conditional branch be the likely target for a branch with a forward target"
  // to hint static predictor.
  cmpq $0, _libcuda_so_tramp_table+888(%rip)
  je 2f
1:
  jmp *_libcuda_so_tramp_table+888(%rip)
2:
  pushq $111
  .cfi_adjust_cfa_offset 8
  call _libcuda_so_save_regs_and_resolve
  addq $8, %rsp
  .cfi_adjust_cfa_offset -8
  jmp *%rax
  .cfi_endproc

/*
 * Copyright 2018-2025 Yury Gribov
 *
 * The MIT License (MIT)
 *
 * Use of this source code is governed by MIT license that can be
 * found in the LICENSE.txt file.
 */

  .globl cuEventQuery
  .p2align 4
  .type cuEventQuery, %function
#ifndef IMPLIB_EXPORT_SHIMS
  .hidden cuEventQuery
#endif
cuEventQuery:
  .cfi_startproc
  .cfi_def_cfa_offset 8  // Return address
  // Intel opt. manual says to
  // "make the fall-through code following a conditional branch be the likely target for a branch with a forward target"
  // to hint static predictor.
  cmpq $0, _libcuda_so_tramp_table+896(%rip)
  je 2f
1:
  jmp *_libcuda_so_tramp_table+896(%rip)
2:
  pushq $112
  .cfi_adjust_cfa_offset 8
  call _libcuda_so_save_regs_and_resolve
  addq $8, %rsp
  .cfi_adjust_cfa_offset -8
  jmp *%rax
  .cfi_endproc

/*
 * Copyright 2018-2025 Yury Gribov
 *
 * The MIT License (MIT)
 *
 * Use of this source code is governed by MIT license that can be
 * found in the LICENSE.txt file.
 */

  .globl cuEventRecord
  .p2align 4
  .type cuEventRecord, %function
#ifndef IMPLIB_EXPORT_SHIMS
  .hidden cuEventRecord
#endif
cuEventRecord:
  .cfi_startproc
  .cfi_def_cfa_offset 8  // Return address
  // Intel opt. manual says to
  // "make the fall-through code following a conditional branch be the likely target for a branch with a forward target"
  // to hint static predictor.
  cmpq $0, _libcuda_so_tramp_table+904(%rip)
  je 2f
1:
  jmp *_libcuda_so_tramp_table+904(%rip)
2:
  pushq $113
  .cfi_adjust_cfa_offset 8
  call _libcuda_so_save_regs_and_resolve
  addq $8, %rsp
  .cfi_adjust_cfa_offset -8
  jmp *%rax
  .cfi_endproc

/*
 * Copyright 2018-2025 Yury Gribov
 *
 * The MIT License (MIT)
 *
 * Use of this source code is governed by MIT license that can be
 * found in the LICENSE.txt file.
 */

  .globl cuEventRecordWithFlags
  .p2align 4
  .type cuEventRecordWithFlags, %function
#ifndef IMPLIB_EXPORT_SHIMS
  .hidden cuEventRecordWithFlags
#endif
cuEventRecordWithFlags:
  .cfi_startproc
  .cfi_def_cfa_offset 8  // Return address
  // Intel opt. manual says to
  // "make the fall-through code following a conditional branch be the likely target for a branch with a forward target"
  // to hint static predictor.
  cmpq $0, _libcuda_so_tramp_table+912(%rip)
  je 2f
1:
  jmp *_libcuda_so_tramp_table+912(%rip)
2:
  pushq $114
  .cfi_adjust_cfa_offset 8
  call _libcuda_so_save_regs_and_resolve
  addq $8, %rsp
  .cfi_adjust_cfa_offset -8
  jmp *%rax
  .cfi_endproc

/*
 * Copyright 2018-2025 Yury Gribov
 *
 * The MIT License (MIT)
 *
 * Use of this source code is governed by MIT license that can be
 * found in the LICENSE.txt file.
 */

  .globl cuEventRecordWithFlags_ptsz
  .p2align 4
  .type cuEventRecordWithFlags_ptsz, %function
#ifndef IMPLIB_EXPORT_SHIMS
  .hidden cuEventRecordWithFlags_ptsz
#endif
cuEventRecordWithFlags_ptsz:
  .cfi_startproc
  .cfi_def_cfa_offset 8  // Return address
  // Intel opt. manual says to
  // "make the fall-through code following a conditional branch be the likely target for a branch with a forward target"
  // to hint static predictor.
  cmpq $0, _libcuda_so_tramp_table+920(%rip)
  je 2f
1:
  jmp *_libcuda_so_tramp_table+920(%rip)
2:
  pushq $115
  .cfi_adjust_cfa_offset 8
  call _libcuda_so_save_regs_and_resolve
  addq $8, %rsp
  .cfi_adjust_cfa_offset -8
  jmp *%rax
  .cfi_endproc

/*
 * Copyright 2018-2025 Yury Gribov
 *
 * The MIT License (MIT)
 *
 * Use of this source code is governed by MIT license that can be
 * found in the LICENSE.txt file.
 */

  .globl cuEventRecord_ptsz
  .p2align 4
  .type cuEventRecord_ptsz, %function
#ifndef IMPLIB_EXPORT_SHIMS
  .hidden cuEventRecord_ptsz
#endif
cuEventRecord_ptsz:
  .cfi_startproc
  .cfi_def_cfa_offset 8  // Return address
  // Intel opt. manual says to
  // "make the fall-through code following a conditional branch be the likely target for a branch with a forward target"
  // to hint static predictor.
  cmpq $0, _libcuda_so_tramp_table+928(%rip)
  je 2f
1:
  jmp *_libcuda_so_tramp_table+928(%rip)
2:
  pushq $116
  .cfi_adjust_cfa_offset 8
  call _libcuda_so_save_regs_and_resolve
  addq $8, %rsp
  .cfi_adjust_cfa_offset -8
  jmp *%rax
  .cfi_endproc

/*
 * Copyright 2018-2025 Yury Gribov
 *
 * The MIT License (MIT)
 *
 * Use of this source code is governed by MIT license that can be
 * found in the LICENSE.txt file.
 */

  .globl cuEventSynchronize
  .p2align 4
  .type cuEventSynchronize, %function
#ifndef IMPLIB_EXPORT_SHIMS
  .hidden cuEventSynchronize
#endif
cuEventSynchronize:
  .cfi_startproc
  .cfi_def_cfa_offset 8  // Return address
  // Intel opt. manual says to
  // "make the fall-through code following a conditional branch be the likely target for a branch with a forward target"
  // to hint static predictor.
  cmpq $0, _libcuda_so_tramp_table+936(%rip)
  je 2f
1:
  jmp *_libcuda_so_tramp_table+936(%rip)
2:
  pushq $117
  .cfi_adjust_cfa_offset 8
  call _libcuda_so_save_regs_and_resolve
  addq $8, %rsp
  .cfi_adjust_cfa_offset -8
  jmp *%rax
  .cfi_endproc

/*
 * Copyright 2018-2025 Yury Gribov
 *
 * The MIT License (MIT)
 *
 * Use of this source code is governed by MIT license that can be
 * found in the LICENSE.txt file.
 */

  .globl cuExternalMemoryGetMappedBuffer
  .p2align 4
  .type cuExternalMemoryGetMappedBuffer, %function
#ifndef IMPLIB_EXPORT_SHIMS
  .hidden cuExternalMemoryGetMappedBuffer
#endif
cuExternalMemoryGetMappedBuffer:
  .cfi_startproc
  .cfi_def_cfa_offset 8  // Return address
  // Intel opt. manual says to
  // "make the fall-through code following a conditional branch be the likely target for a branch with a forward target"
  // to hint static predictor.
  cmpq $0, _libcuda_so_tramp_table+944(%rip)
  je 2f
1:
  jmp *_libcuda_so_tramp_table+944(%rip)
2:
  pushq $118
  .cfi_adjust_cfa_offset 8
  call _libcuda_so_save_regs_and_resolve
  addq $8, %rsp
  .cfi_adjust_cfa_offset -8
  jmp *%rax
  .cfi_endproc

/*
 * Copyright 2018-2025 Yury Gribov
 *
 * The MIT License (MIT)
 *
 * Use of this source code is governed by MIT license that can be
 * found in the LICENSE.txt file.
 */

  .globl cuExternalMemoryGetMappedMipmappedArray
  .p2align 4
  .type cuExternalMemoryGetMappedMipmappedArray, %function
#ifndef IMPLIB_EXPORT_SHIMS
  .hidden cuExternalMemoryGetMappedMipmappedArray
#endif
cuExternalMemoryGetMappedMipmappedArray:
  .cfi_startproc
  .cfi_def_cfa_offset 8  // Return address
  // Intel opt. manual says to
  // "make the fall-through code following a conditional branch be the likely target for a branch with a forward target"
  // to hint static predictor.
  cmpq $0, _libcuda_so_tramp_table+952(%rip)
  je 2f
1:
  jmp *_libcuda_so_tramp_table+952(%rip)
2:
  pushq $119
  .cfi_adjust_cfa_offset 8
  call _libcuda_so_save_regs_and_resolve
  addq $8, %rsp
  .cfi_adjust_cfa_offset -8
  jmp *%rax
  .cfi_endproc

/*
 * Copyright 2018-2025 Yury Gribov
 *
 * The MIT License (MIT)
 *
 * Use of this source code is governed by MIT license that can be
 * found in the LICENSE.txt file.
 */

  .globl cuFlushGPUDirectRDMAWrites
  .p2align 4
  .type cuFlushGPUDirectRDMAWrites, %function
#ifndef IMPLIB_EXPORT_SHIMS
  .hidden cuFlushGPUDirectRDMAWrites
#endif
cuFlushGPUDirectRDMAWrites:
  .cfi_startproc
  .cfi_def_cfa_offset 8  // Return address
  // Intel opt. manual says to
  // "make the fall-through code following a conditional branch be the likely target for a branch with a forward target"
  // to hint static predictor.
  cmpq $0, _libcuda_so_tramp_table+960(%rip)
  je 2f
1:
  jmp *_libcuda_so_tramp_table+960(%rip)
2:
  pushq $120
  .cfi_adjust_cfa_offset 8
  call _libcuda_so_save_regs_and_resolve
  addq $8, %rsp
  .cfi_adjust_cfa_offset -8
  jmp *%rax
  .cfi_endproc

/*
 * Copyright 2018-2025 Yury Gribov
 *
 * The MIT License (MIT)
 *
 * Use of this source code is governed by MIT license that can be
 * found in the LICENSE.txt file.
 */

  .globl cuFuncGetAttribute
  .p2align 4
  .type cuFuncGetAttribute, %function
#ifndef IMPLIB_EXPORT_SHIMS
  .hidden cuFuncGetAttribute
#endif
cuFuncGetAttribute:
  .cfi_startproc
  .cfi_def_cfa_offset 8  // Return address
  // Intel opt. manual says to
  // "make the fall-through code following a conditional branch be the likely target for a branch with a forward target"
  // to hint static predictor.
  cmpq $0, _libcuda_so_tramp_table+968(%rip)
  je 2f
1:
  jmp *_libcuda_so_tramp_table+968(%rip)
2:
  pushq $121
  .cfi_adjust_cfa_offset 8
  call _libcuda_so_save_regs_and_resolve
  addq $8, %rsp
  .cfi_adjust_cfa_offset -8
  jmp *%rax
  .cfi_endproc

/*
 * Copyright 2018-2025 Yury Gribov
 *
 * The MIT License (MIT)
 *
 * Use of this source code is governed by MIT license that can be
 * found in the LICENSE.txt file.
 */

  .globl cuFuncGetModule
  .p2align 4
  .type cuFuncGetModule, %function
#ifndef IMPLIB_EXPORT_SHIMS
  .hidden cuFuncGetModule
#endif
cuFuncGetModule:
  .cfi_startproc
  .cfi_def_cfa_offset 8  // Return address
  // Intel opt. manual says to
  // "make the fall-through code following a conditional branch be the likely target for a branch with a forward target"
  // to hint static predictor.
  cmpq $0, _libcuda_so_tramp_table+976(%rip)
  je 2f
1:
  jmp *_libcuda_so_tramp_table+976(%rip)
2:
  pushq $122
  .cfi_adjust_cfa_offset 8
  call _libcuda_so_save_regs_and_resolve
  addq $8, %rsp
  .cfi_adjust_cfa_offset -8
  jmp *%rax
  .cfi_endproc

/*
 * Copyright 2018-2025 Yury Gribov
 *
 * The MIT License (MIT)
 *
 * Use of this source code is governed by MIT license that can be
 * found in the LICENSE.txt file.
 */

  .globl cuFuncGetName
  .p2align 4
  .type cuFuncGetName, %function
#ifndef IMPLIB_EXPORT_SHIMS
  .hidden cuFuncGetName
#endif
cuFuncGetName:
  .cfi_startproc
  .cfi_def_cfa_offset 8  // Return address
  // Intel opt. manual says to
  // "make the fall-through code following a conditional branch be the likely target for a branch with a forward target"
  // to hint static predictor.
  cmpq $0, _libcuda_so_tramp_table+984(%rip)
  je 2f
1:
  jmp *_libcuda_so_tramp_table+984(%rip)
2:
  pushq $123
  .cfi_adjust_cfa_offset 8
  call _libcuda_so_save_regs_and_resolve
  addq $8, %rsp
  .cfi_adjust_cfa_offset -8
  jmp *%rax
  .cfi_endproc

/*
 * Copyright 2018-2025 Yury Gribov
 *
 * The MIT License (MIT)
 *
 * Use of this source code is governed by MIT license that can be
 * found in the LICENSE.txt file.
 */

  .globl cuFuncGetParamInfo
  .p2align 4
  .type cuFuncGetParamInfo, %function
#ifndef IMPLIB_EXPORT_SHIMS
  .hidden cuFuncGetParamInfo
#endif
cuFuncGetParamInfo:
  .cfi_startproc
  .cfi_def_cfa_offset 8  // Return address
  // Intel opt. manual says to
  // "make the fall-through code following a conditional branch be the likely target for a branch with a forward target"
  // to hint static predictor.
  cmpq $0, _libcuda_so_tramp_table+992(%rip)
  je 2f
1:
  jmp *_libcuda_so_tramp_table+992(%rip)
2:
  pushq $124
  .cfi_adjust_cfa_offset 8
  call _libcuda_so_save_regs_and_resolve
  addq $8, %rsp
  .cfi_adjust_cfa_offset -8
  jmp *%rax
  .cfi_endproc

/*
 * Copyright 2018-2025 Yury Gribov
 *
 * The MIT License (MIT)
 *
 * Use of this source code is governed by MIT license that can be
 * found in the LICENSE.txt file.
 */

  .globl cuFuncIsLoaded
  .p2align 4
  .type cuFuncIsLoaded, %function
#ifndef IMPLIB_EXPORT_SHIMS
  .hidden cuFuncIsLoaded
#endif
cuFuncIsLoaded:
  .cfi_startproc
  .cfi_def_cfa_offset 8  // Return address
  // Intel opt. manual says to
  // "make the fall-through code following a conditional branch be the likely target for a branch with a forward target"
  // to hint static predictor.
  cmpq $0, _libcuda_so_tramp_table+1000(%rip)
  je 2f
1:
  jmp *_libcuda_so_tramp_table+1000(%rip)
2:
  pushq $125
  .cfi_adjust_cfa_offset 8
  call _libcuda_so_save_regs_and_resolve
  addq $8, %rsp
  .cfi_adjust_cfa_offset -8
  jmp *%rax
  .cfi_endproc

/*
 * Copyright 2018-2025 Yury Gribov
 *
 * The MIT License (MIT)
 *
 * Use of this source code is governed by MIT license that can be
 * found in the LICENSE.txt file.
 */

  .globl cuFuncLoad
  .p2align 4
  .type cuFuncLoad, %function
#ifndef IMPLIB_EXPORT_SHIMS
  .hidden cuFuncLoad
#endif
cuFuncLoad:
  .cfi_startproc
  .cfi_def_cfa_offset 8  // Return address
  // Intel opt. manual says to
  // "make the fall-through code following a conditional branch be the likely target for a branch with a forward target"
  // to hint static predictor.
  cmpq $0, _libcuda_so_tramp_table+1008(%rip)
  je 2f
1:
  jmp *_libcuda_so_tramp_table+1008(%rip)
2:
  pushq $126
  .cfi_adjust_cfa_offset 8
  call _libcuda_so_save_regs_and_resolve
  addq $8, %rsp
  .cfi_adjust_cfa_offset -8
  jmp *%rax
  .cfi_endproc

/*
 * Copyright 2018-2025 Yury Gribov
 *
 * The MIT License (MIT)
 *
 * Use of this source code is governed by MIT license that can be
 * found in the LICENSE.txt file.
 */

  .globl cuFuncSetAttribute
  .p2align 4
  .type cuFuncSetAttribute, %function
#ifndef IMPLIB_EXPORT_SHIMS
  .hidden cuFuncSetAttribute
#endif
cuFuncSetAttribute:
  .cfi_startproc
  .cfi_def_cfa_offset 8  // Return address
  // Intel opt. manual says to
  // "make the fall-through code following a conditional branch be the likely target for a branch with a forward target"
  // to hint static predictor.
  cmpq $0, _libcuda_so_tramp_table+1016(%rip)
  je 2f
1:
  jmp *_libcuda_so_tramp_table+1016(%rip)
2:
  pushq $127
  .cfi_adjust_cfa_offset 8
  call _libcuda_so_save_regs_and_resolve
  addq $8, %rsp
  .cfi_adjust_cfa_offset -8
  jmp *%rax
  .cfi_endproc

/*
 * Copyright 2018-2025 Yury Gribov
 *
 * The MIT License (MIT)
 *
 * Use of this source code is governed by MIT license that can be
 * found in the LICENSE.txt file.
 */

  .globl cuFuncSetBlockShape
  .p2align 4
  .type cuFuncSetBlockShape, %function
#ifndef IMPLIB_EXPORT_SHIMS
  .hidden cuFuncSetBlockShape
#endif
cuFuncSetBlockShape:
  .cfi_startproc
  .cfi_def_cfa_offset 8  // Return address
  // Intel opt. manual says to
  // "make the fall-through code following a conditional branch be the likely target for a branch with a forward target"
  // to hint static predictor.
  cmpq $0, _libcuda_so_tramp_table+1024(%rip)
  je 2f
1:
  jmp *_libcuda_so_tramp_table+1024(%rip)
2:
  pushq $128
  .cfi_adjust_cfa_offset 8
  call _libcuda_so_save_regs_and_resolve
  addq $8, %rsp
  .cfi_adjust_cfa_offset -8
  jmp *%rax
  .cfi_endproc

/*
 * Copyright 2018-2025 Yury Gribov
 *
 * The MIT License (MIT)
 *
 * Use of this source code is governed by MIT license that can be
 * found in the LICENSE.txt file.
 */

  .globl cuFuncSetCacheConfig
  .p2align 4
  .type cuFuncSetCacheConfig, %function
#ifndef IMPLIB_EXPORT_SHIMS
  .hidden cuFuncSetCacheConfig
#endif
cuFuncSetCacheConfig:
  .cfi_startproc
  .cfi_def_cfa_offset 8  // Return address
  // Intel opt. manual says to
  // "make the fall-through code following a conditional branch be the likely target for a branch with a forward target"
  // to hint static predictor.
  cmpq $0, _libcuda_so_tramp_table+1032(%rip)
  je 2f
1:
  jmp *_libcuda_so_tramp_table+1032(%rip)
2:
  pushq $129
  .cfi_adjust_cfa_offset 8
  call _libcuda_so_save_regs_and_resolve
  addq $8, %rsp
  .cfi_adjust_cfa_offset -8
  jmp *%rax
  .cfi_endproc

/*
 * Copyright 2018-2025 Yury Gribov
 *
 * The MIT License (MIT)
 *
 * Use of this source code is governed by MIT license that can be
 * found in the LICENSE.txt file.
 */

  .globl cuFuncSetSharedMemConfig
  .p2align 4
  .type cuFuncSetSharedMemConfig, %function
#ifndef IMPLIB_EXPORT_SHIMS
  .hidden cuFuncSetSharedMemConfig
#endif
cuFuncSetSharedMemConfig:
  .cfi_startproc
  .cfi_def_cfa_offset 8  // Return address
  // Intel opt. manual says to
  // "make the fall-through code following a conditional branch be the likely target for a branch with a forward target"
  // to hint static predictor.
  cmpq $0, _libcuda_so_tramp_table+1040(%rip)
  je 2f
1:
  jmp *_libcuda_so_tramp_table+1040(%rip)
2:
  pushq $130
  .cfi_adjust_cfa_offset 8
  call _libcuda_so_save_regs_and_resolve
  addq $8, %rsp
  .cfi_adjust_cfa_offset -8
  jmp *%rax
  .cfi_endproc

/*
 * Copyright 2018-2025 Yury Gribov
 *
 * The MIT License (MIT)
 *
 * Use of this source code is governed by MIT license that can be
 * found in the LICENSE.txt file.
 */

  .globl cuFuncSetSharedSize
  .p2align 4
  .type cuFuncSetSharedSize, %function
#ifndef IMPLIB_EXPORT_SHIMS
  .hidden cuFuncSetSharedSize
#endif
cuFuncSetSharedSize:
  .cfi_startproc
  .cfi_def_cfa_offset 8  // Return address
  // Intel opt. manual says to
  // "make the fall-through code following a conditional branch be the likely target for a branch with a forward target"
  // to hint static predictor.
  cmpq $0, _libcuda_so_tramp_table+1048(%rip)
  je 2f
1:
  jmp *_libcuda_so_tramp_table+1048(%rip)
2:
  pushq $131
  .cfi_adjust_cfa_offset 8
  call _libcuda_so_save_regs_and_resolve
  addq $8, %rsp
  .cfi_adjust_cfa_offset -8
  jmp *%rax
  .cfi_endproc

/*
 * Copyright 2018-2025 Yury Gribov
 *
 * The MIT License (MIT)
 *
 * Use of this source code is governed by MIT license that can be
 * found in the LICENSE.txt file.
 */

  .globl cuGLCtxCreate
  .p2align 4
  .type cuGLCtxCreate, %function
#ifndef IMPLIB_EXPORT_SHIMS
  .hidden cuGLCtxCreate
#endif
cuGLCtxCreate:
  .cfi_startproc
  .cfi_def_cfa_offset 8  // Return address
  // Intel opt. manual says to
  // "make the fall-through code following a conditional branch be the likely target for a branch with a forward target"
  // to hint static predictor.
  cmpq $0, _libcuda_so_tramp_table+1056(%rip)
  je 2f
1:
  jmp *_libcuda_so_tramp_table+1056(%rip)
2:
  pushq $132
  .cfi_adjust_cfa_offset 8
  call _libcuda_so_save_regs_and_resolve
  addq $8, %rsp
  .cfi_adjust_cfa_offset -8
  jmp *%rax
  .cfi_endproc

/*
 * Copyright 2018-2025 Yury Gribov
 *
 * The MIT License (MIT)
 *
 * Use of this source code is governed by MIT license that can be
 * found in the LICENSE.txt file.
 */

  .globl cuGLCtxCreate_v2
  .p2align 4
  .type cuGLCtxCreate_v2, %function
#ifndef IMPLIB_EXPORT_SHIMS
  .hidden cuGLCtxCreate_v2
#endif
cuGLCtxCreate_v2:
  .cfi_startproc
  .cfi_def_cfa_offset 8  // Return address
  // Intel opt. manual says to
  // "make the fall-through code following a conditional branch be the likely target for a branch with a forward target"
  // to hint static predictor.
  cmpq $0, _libcuda_so_tramp_table+1064(%rip)
  je 2f
1:
  jmp *_libcuda_so_tramp_table+1064(%rip)
2:
  pushq $133
  .cfi_adjust_cfa_offset 8
  call _libcuda_so_save_regs_and_resolve
  addq $8, %rsp
  .cfi_adjust_cfa_offset -8
  jmp *%rax
  .cfi_endproc

/*
 * Copyright 2018-2025 Yury Gribov
 *
 * The MIT License (MIT)
 *
 * Use of this source code is governed by MIT license that can be
 * found in the LICENSE.txt file.
 */

  .globl cuGLGetDevices
  .p2align 4
  .type cuGLGetDevices, %function
#ifndef IMPLIB_EXPORT_SHIMS
  .hidden cuGLGetDevices
#endif
cuGLGetDevices:
  .cfi_startproc
  .cfi_def_cfa_offset 8  // Return address
  // Intel opt. manual says to
  // "make the fall-through code following a conditional branch be the likely target for a branch with a forward target"
  // to hint static predictor.
  cmpq $0, _libcuda_so_tramp_table+1072(%rip)
  je 2f
1:
  jmp *_libcuda_so_tramp_table+1072(%rip)
2:
  pushq $134
  .cfi_adjust_cfa_offset 8
  call _libcuda_so_save_regs_and_resolve
  addq $8, %rsp
  .cfi_adjust_cfa_offset -8
  jmp *%rax
  .cfi_endproc

/*
 * Copyright 2018-2025 Yury Gribov
 *
 * The MIT License (MIT)
 *
 * Use of this source code is governed by MIT license that can be
 * found in the LICENSE.txt file.
 */

  .globl cuGLGetDevices_v2
  .p2align 4
  .type cuGLGetDevices_v2, %function
#ifndef IMPLIB_EXPORT_SHIMS
  .hidden cuGLGetDevices_v2
#endif
cuGLGetDevices_v2:
  .cfi_startproc
  .cfi_def_cfa_offset 8  // Return address
  // Intel opt. manual says to
  // "make the fall-through code following a conditional branch be the likely target for a branch with a forward target"
  // to hint static predictor.
  cmpq $0, _libcuda_so_tramp_table+1080(%rip)
  je 2f
1:
  jmp *_libcuda_so_tramp_table+1080(%rip)
2:
  pushq $135
  .cfi_adjust_cfa_offset 8
  call _libcuda_so_save_regs_and_resolve
  addq $8, %rsp
  .cfi_adjust_cfa_offset -8
  jmp *%rax
  .cfi_endproc

/*
 * Copyright 2018-2025 Yury Gribov
 *
 * The MIT License (MIT)
 *
 * Use of this source code is governed by MIT license that can be
 * found in the LICENSE.txt file.
 */

  .globl cuGLInit
  .p2align 4
  .type cuGLInit, %function
#ifndef IMPLIB_EXPORT_SHIMS
  .hidden cuGLInit
#endif
cuGLInit:
  .cfi_startproc
  .cfi_def_cfa_offset 8  // Return address
  // Intel opt. manual says to
  // "make the fall-through code following a conditional branch be the likely target for a branch with a forward target"
  // to hint static predictor.
  cmpq $0, _libcuda_so_tramp_table+1088(%rip)
  je 2f
1:
  jmp *_libcuda_so_tramp_table+1088(%rip)
2:
  pushq $136
  .cfi_adjust_cfa_offset 8
  call _libcuda_so_save_regs_and_resolve
  addq $8, %rsp
  .cfi_adjust_cfa_offset -8
  jmp *%rax
  .cfi_endproc

/*
 * Copyright 2018-2025 Yury Gribov
 *
 * The MIT License (MIT)
 *
 * Use of this source code is governed by MIT license that can be
 * found in the LICENSE.txt file.
 */

  .globl cuGLMapBufferObject
  .p2align 4
  .type cuGLMapBufferObject, %function
#ifndef IMPLIB_EXPORT_SHIMS
  .hidden cuGLMapBufferObject
#endif
cuGLMapBufferObject:
  .cfi_startproc
  .cfi_def_cfa_offset 8  // Return address
  // Intel opt. manual says to
  // "make the fall-through code following a conditional branch be the likely target for a branch with a forward target"
  // to hint static predictor.
  cmpq $0, _libcuda_so_tramp_table+1096(%rip)
  je 2f
1:
  jmp *_libcuda_so_tramp_table+1096(%rip)
2:
  pushq $137
  .cfi_adjust_cfa_offset 8
  call _libcuda_so_save_regs_and_resolve
  addq $8, %rsp
  .cfi_adjust_cfa_offset -8
  jmp *%rax
  .cfi_endproc

/*
 * Copyright 2018-2025 Yury Gribov
 *
 * The MIT License (MIT)
 *
 * Use of this source code is governed by MIT license that can be
 * found in the LICENSE.txt file.
 */

  .globl cuGLMapBufferObjectAsync
  .p2align 4
  .type cuGLMapBufferObjectAsync, %function
#ifndef IMPLIB_EXPORT_SHIMS
  .hidden cuGLMapBufferObjectAsync
#endif
cuGLMapBufferObjectAsync:
  .cfi_startproc
  .cfi_def_cfa_offset 8  // Return address
  // Intel opt. manual says to
  // "make the fall-through code following a conditional branch be the likely target for a branch with a forward target"
  // to hint static predictor.
  cmpq $0, _libcuda_so_tramp_table+1104(%rip)
  je 2f
1:
  jmp *_libcuda_so_tramp_table+1104(%rip)
2:
  pushq $138
  .cfi_adjust_cfa_offset 8
  call _libcuda_so_save_regs_and_resolve
  addq $8, %rsp
  .cfi_adjust_cfa_offset -8
  jmp *%rax
  .cfi_endproc

/*
 * Copyright 2018-2025 Yury Gribov
 *
 * The MIT License (MIT)
 *
 * Use of this source code is governed by MIT license that can be
 * found in the LICENSE.txt file.
 */

  .globl cuGLMapBufferObjectAsync_v2
  .p2align 4
  .type cuGLMapBufferObjectAsync_v2, %function
#ifndef IMPLIB_EXPORT_SHIMS
  .hidden cuGLMapBufferObjectAsync_v2
#endif
cuGLMapBufferObjectAsync_v2:
  .cfi_startproc
  .cfi_def_cfa_offset 8  // Return address
  // Intel opt. manual says to
  // "make the fall-through code following a conditional branch be the likely target for a branch with a forward target"
  // to hint static predictor.
  cmpq $0, _libcuda_so_tramp_table+1112(%rip)
  je 2f
1:
  jmp *_libcuda_so_tramp_table+1112(%rip)
2:
  pushq $139
  .cfi_adjust_cfa_offset 8
  call _libcuda_so_save_regs_and_resolve
  addq $8, %rsp
  .cfi_adjust_cfa_offset -8
  jmp *%rax
  .cfi_endproc

/*
 * Copyright 2018-2025 Yury Gribov
 *
 * The MIT License (MIT)
 *
 * Use of this source code is governed by MIT license that can be
 * found in the LICENSE.txt file.
 */

  .globl cuGLMapBufferObjectAsync_v2_ptsz
  .p2align 4
  .type cuGLMapBufferObjectAsync_v2_ptsz, %function
#ifndef IMPLIB_EXPORT_SHIMS
  .hidden cuGLMapBufferObjectAsync_v2_ptsz
#endif
cuGLMapBufferObjectAsync_v2_ptsz:
  .cfi_startproc
  .cfi_def_cfa_offset 8  // Return address
  // Intel opt. manual says to
  // "make the fall-through code following a conditional branch be the likely target for a branch with a forward target"
  // to hint static predictor.
  cmpq $0, _libcuda_so_tramp_table+1120(%rip)
  je 2f
1:
  jmp *_libcuda_so_tramp_table+1120(%rip)
2:
  pushq $140
  .cfi_adjust_cfa_offset 8
  call _libcuda_so_save_regs_and_resolve
  addq $8, %rsp
  .cfi_adjust_cfa_offset -8
  jmp *%rax
  .cfi_endproc

/*
 * Copyright 2018-2025 Yury Gribov
 *
 * The MIT License (MIT)
 *
 * Use of this source code is governed by MIT license that can be
 * found in the LICENSE.txt file.
 */

  .globl cuGLMapBufferObject_v2
  .p2align 4
  .type cuGLMapBufferObject_v2, %function
#ifndef IMPLIB_EXPORT_SHIMS
  .hidden cuGLMapBufferObject_v2
#endif
cuGLMapBufferObject_v2:
  .cfi_startproc
  .cfi_def_cfa_offset 8  // Return address
  // Intel opt. manual says to
  // "make the fall-through code following a conditional branch be the likely target for a branch with a forward target"
  // to hint static predictor.
  cmpq $0, _libcuda_so_tramp_table+1128(%rip)
  je 2f
1:
  jmp *_libcuda_so_tramp_table+1128(%rip)
2:
  pushq $141
  .cfi_adjust_cfa_offset 8
  call _libcuda_so_save_regs_and_resolve
  addq $8, %rsp
  .cfi_adjust_cfa_offset -8
  jmp *%rax
  .cfi_endproc

/*
 * Copyright 2018-2025 Yury Gribov
 *
 * The MIT License (MIT)
 *
 * Use of this source code is governed by MIT license that can be
 * found in the LICENSE.txt file.
 */

  .globl cuGLMapBufferObject_v2_ptds
  .p2align 4
  .type cuGLMapBufferObject_v2_ptds, %function
#ifndef IMPLIB_EXPORT_SHIMS
  .hidden cuGLMapBufferObject_v2_ptds
#endif
cuGLMapBufferObject_v2_ptds:
  .cfi_startproc
  .cfi_def_cfa_offset 8  // Return address
  // Intel opt. manual says to
  // "make the fall-through code following a conditional branch be the likely target for a branch with a forward target"
  // to hint static predictor.
  cmpq $0, _libcuda_so_tramp_table+1136(%rip)
  je 2f
1:
  jmp *_libcuda_so_tramp_table+1136(%rip)
2:
  pushq $142
  .cfi_adjust_cfa_offset 8
  call _libcuda_so_save_regs_and_resolve
  addq $8, %rsp
  .cfi_adjust_cfa_offset -8
  jmp *%rax
  .cfi_endproc

/*
 * Copyright 2018-2025 Yury Gribov
 *
 * The MIT License (MIT)
 *
 * Use of this source code is governed by MIT license that can be
 * found in the LICENSE.txt file.
 */

  .globl cuGLRegisterBufferObject
  .p2align 4
  .type cuGLRegisterBufferObject, %function
#ifndef IMPLIB_EXPORT_SHIMS
  .hidden cuGLRegisterBufferObject
#endif
cuGLRegisterBufferObject:
  .cfi_startproc
  .cfi_def_cfa_offset 8  // Return address
  // Intel opt. manual says to
  // "make the fall-through code following a conditional branch be the likely target for a branch with a forward target"
  // to hint static predictor.
  cmpq $0, _libcuda_so_tramp_table+1144(%rip)
  je 2f
1:
  jmp *_libcuda_so_tramp_table+1144(%rip)
2:
  pushq $143
  .cfi_adjust_cfa_offset 8
  call _libcuda_so_save_regs_and_resolve
  addq $8, %rsp
  .cfi_adjust_cfa_offset -8
  jmp *%rax
  .cfi_endproc

/*
 * Copyright 2018-2025 Yury Gribov
 *
 * The MIT License (MIT)
 *
 * Use of this source code is governed by MIT license that can be
 * found in the LICENSE.txt file.
 */

  .globl cuGLSetBufferObjectMapFlags
  .p2align 4
  .type cuGLSetBufferObjectMapFlags, %function
#ifndef IMPLIB_EXPORT_SHIMS
  .hidden cuGLSetBufferObjectMapFlags
#endif
cuGLSetBufferObjectMapFlags:
  .cfi_startproc
  .cfi_def_cfa_offset 8  // Return address
  // Intel opt. manual says to
  // "make the fall-through code following a conditional branch be the likely target for a branch with a forward target"
  // to hint static predictor.
  cmpq $0, _libcuda_so_tramp_table+1152(%rip)
  je 2f
1:
  jmp *_libcuda_so_tramp_table+1152(%rip)
2:
  pushq $144
  .cfi_adjust_cfa_offset 8
  call _libcuda_so_save_regs_and_resolve
  addq $8, %rsp
  .cfi_adjust_cfa_offset -8
  jmp *%rax
  .cfi_endproc

/*
 * Copyright 2018-2025 Yury Gribov
 *
 * The MIT License (MIT)
 *
 * Use of this source code is governed by MIT license that can be
 * found in the LICENSE.txt file.
 */

  .globl cuGLUnmapBufferObject
  .p2align 4
  .type cuGLUnmapBufferObject, %function
#ifndef IMPLIB_EXPORT_SHIMS
  .hidden cuGLUnmapBufferObject
#endif
cuGLUnmapBufferObject:
  .cfi_startproc
  .cfi_def_cfa_offset 8  // Return address
  // Intel opt. manual says to
  // "make the fall-through code following a conditional branch be the likely target for a branch with a forward target"
  // to hint static predictor.
  cmpq $0, _libcuda_so_tramp_table+1160(%rip)
  je 2f
1:
  jmp *_libcuda_so_tramp_table+1160(%rip)
2:
  pushq $145
  .cfi_adjust_cfa_offset 8
  call _libcuda_so_save_regs_and_resolve
  addq $8, %rsp
  .cfi_adjust_cfa_offset -8
  jmp *%rax
  .cfi_endproc

/*
 * Copyright 2018-2025 Yury Gribov
 *
 * The MIT License (MIT)
 *
 * Use of this source code is governed by MIT license that can be
 * found in the LICENSE.txt file.
 */

  .globl cuGLUnmapBufferObjectAsync
  .p2align 4
  .type cuGLUnmapBufferObjectAsync, %function
#ifndef IMPLIB_EXPORT_SHIMS
  .hidden cuGLUnmapBufferObjectAsync
#endif
cuGLUnmapBufferObjectAsync:
  .cfi_startproc
  .cfi_def_cfa_offset 8  // Return address
  // Intel opt. manual says to
  // "make the fall-through code following a conditional branch be the likely target for a branch with a forward target"
  // to hint static predictor.
  cmpq $0, _libcuda_so_tramp_table+1168(%rip)
  je 2f
1:
  jmp *_libcuda_so_tramp_table+1168(%rip)
2:
  pushq $146
  .cfi_adjust_cfa_offset 8
  call _libcuda_so_save_regs_and_resolve
  addq $8, %rsp
  .cfi_adjust_cfa_offset -8
  jmp *%rax
  .cfi_endproc

/*
 * Copyright 2018-2025 Yury Gribov
 *
 * The MIT License (MIT)
 *
 * Use of this source code is governed by MIT license that can be
 * found in the LICENSE.txt file.
 */

  .globl cuGLUnregisterBufferObject
  .p2align 4
  .type cuGLUnregisterBufferObject, %function
#ifndef IMPLIB_EXPORT_SHIMS
  .hidden cuGLUnregisterBufferObject
#endif
cuGLUnregisterBufferObject:
  .cfi_startproc
  .cfi_def_cfa_offset 8  // Return address
  // Intel opt. manual says to
  // "make the fall-through code following a conditional branch be the likely target for a branch with a forward target"
  // to hint static predictor.
  cmpq $0, _libcuda_so_tramp_table+1176(%rip)
  je 2f
1:
  jmp *_libcuda_so_tramp_table+1176(%rip)
2:
  pushq $147
  .cfi_adjust_cfa_offset 8
  call _libcuda_so_save_regs_and_resolve
  addq $8, %rsp
  .cfi_adjust_cfa_offset -8
  jmp *%rax
  .cfi_endproc

/*
 * Copyright 2018-2025 Yury Gribov
 *
 * The MIT License (MIT)
 *
 * Use of this source code is governed by MIT license that can be
 * found in the LICENSE.txt file.
 */

  .globl cuGetErrorName
  .p2align 4
  .type cuGetErrorName, %function
#ifndef IMPLIB_EXPORT_SHIMS
  .hidden cuGetErrorName
#endif
cuGetErrorName:
  .cfi_startproc
  .cfi_def_cfa_offset 8  // Return address
  // Intel opt. manual says to
  // "make the fall-through code following a conditional branch be the likely target for a branch with a forward target"
  // to hint static predictor.
  cmpq $0, _libcuda_so_tramp_table+1184(%rip)
  je 2f
1:
  jmp *_libcuda_so_tramp_table+1184(%rip)
2:
  pushq $148
  .cfi_adjust_cfa_offset 8
  call _libcuda_so_save_regs_and_resolve
  addq $8, %rsp
  .cfi_adjust_cfa_offset -8
  jmp *%rax
  .cfi_endproc

/*
 * Copyright 2018-2025 Yury Gribov
 *
 * The MIT License (MIT)
 *
 * Use of this source code is governed by MIT license that can be
 * found in the LICENSE.txt file.
 */

  .globl cuGetErrorString
  .p2align 4
  .type cuGetErrorString, %function
#ifndef IMPLIB_EXPORT_SHIMS
  .hidden cuGetErrorString
#endif
cuGetErrorString:
  .cfi_startproc
  .cfi_def_cfa_offset 8  // Return address
  // Intel opt. manual says to
  // "make the fall-through code following a conditional branch be the likely target for a branch with a forward target"
  // to hint static predictor.
  cmpq $0, _libcuda_so_tramp_table+1192(%rip)
  je 2f
1:
  jmp *_libcuda_so_tramp_table+1192(%rip)
2:
  pushq $149
  .cfi_adjust_cfa_offset 8
  call _libcuda_so_save_regs_and_resolve
  addq $8, %rsp
  .cfi_adjust_cfa_offset -8
  jmp *%rax
  .cfi_endproc

/*
 * Copyright 2018-2025 Yury Gribov
 *
 * The MIT License (MIT)
 *
 * Use of this source code is governed by MIT license that can be
 * found in the LICENSE.txt file.
 */

  .globl cuGetExportTable
  .p2align 4
  .type cuGetExportTable, %function
#ifndef IMPLIB_EXPORT_SHIMS
  .hidden cuGetExportTable
#endif
cuGetExportTable:
  .cfi_startproc
  .cfi_def_cfa_offset 8  // Return address
  // Intel opt. manual says to
  // "make the fall-through code following a conditional branch be the likely target for a branch with a forward target"
  // to hint static predictor.
  cmpq $0, _libcuda_so_tramp_table+1200(%rip)
  je 2f
1:
  jmp *_libcuda_so_tramp_table+1200(%rip)
2:
  pushq $150
  .cfi_adjust_cfa_offset 8
  call _libcuda_so_save_regs_and_resolve
  addq $8, %rsp
  .cfi_adjust_cfa_offset -8
  jmp *%rax
  .cfi_endproc

/*
 * Copyright 2018-2025 Yury Gribov
 *
 * The MIT License (MIT)
 *
 * Use of this source code is governed by MIT license that can be
 * found in the LICENSE.txt file.
 */

  .globl cuGetProcAddress
  .p2align 4
  .type cuGetProcAddress, %function
#ifndef IMPLIB_EXPORT_SHIMS
  .hidden cuGetProcAddress
#endif
cuGetProcAddress:
  .cfi_startproc
  .cfi_def_cfa_offset 8  // Return address
  // Intel opt. manual says to
  // "make the fall-through code following a conditional branch be the likely target for a branch with a forward target"
  // to hint static predictor.
  cmpq $0, _libcuda_so_tramp_table+1208(%rip)
  je 2f
1:
  jmp *_libcuda_so_tramp_table+1208(%rip)
2:
  pushq $151
  .cfi_adjust_cfa_offset 8
  call _libcuda_so_save_regs_and_resolve
  addq $8, %rsp
  .cfi_adjust_cfa_offset -8
  jmp *%rax
  .cfi_endproc

/*
 * Copyright 2018-2025 Yury Gribov
 *
 * The MIT License (MIT)
 *
 * Use of this source code is governed by MIT license that can be
 * found in the LICENSE.txt file.
 */

  .globl cuGetProcAddress_v2
  .p2align 4
  .type cuGetProcAddress_v2, %function
#ifndef IMPLIB_EXPORT_SHIMS
  .hidden cuGetProcAddress_v2
#endif
cuGetProcAddress_v2:
  .cfi_startproc
  .cfi_def_cfa_offset 8  // Return address
  // Intel opt. manual says to
  // "make the fall-through code following a conditional branch be the likely target for a branch with a forward target"
  // to hint static predictor.
  cmpq $0, _libcuda_so_tramp_table+1216(%rip)
  je 2f
1:
  jmp *_libcuda_so_tramp_table+1216(%rip)
2:
  pushq $152
  .cfi_adjust_cfa_offset 8
  call _libcuda_so_save_regs_and_resolve
  addq $8, %rsp
  .cfi_adjust_cfa_offset -8
  jmp *%rax
  .cfi_endproc

/*
 * Copyright 2018-2025 Yury Gribov
 *
 * The MIT License (MIT)
 *
 * Use of this source code is governed by MIT license that can be
 * found in the LICENSE.txt file.
 */

  .globl cuGraphAddBatchMemOpNode
  .p2align 4
  .type cuGraphAddBatchMemOpNode, %function
#ifndef IMPLIB_EXPORT_SHIMS
  .hidden cuGraphAddBatchMemOpNode
#endif
cuGraphAddBatchMemOpNode:
  .cfi_startproc
  .cfi_def_cfa_offset 8  // Return address
  // Intel opt. manual says to
  // "make the fall-through code following a conditional branch be the likely target for a branch with a forward target"
  // to hint static predictor.
  cmpq $0, _libcuda_so_tramp_table+1224(%rip)
  je 2f
1:
  jmp *_libcuda_so_tramp_table+1224(%rip)
2:
  pushq $153
  .cfi_adjust_cfa_offset 8
  call _libcuda_so_save_regs_and_resolve
  addq $8, %rsp
  .cfi_adjust_cfa_offset -8
  jmp *%rax
  .cfi_endproc

/*
 * Copyright 2018-2025 Yury Gribov
 *
 * The MIT License (MIT)
 *
 * Use of this source code is governed by MIT license that can be
 * found in the LICENSE.txt file.
 */

  .globl cuGraphAddChildGraphNode
  .p2align 4
  .type cuGraphAddChildGraphNode, %function
#ifndef IMPLIB_EXPORT_SHIMS
  .hidden cuGraphAddChildGraphNode
#endif
cuGraphAddChildGraphNode:
  .cfi_startproc
  .cfi_def_cfa_offset 8  // Return address
  // Intel opt. manual says to
  // "make the fall-through code following a conditional branch be the likely target for a branch with a forward target"
  // to hint static predictor.
  cmpq $0, _libcuda_so_tramp_table+1232(%rip)
  je 2f
1:
  jmp *_libcuda_so_tramp_table+1232(%rip)
2:
  pushq $154
  .cfi_adjust_cfa_offset 8
  call _libcuda_so_save_regs_and_resolve
  addq $8, %rsp
  .cfi_adjust_cfa_offset -8
  jmp *%rax
  .cfi_endproc

/*
 * Copyright 2018-2025 Yury Gribov
 *
 * The MIT License (MIT)
 *
 * Use of this source code is governed by MIT license that can be
 * found in the LICENSE.txt file.
 */

  .globl cuGraphAddDependencies
  .p2align 4
  .type cuGraphAddDependencies, %function
#ifndef IMPLIB_EXPORT_SHIMS
  .hidden cuGraphAddDependencies
#endif
cuGraphAddDependencies:
  .cfi_startproc
  .cfi_def_cfa_offset 8  // Return address
  // Intel opt. manual says to
  // "make the fall-through code following a conditional branch be the likely target for a branch with a forward target"
  // to hint static predictor.
  cmpq $0, _libcuda_so_tramp_table+1240(%rip)
  je 2f
1:
  jmp *_libcuda_so_tramp_table+1240(%rip)
2:
  pushq $155
  .cfi_adjust_cfa_offset 8
  call _libcuda_so_save_regs_and_resolve
  addq $8, %rsp
  .cfi_adjust_cfa_offset -8
  jmp *%rax
  .cfi_endproc

/*
 * Copyright 2018-2025 Yury Gribov
 *
 * The MIT License (MIT)
 *
 * Use of this source code is governed by MIT license that can be
 * found in the LICENSE.txt file.
 */

  .globl cuGraphAddDependencies_v2
  .p2align 4
  .type cuGraphAddDependencies_v2, %function
#ifndef IMPLIB_EXPORT_SHIMS
  .hidden cuGraphAddDependencies_v2
#endif
cuGraphAddDependencies_v2:
  .cfi_startproc
  .cfi_def_cfa_offset 8  // Return address
  // Intel opt. manual says to
  // "make the fall-through code following a conditional branch be the likely target for a branch with a forward target"
  // to hint static predictor.
  cmpq $0, _libcuda_so_tramp_table+1248(%rip)
  je 2f
1:
  jmp *_libcuda_so_tramp_table+1248(%rip)
2:
  pushq $156
  .cfi_adjust_cfa_offset 8
  call _libcuda_so_save_regs_and_resolve
  addq $8, %rsp
  .cfi_adjust_cfa_offset -8
  jmp *%rax
  .cfi_endproc

/*
 * Copyright 2018-2025 Yury Gribov
 *
 * The MIT License (MIT)
 *
 * Use of this source code is governed by MIT license that can be
 * found in the LICENSE.txt file.
 */

  .globl cuGraphAddEmptyNode
  .p2align 4
  .type cuGraphAddEmptyNode, %function
#ifndef IMPLIB_EXPORT_SHIMS
  .hidden cuGraphAddEmptyNode
#endif
cuGraphAddEmptyNode:
  .cfi_startproc
  .cfi_def_cfa_offset 8  // Return address
  // Intel opt. manual says to
  // "make the fall-through code following a conditional branch be the likely target for a branch with a forward target"
  // to hint static predictor.
  cmpq $0, _libcuda_so_tramp_table+1256(%rip)
  je 2f
1:
  jmp *_libcuda_so_tramp_table+1256(%rip)
2:
  pushq $157
  .cfi_adjust_cfa_offset 8
  call _libcuda_so_save_regs_and_resolve
  addq $8, %rsp
  .cfi_adjust_cfa_offset -8
  jmp *%rax
  .cfi_endproc

/*
 * Copyright 2018-2025 Yury Gribov
 *
 * The MIT License (MIT)
 *
 * Use of this source code is governed by MIT license that can be
 * found in the LICENSE.txt file.
 */

  .globl cuGraphAddEventRecordNode
  .p2align 4
  .type cuGraphAddEventRecordNode, %function
#ifndef IMPLIB_EXPORT_SHIMS
  .hidden cuGraphAddEventRecordNode
#endif
cuGraphAddEventRecordNode:
  .cfi_startproc
  .cfi_def_cfa_offset 8  // Return address
  // Intel opt. manual says to
  // "make the fall-through code following a conditional branch be the likely target for a branch with a forward target"
  // to hint static predictor.
  cmpq $0, _libcuda_so_tramp_table+1264(%rip)
  je 2f
1:
  jmp *_libcuda_so_tramp_table+1264(%rip)
2:
  pushq $158
  .cfi_adjust_cfa_offset 8
  call _libcuda_so_save_regs_and_resolve
  addq $8, %rsp
  .cfi_adjust_cfa_offset -8
  jmp *%rax
  .cfi_endproc

/*
 * Copyright 2018-2025 Yury Gribov
 *
 * The MIT License (MIT)
 *
 * Use of this source code is governed by MIT license that can be
 * found in the LICENSE.txt file.
 */

  .globl cuGraphAddEventWaitNode
  .p2align 4
  .type cuGraphAddEventWaitNode, %function
#ifndef IMPLIB_EXPORT_SHIMS
  .hidden cuGraphAddEventWaitNode
#endif
cuGraphAddEventWaitNode:
  .cfi_startproc
  .cfi_def_cfa_offset 8  // Return address
  // Intel opt. manual says to
  // "make the fall-through code following a conditional branch be the likely target for a branch with a forward target"
  // to hint static predictor.
  cmpq $0, _libcuda_so_tramp_table+1272(%rip)
  je 2f
1:
  jmp *_libcuda_so_tramp_table+1272(%rip)
2:
  pushq $159
  .cfi_adjust_cfa_offset 8
  call _libcuda_so_save_regs_and_resolve
  addq $8, %rsp
  .cfi_adjust_cfa_offset -8
  jmp *%rax
  .cfi_endproc

/*
 * Copyright 2018-2025 Yury Gribov
 *
 * The MIT License (MIT)
 *
 * Use of this source code is governed by MIT license that can be
 * found in the LICENSE.txt file.
 */

  .globl cuGraphAddExternalSemaphoresSignalNode
  .p2align 4
  .type cuGraphAddExternalSemaphoresSignalNode, %function
#ifndef IMPLIB_EXPORT_SHIMS
  .hidden cuGraphAddExternalSemaphoresSignalNode
#endif
cuGraphAddExternalSemaphoresSignalNode:
  .cfi_startproc
  .cfi_def_cfa_offset 8  // Return address
  // Intel opt. manual says to
  // "make the fall-through code following a conditional branch be the likely target for a branch with a forward target"
  // to hint static predictor.
  cmpq $0, _libcuda_so_tramp_table+1280(%rip)
  je 2f
1:
  jmp *_libcuda_so_tramp_table+1280(%rip)
2:
  pushq $160
  .cfi_adjust_cfa_offset 8
  call _libcuda_so_save_regs_and_resolve
  addq $8, %rsp
  .cfi_adjust_cfa_offset -8
  jmp *%rax
  .cfi_endproc

/*
 * Copyright 2018-2025 Yury Gribov
 *
 * The MIT License (MIT)
 *
 * Use of this source code is governed by MIT license that can be
 * found in the LICENSE.txt file.
 */

  .globl cuGraphAddExternalSemaphoresWaitNode
  .p2align 4
  .type cuGraphAddExternalSemaphoresWaitNode, %function
#ifndef IMPLIB_EXPORT_SHIMS
  .hidden cuGraphAddExternalSemaphoresWaitNode
#endif
cuGraphAddExternalSemaphoresWaitNode:
  .cfi_startproc
  .cfi_def_cfa_offset 8  // Return address
  // Intel opt. manual says to
  // "make the fall-through code following a conditional branch be the likely target for a branch with a forward target"
  // to hint static predictor.
  cmpq $0, _libcuda_so_tramp_table+1288(%rip)
  je 2f
1:
  jmp *_libcuda_so_tramp_table+1288(%rip)
2:
  pushq $161
  .cfi_adjust_cfa_offset 8
  call _libcuda_so_save_regs_and_resolve
  addq $8, %rsp
  .cfi_adjust_cfa_offset -8
  jmp *%rax
  .cfi_endproc

/*
 * Copyright 2018-2025 Yury Gribov
 *
 * The MIT License (MIT)
 *
 * Use of this source code is governed by MIT license that can be
 * found in the LICENSE.txt file.
 */

  .globl cuGraphAddHostNode
  .p2align 4
  .type cuGraphAddHostNode, %function
#ifndef IMPLIB_EXPORT_SHIMS
  .hidden cuGraphAddHostNode
#endif
cuGraphAddHostNode:
  .cfi_startproc
  .cfi_def_cfa_offset 8  // Return address
  // Intel opt. manual says to
  // "make the fall-through code following a conditional branch be the likely target for a branch with a forward target"
  // to hint static predictor.
  cmpq $0, _libcuda_so_tramp_table+1296(%rip)
  je 2f
1:
  jmp *_libcuda_so_tramp_table+1296(%rip)
2:
  pushq $162
  .cfi_adjust_cfa_offset 8
  call _libcuda_so_save_regs_and_resolve
  addq $8, %rsp
  .cfi_adjust_cfa_offset -8
  jmp *%rax
  .cfi_endproc

/*
 * Copyright 2018-2025 Yury Gribov
 *
 * The MIT License (MIT)
 *
 * Use of this source code is governed by MIT license that can be
 * found in the LICENSE.txt file.
 */

  .globl cuGraphAddKernelNode
  .p2align 4
  .type cuGraphAddKernelNode, %function
#ifndef IMPLIB_EXPORT_SHIMS
  .hidden cuGraphAddKernelNode
#endif
cuGraphAddKernelNode:
  .cfi_startproc
  .cfi_def_cfa_offset 8  // Return address
  // Intel opt. manual says to
  // "make the fall-through code following a conditional branch be the likely target for a branch with a forward target"
  // to hint static predictor.
  cmpq $0, _libcuda_so_tramp_table+1304(%rip)
  je 2f
1:
  jmp *_libcuda_so_tramp_table+1304(%rip)
2:
  pushq $163
  .cfi_adjust_cfa_offset 8
  call _libcuda_so_save_regs_and_resolve
  addq $8, %rsp
  .cfi_adjust_cfa_offset -8
  jmp *%rax
  .cfi_endproc

/*
 * Copyright 2018-2025 Yury Gribov
 *
 * The MIT License (MIT)
 *
 * Use of this source code is governed by MIT license that can be
 * found in the LICENSE.txt file.
 */

  .globl cuGraphAddKernelNode_v2
  .p2align 4
  .type cuGraphAddKernelNode_v2, %function
#ifndef IMPLIB_EXPORT_SHIMS
  .hidden cuGraphAddKernelNode_v2
#endif
cuGraphAddKernelNode_v2:
  .cfi_startproc
  .cfi_def_cfa_offset 8  // Return address
  // Intel opt. manual says to
  // "make the fall-through code following a conditional branch be the likely target for a branch with a forward target"
  // to hint static predictor.
  cmpq $0, _libcuda_so_tramp_table+1312(%rip)
  je 2f
1:
  jmp *_libcuda_so_tramp_table+1312(%rip)
2:
  pushq $164
  .cfi_adjust_cfa_offset 8
  call _libcuda_so_save_regs_and_resolve
  addq $8, %rsp
  .cfi_adjust_cfa_offset -8
  jmp *%rax
  .cfi_endproc

/*
 * Copyright 2018-2025 Yury Gribov
 *
 * The MIT License (MIT)
 *
 * Use of this source code is governed by MIT license that can be
 * found in the LICENSE.txt file.
 */

  .globl cuGraphAddMemAllocNode
  .p2align 4
  .type cuGraphAddMemAllocNode, %function
#ifndef IMPLIB_EXPORT_SHIMS
  .hidden cuGraphAddMemAllocNode
#endif
cuGraphAddMemAllocNode:
  .cfi_startproc
  .cfi_def_cfa_offset 8  // Return address
  // Intel opt. manual says to
  // "make the fall-through code following a conditional branch be the likely target for a branch with a forward target"
  // to hint static predictor.
  cmpq $0, _libcuda_so_tramp_table+1320(%rip)
  je 2f
1:
  jmp *_libcuda_so_tramp_table+1320(%rip)
2:
  pushq $165
  .cfi_adjust_cfa_offset 8
  call _libcuda_so_save_regs_and_resolve
  addq $8, %rsp
  .cfi_adjust_cfa_offset -8
  jmp *%rax
  .cfi_endproc

/*
 * Copyright 2018-2025 Yury Gribov
 *
 * The MIT License (MIT)
 *
 * Use of this source code is governed by MIT license that can be
 * found in the LICENSE.txt file.
 */

  .globl cuGraphAddMemFreeNode
  .p2align 4
  .type cuGraphAddMemFreeNode, %function
#ifndef IMPLIB_EXPORT_SHIMS
  .hidden cuGraphAddMemFreeNode
#endif
cuGraphAddMemFreeNode:
  .cfi_startproc
  .cfi_def_cfa_offset 8  // Return address
  // Intel opt. manual says to
  // "make the fall-through code following a conditional branch be the likely target for a branch with a forward target"
  // to hint static predictor.
  cmpq $0, _libcuda_so_tramp_table+1328(%rip)
  je 2f
1:
  jmp *_libcuda_so_tramp_table+1328(%rip)
2:
  pushq $166
  .cfi_adjust_cfa_offset 8
  call _libcuda_so_save_regs_and_resolve
  addq $8, %rsp
  .cfi_adjust_cfa_offset -8
  jmp *%rax
  .cfi_endproc

/*
 * Copyright 2018-2025 Yury Gribov
 *
 * The MIT License (MIT)
 *
 * Use of this source code is governed by MIT license that can be
 * found in the LICENSE.txt file.
 */

  .globl cuGraphAddMemcpyNode
  .p2align 4
  .type cuGraphAddMemcpyNode, %function
#ifndef IMPLIB_EXPORT_SHIMS
  .hidden cuGraphAddMemcpyNode
#endif
cuGraphAddMemcpyNode:
  .cfi_startproc
  .cfi_def_cfa_offset 8  // Return address
  // Intel opt. manual says to
  // "make the fall-through code following a conditional branch be the likely target for a branch with a forward target"
  // to hint static predictor.
  cmpq $0, _libcuda_so_tramp_table+1336(%rip)
  je 2f
1:
  jmp *_libcuda_so_tramp_table+1336(%rip)
2:
  pushq $167
  .cfi_adjust_cfa_offset 8
  call _libcuda_so_save_regs_and_resolve
  addq $8, %rsp
  .cfi_adjust_cfa_offset -8
  jmp *%rax
  .cfi_endproc

/*
 * Copyright 2018-2025 Yury Gribov
 *
 * The MIT License (MIT)
 *
 * Use of this source code is governed by MIT license that can be
 * found in the LICENSE.txt file.
 */

  .globl cuGraphAddMemsetNode
  .p2align 4
  .type cuGraphAddMemsetNode, %function
#ifndef IMPLIB_EXPORT_SHIMS
  .hidden cuGraphAddMemsetNode
#endif
cuGraphAddMemsetNode:
  .cfi_startproc
  .cfi_def_cfa_offset 8  // Return address
  // Intel opt. manual says to
  // "make the fall-through code following a conditional branch be the likely target for a branch with a forward target"
  // to hint static predictor.
  cmpq $0, _libcuda_so_tramp_table+1344(%rip)
  je 2f
1:
  jmp *_libcuda_so_tramp_table+1344(%rip)
2:
  pushq $168
  .cfi_adjust_cfa_offset 8
  call _libcuda_so_save_regs_and_resolve
  addq $8, %rsp
  .cfi_adjust_cfa_offset -8
  jmp *%rax
  .cfi_endproc

/*
 * Copyright 2018-2025 Yury Gribov
 *
 * The MIT License (MIT)
 *
 * Use of this source code is governed by MIT license that can be
 * found in the LICENSE.txt file.
 */

  .globl cuGraphAddNode
  .p2align 4
  .type cuGraphAddNode, %function
#ifndef IMPLIB_EXPORT_SHIMS
  .hidden cuGraphAddNode
#endif
cuGraphAddNode:
  .cfi_startproc
  .cfi_def_cfa_offset 8  // Return address
  // Intel opt. manual says to
  // "make the fall-through code following a conditional branch be the likely target for a branch with a forward target"
  // to hint static predictor.
  cmpq $0, _libcuda_so_tramp_table+1352(%rip)
  je 2f
1:
  jmp *_libcuda_so_tramp_table+1352(%rip)
2:
  pushq $169
  .cfi_adjust_cfa_offset 8
  call _libcuda_so_save_regs_and_resolve
  addq $8, %rsp
  .cfi_adjust_cfa_offset -8
  jmp *%rax
  .cfi_endproc

/*
 * Copyright 2018-2025 Yury Gribov
 *
 * The MIT License (MIT)
 *
 * Use of this source code is governed by MIT license that can be
 * found in the LICENSE.txt file.
 */

  .globl cuGraphAddNode_v2
  .p2align 4
  .type cuGraphAddNode_v2, %function
#ifndef IMPLIB_EXPORT_SHIMS
  .hidden cuGraphAddNode_v2
#endif
cuGraphAddNode_v2:
  .cfi_startproc
  .cfi_def_cfa_offset 8  // Return address
  // Intel opt. manual says to
  // "make the fall-through code following a conditional branch be the likely target for a branch with a forward target"
  // to hint static predictor.
  cmpq $0, _libcuda_so_tramp_table+1360(%rip)
  je 2f
1:
  jmp *_libcuda_so_tramp_table+1360(%rip)
2:
  pushq $170
  .cfi_adjust_cfa_offset 8
  call _libcuda_so_save_regs_and_resolve
  addq $8, %rsp
  .cfi_adjust_cfa_offset -8
  jmp *%rax
  .cfi_endproc

/*
 * Copyright 2018-2025 Yury Gribov
 *
 * The MIT License (MIT)
 *
 * Use of this source code is governed by MIT license that can be
 * found in the LICENSE.txt file.
 */

  .globl cuGraphBatchMemOpNodeGetParams
  .p2align 4
  .type cuGraphBatchMemOpNodeGetParams, %function
#ifndef IMPLIB_EXPORT_SHIMS
  .hidden cuGraphBatchMemOpNodeGetParams
#endif
cuGraphBatchMemOpNodeGetParams:
  .cfi_startproc
  .cfi_def_cfa_offset 8  // Return address
  // Intel opt. manual says to
  // "make the fall-through code following a conditional branch be the likely target for a branch with a forward target"
  // to hint static predictor.
  cmpq $0, _libcuda_so_tramp_table+1368(%rip)
  je 2f
1:
  jmp *_libcuda_so_tramp_table+1368(%rip)
2:
  pushq $171
  .cfi_adjust_cfa_offset 8
  call _libcuda_so_save_regs_and_resolve
  addq $8, %rsp
  .cfi_adjust_cfa_offset -8
  jmp *%rax
  .cfi_endproc

/*
 * Copyright 2018-2025 Yury Gribov
 *
 * The MIT License (MIT)
 *
 * Use of this source code is governed by MIT license that can be
 * found in the LICENSE.txt file.
 */

  .globl cuGraphBatchMemOpNodeSetParams
  .p2align 4
  .type cuGraphBatchMemOpNodeSetParams, %function
#ifndef IMPLIB_EXPORT_SHIMS
  .hidden cuGraphBatchMemOpNodeSetParams
#endif
cuGraphBatchMemOpNodeSetParams:
  .cfi_startproc
  .cfi_def_cfa_offset 8  // Return address
  // Intel opt. manual says to
  // "make the fall-through code following a conditional branch be the likely target for a branch with a forward target"
  // to hint static predictor.
  cmpq $0, _libcuda_so_tramp_table+1376(%rip)
  je 2f
1:
  jmp *_libcuda_so_tramp_table+1376(%rip)
2:
  pushq $172
  .cfi_adjust_cfa_offset 8
  call _libcuda_so_save_regs_and_resolve
  addq $8, %rsp
  .cfi_adjust_cfa_offset -8
  jmp *%rax
  .cfi_endproc

/*
 * Copyright 2018-2025 Yury Gribov
 *
 * The MIT License (MIT)
 *
 * Use of this source code is governed by MIT license that can be
 * found in the LICENSE.txt file.
 */

  .globl cuGraphChildGraphNodeGetGraph
  .p2align 4
  .type cuGraphChildGraphNodeGetGraph, %function
#ifndef IMPLIB_EXPORT_SHIMS
  .hidden cuGraphChildGraphNodeGetGraph
#endif
cuGraphChildGraphNodeGetGraph:
  .cfi_startproc
  .cfi_def_cfa_offset 8  // Return address
  // Intel opt. manual says to
  // "make the fall-through code following a conditional branch be the likely target for a branch with a forward target"
  // to hint static predictor.
  cmpq $0, _libcuda_so_tramp_table+1384(%rip)
  je 2f
1:
  jmp *_libcuda_so_tramp_table+1384(%rip)
2:
  pushq $173
  .cfi_adjust_cfa_offset 8
  call _libcuda_so_save_regs_and_resolve
  addq $8, %rsp
  .cfi_adjust_cfa_offset -8
  jmp *%rax
  .cfi_endproc

/*
 * Copyright 2018-2025 Yury Gribov
 *
 * The MIT License (MIT)
 *
 * Use of this source code is governed by MIT license that can be
 * found in the LICENSE.txt file.
 */

  .globl cuGraphClone
  .p2align 4
  .type cuGraphClone, %function
#ifndef IMPLIB_EXPORT_SHIMS
  .hidden cuGraphClone
#endif
cuGraphClone:
  .cfi_startproc
  .cfi_def_cfa_offset 8  // Return address
  // Intel opt. manual says to
  // "make the fall-through code following a conditional branch be the likely target for a branch with a forward target"
  // to hint static predictor.
  cmpq $0, _libcuda_so_tramp_table+1392(%rip)
  je 2f
1:
  jmp *_libcuda_so_tramp_table+1392(%rip)
2:
  pushq $174
  .cfi_adjust_cfa_offset 8
  call _libcuda_so_save_regs_and_resolve
  addq $8, %rsp
  .cfi_adjust_cfa_offset -8
  jmp *%rax
  .cfi_endproc

/*
 * Copyright 2018-2025 Yury Gribov
 *
 * The MIT License (MIT)
 *
 * Use of this source code is governed by MIT license that can be
 * found in the LICENSE.txt file.
 */

  .globl cuGraphConditionalHandleCreate
  .p2align 4
  .type cuGraphConditionalHandleCreate, %function
#ifndef IMPLIB_EXPORT_SHIMS
  .hidden cuGraphConditionalHandleCreate
#endif
cuGraphConditionalHandleCreate:
  .cfi_startproc
  .cfi_def_cfa_offset 8  // Return address
  // Intel opt. manual says to
  // "make the fall-through code following a conditional branch be the likely target for a branch with a forward target"
  // to hint static predictor.
  cmpq $0, _libcuda_so_tramp_table+1400(%rip)
  je 2f
1:
  jmp *_libcuda_so_tramp_table+1400(%rip)
2:
  pushq $175
  .cfi_adjust_cfa_offset 8
  call _libcuda_so_save_regs_and_resolve
  addq $8, %rsp
  .cfi_adjust_cfa_offset -8
  jmp *%rax
  .cfi_endproc

/*
 * Copyright 2018-2025 Yury Gribov
 *
 * The MIT License (MIT)
 *
 * Use of this source code is governed by MIT license that can be
 * found in the LICENSE.txt file.
 */

  .globl cuGraphCreate
  .p2align 4
  .type cuGraphCreate, %function
#ifndef IMPLIB_EXPORT_SHIMS
  .hidden cuGraphCreate
#endif
cuGraphCreate:
  .cfi_startproc
  .cfi_def_cfa_offset 8  // Return address
  // Intel opt. manual says to
  // "make the fall-through code following a conditional branch be the likely target for a branch with a forward target"
  // to hint static predictor.
  cmpq $0, _libcuda_so_tramp_table+1408(%rip)
  je 2f
1:
  jmp *_libcuda_so_tramp_table+1408(%rip)
2:
  pushq $176
  .cfi_adjust_cfa_offset 8
  call _libcuda_so_save_regs_and_resolve
  addq $8, %rsp
  .cfi_adjust_cfa_offset -8
  jmp *%rax
  .cfi_endproc

/*
 * Copyright 2018-2025 Yury Gribov
 *
 * The MIT License (MIT)
 *
 * Use of this source code is governed by MIT license that can be
 * found in the LICENSE.txt file.
 */

  .globl cuGraphDebugDotPrint
  .p2align 4
  .type cuGraphDebugDotPrint, %function
#ifndef IMPLIB_EXPORT_SHIMS
  .hidden cuGraphDebugDotPrint
#endif
cuGraphDebugDotPrint:
  .cfi_startproc
  .cfi_def_cfa_offset 8  // Return address
  // Intel opt. manual says to
  // "make the fall-through code following a conditional branch be the likely target for a branch with a forward target"
  // to hint static predictor.
  cmpq $0, _libcuda_so_tramp_table+1416(%rip)
  je 2f
1:
  jmp *_libcuda_so_tramp_table+1416(%rip)
2:
  pushq $177
  .cfi_adjust_cfa_offset 8
  call _libcuda_so_save_regs_and_resolve
  addq $8, %rsp
  .cfi_adjust_cfa_offset -8
  jmp *%rax
  .cfi_endproc

/*
 * Copyright 2018-2025 Yury Gribov
 *
 * The MIT License (MIT)
 *
 * Use of this source code is governed by MIT license that can be
 * found in the LICENSE.txt file.
 */

  .globl cuGraphDestroy
  .p2align 4
  .type cuGraphDestroy, %function
#ifndef IMPLIB_EXPORT_SHIMS
  .hidden cuGraphDestroy
#endif
cuGraphDestroy:
  .cfi_startproc
  .cfi_def_cfa_offset 8  // Return address
  // Intel opt. manual says to
  // "make the fall-through code following a conditional branch be the likely target for a branch with a forward target"
  // to hint static predictor.
  cmpq $0, _libcuda_so_tramp_table+1424(%rip)
  je 2f
1:
  jmp *_libcuda_so_tramp_table+1424(%rip)
2:
  pushq $178
  .cfi_adjust_cfa_offset 8
  call _libcuda_so_save_regs_and_resolve
  addq $8, %rsp
  .cfi_adjust_cfa_offset -8
  jmp *%rax
  .cfi_endproc

/*
 * Copyright 2018-2025 Yury Gribov
 *
 * The MIT License (MIT)
 *
 * Use of this source code is governed by MIT license that can be
 * found in the LICENSE.txt file.
 */

  .globl cuGraphDestroyNode
  .p2align 4
  .type cuGraphDestroyNode, %function
#ifndef IMPLIB_EXPORT_SHIMS
  .hidden cuGraphDestroyNode
#endif
cuGraphDestroyNode:
  .cfi_startproc
  .cfi_def_cfa_offset 8  // Return address
  // Intel opt. manual says to
  // "make the fall-through code following a conditional branch be the likely target for a branch with a forward target"
  // to hint static predictor.
  cmpq $0, _libcuda_so_tramp_table+1432(%rip)
  je 2f
1:
  jmp *_libcuda_so_tramp_table+1432(%rip)
2:
  pushq $179
  .cfi_adjust_cfa_offset 8
  call _libcuda_so_save_regs_and_resolve
  addq $8, %rsp
  .cfi_adjust_cfa_offset -8
  jmp *%rax
  .cfi_endproc

/*
 * Copyright 2018-2025 Yury Gribov
 *
 * The MIT License (MIT)
 *
 * Use of this source code is governed by MIT license that can be
 * found in the LICENSE.txt file.
 */

  .globl cuGraphEventRecordNodeGetEvent
  .p2align 4
  .type cuGraphEventRecordNodeGetEvent, %function
#ifndef IMPLIB_EXPORT_SHIMS
  .hidden cuGraphEventRecordNodeGetEvent
#endif
cuGraphEventRecordNodeGetEvent:
  .cfi_startproc
  .cfi_def_cfa_offset 8  // Return address
  // Intel opt. manual says to
  // "make the fall-through code following a conditional branch be the likely target for a branch with a forward target"
  // to hint static predictor.
  cmpq $0, _libcuda_so_tramp_table+1440(%rip)
  je 2f
1:
  jmp *_libcuda_so_tramp_table+1440(%rip)
2:
  pushq $180
  .cfi_adjust_cfa_offset 8
  call _libcuda_so_save_regs_and_resolve
  addq $8, %rsp
  .cfi_adjust_cfa_offset -8
  jmp *%rax
  .cfi_endproc

/*
 * Copyright 2018-2025 Yury Gribov
 *
 * The MIT License (MIT)
 *
 * Use of this source code is governed by MIT license that can be
 * found in the LICENSE.txt file.
 */

  .globl cuGraphEventRecordNodeSetEvent
  .p2align 4
  .type cuGraphEventRecordNodeSetEvent, %function
#ifndef IMPLIB_EXPORT_SHIMS
  .hidden cuGraphEventRecordNodeSetEvent
#endif
cuGraphEventRecordNodeSetEvent:
  .cfi_startproc
  .cfi_def_cfa_offset 8  // Return address
  // Intel opt. manual says to
  // "make the fall-through code following a conditional branch be the likely target for a branch with a forward target"
  // to hint static predictor.
  cmpq $0, _libcuda_so_tramp_table+1448(%rip)
  je 2f
1:
  jmp *_libcuda_so_tramp_table+1448(%rip)
2:
  pushq $181
  .cfi_adjust_cfa_offset 8
  call _libcuda_so_save_regs_and_resolve
  addq $8, %rsp
  .cfi_adjust_cfa_offset -8
  jmp *%rax
  .cfi_endproc

/*
 * Copyright 2018-2025 Yury Gribov
 *
 * The MIT License (MIT)
 *
 * Use of this source code is governed by MIT license that can be
 * found in the LICENSE.txt file.
 */

  .globl cuGraphEventWaitNodeGetEvent
  .p2align 4
  .type cuGraphEventWaitNodeGetEvent, %function
#ifndef IMPLIB_EXPORT_SHIMS
  .hidden cuGraphEventWaitNodeGetEvent
#endif
cuGraphEventWaitNodeGetEvent:
  .cfi_startproc
  .cfi_def_cfa_offset 8  // Return address
  // Intel opt. manual says to
  // "make the fall-through code following a conditional branch be the likely target for a branch with a forward target"
  // to hint static predictor.
  cmpq $0, _libcuda_so_tramp_table+1456(%rip)
  je 2f
1:
  jmp *_libcuda_so_tramp_table+1456(%rip)
2:
  pushq $182
  .cfi_adjust_cfa_offset 8
  call _libcuda_so_save_regs_and_resolve
  addq $8, %rsp
  .cfi_adjust_cfa_offset -8
  jmp *%rax
  .cfi_endproc

/*
 * Copyright 2018-2025 Yury Gribov
 *
 * The MIT License (MIT)
 *
 * Use of this source code is governed by MIT license that can be
 * found in the LICENSE.txt file.
 */

  .globl cuGraphEventWaitNodeSetEvent
  .p2align 4
  .type cuGraphEventWaitNodeSetEvent, %function
#ifndef IMPLIB_EXPORT_SHIMS
  .hidden cuGraphEventWaitNodeSetEvent
#endif
cuGraphEventWaitNodeSetEvent:
  .cfi_startproc
  .cfi_def_cfa_offset 8  // Return address
  // Intel opt. manual says to
  // "make the fall-through code following a conditional branch be the likely target for a branch with a forward target"
  // to hint static predictor.
  cmpq $0, _libcuda_so_tramp_table+1464(%rip)
  je 2f
1:
  jmp *_libcuda_so_tramp_table+1464(%rip)
2:
  pushq $183
  .cfi_adjust_cfa_offset 8
  call _libcuda_so_save_regs_and_resolve
  addq $8, %rsp
  .cfi_adjust_cfa_offset -8
  jmp *%rax
  .cfi_endproc

/*
 * Copyright 2018-2025 Yury Gribov
 *
 * The MIT License (MIT)
 *
 * Use of this source code is governed by MIT license that can be
 * found in the LICENSE.txt file.
 */

  .globl cuGraphExecBatchMemOpNodeSetParams
  .p2align 4
  .type cuGraphExecBatchMemOpNodeSetParams, %function
#ifndef IMPLIB_EXPORT_SHIMS
  .hidden cuGraphExecBatchMemOpNodeSetParams
#endif
cuGraphExecBatchMemOpNodeSetParams:
  .cfi_startproc
  .cfi_def_cfa_offset 8  // Return address
  // Intel opt. manual says to
  // "make the fall-through code following a conditional branch be the likely target for a branch with a forward target"
  // to hint static predictor.
  cmpq $0, _libcuda_so_tramp_table+1472(%rip)
  je 2f
1:
  jmp *_libcuda_so_tramp_table+1472(%rip)
2:
  pushq $184
  .cfi_adjust_cfa_offset 8
  call _libcuda_so_save_regs_and_resolve
  addq $8, %rsp
  .cfi_adjust_cfa_offset -8
  jmp *%rax
  .cfi_endproc

/*
 * Copyright 2018-2025 Yury Gribov
 *
 * The MIT License (MIT)
 *
 * Use of this source code is governed by MIT license that can be
 * found in the LICENSE.txt file.
 */

  .globl cuGraphExecChildGraphNodeSetParams
  .p2align 4
  .type cuGraphExecChildGraphNodeSetParams, %function
#ifndef IMPLIB_EXPORT_SHIMS
  .hidden cuGraphExecChildGraphNodeSetParams
#endif
cuGraphExecChildGraphNodeSetParams:
  .cfi_startproc
  .cfi_def_cfa_offset 8  // Return address
  // Intel opt. manual says to
  // "make the fall-through code following a conditional branch be the likely target for a branch with a forward target"
  // to hint static predictor.
  cmpq $0, _libcuda_so_tramp_table+1480(%rip)
  je 2f
1:
  jmp *_libcuda_so_tramp_table+1480(%rip)
2:
  pushq $185
  .cfi_adjust_cfa_offset 8
  call _libcuda_so_save_regs_and_resolve
  addq $8, %rsp
  .cfi_adjust_cfa_offset -8
  jmp *%rax
  .cfi_endproc

/*
 * Copyright 2018-2025 Yury Gribov
 *
 * The MIT License (MIT)
 *
 * Use of this source code is governed by MIT license that can be
 * found in the LICENSE.txt file.
 */

  .globl cuGraphExecDestroy
  .p2align 4
  .type cuGraphExecDestroy, %function
#ifndef IMPLIB_EXPORT_SHIMS
  .hidden cuGraphExecDestroy
#endif
cuGraphExecDestroy:
  .cfi_startproc
  .cfi_def_cfa_offset 8  // Return address
  // Intel opt. manual says to
  // "make the fall-through code following a conditional branch be the likely target for a branch with a forward target"
  // to hint static predictor.
  cmpq $0, _libcuda_so_tramp_table+1488(%rip)
  je 2f
1:
  jmp *_libcuda_so_tramp_table+1488(%rip)
2:
  pushq $186
  .cfi_adjust_cfa_offset 8
  call _libcuda_so_save_regs_and_resolve
  addq $8, %rsp
  .cfi_adjust_cfa_offset -8
  jmp *%rax
  .cfi_endproc

/*
 * Copyright 2018-2025 Yury Gribov
 *
 * The MIT License (MIT)
 *
 * Use of this source code is governed by MIT license that can be
 * found in the LICENSE.txt file.
 */

  .globl cuGraphExecEventRecordNodeSetEvent
  .p2align 4
  .type cuGraphExecEventRecordNodeSetEvent, %function
#ifndef IMPLIB_EXPORT_SHIMS
  .hidden cuGraphExecEventRecordNodeSetEvent
#endif
cuGraphExecEventRecordNodeSetEvent:
  .cfi_startproc
  .cfi_def_cfa_offset 8  // Return address
  // Intel opt. manual says to
  // "make the fall-through code following a conditional branch be the likely target for a branch with a forward target"
  // to hint static predictor.
  cmpq $0, _libcuda_so_tramp_table+1496(%rip)
  je 2f
1:
  jmp *_libcuda_so_tramp_table+1496(%rip)
2:
  pushq $187
  .cfi_adjust_cfa_offset 8
  call _libcuda_so_save_regs_and_resolve
  addq $8, %rsp
  .cfi_adjust_cfa_offset -8
  jmp *%rax
  .cfi_endproc

/*
 * Copyright 2018-2025 Yury Gribov
 *
 * The MIT License (MIT)
 *
 * Use of this source code is governed by MIT license that can be
 * found in the LICENSE.txt file.
 */

  .globl cuGraphExecEventWaitNodeSetEvent
  .p2align 4
  .type cuGraphExecEventWaitNodeSetEvent, %function
#ifndef IMPLIB_EXPORT_SHIMS
  .hidden cuGraphExecEventWaitNodeSetEvent
#endif
cuGraphExecEventWaitNodeSetEvent:
  .cfi_startproc
  .cfi_def_cfa_offset 8  // Return address
  // Intel opt. manual says to
  // "make the fall-through code following a conditional branch be the likely target for a branch with a forward target"
  // to hint static predictor.
  cmpq $0, _libcuda_so_tramp_table+1504(%rip)
  je 2f
1:
  jmp *_libcuda_so_tramp_table+1504(%rip)
2:
  pushq $188
  .cfi_adjust_cfa_offset 8
  call _libcuda_so_save_regs_and_resolve
  addq $8, %rsp
  .cfi_adjust_cfa_offset -8
  jmp *%rax
  .cfi_endproc

/*
 * Copyright 2018-2025 Yury Gribov
 *
 * The MIT License (MIT)
 *
 * Use of this source code is governed by MIT license that can be
 * found in the LICENSE.txt file.
 */

  .globl cuGraphExecExternalSemaphoresSignalNodeSetParams
  .p2align 4
  .type cuGraphExecExternalSemaphoresSignalNodeSetParams, %function
#ifndef IMPLIB_EXPORT_SHIMS
  .hidden cuGraphExecExternalSemaphoresSignalNodeSetParams
#endif
cuGraphExecExternalSemaphoresSignalNodeSetParams:
  .cfi_startproc
  .cfi_def_cfa_offset 8  // Return address
  // Intel opt. manual says to
  // "make the fall-through code following a conditional branch be the likely target for a branch with a forward target"
  // to hint static predictor.
  cmpq $0, _libcuda_so_tramp_table+1512(%rip)
  je 2f
1:
  jmp *_libcuda_so_tramp_table+1512(%rip)
2:
  pushq $189
  .cfi_adjust_cfa_offset 8
  call _libcuda_so_save_regs_and_resolve
  addq $8, %rsp
  .cfi_adjust_cfa_offset -8
  jmp *%rax
  .cfi_endproc

/*
 * Copyright 2018-2025 Yury Gribov
 *
 * The MIT License (MIT)
 *
 * Use of this source code is governed by MIT license that can be
 * found in the LICENSE.txt file.
 */

  .globl cuGraphExecExternalSemaphoresWaitNodeSetParams
  .p2align 4
  .type cuGraphExecExternalSemaphoresWaitNodeSetParams, %function
#ifndef IMPLIB_EXPORT_SHIMS
  .hidden cuGraphExecExternalSemaphoresWaitNodeSetParams
#endif
cuGraphExecExternalSemaphoresWaitNodeSetParams:
  .cfi_startproc
  .cfi_def_cfa_offset 8  // Return address
  // Intel opt. manual says to
  // "make the fall-through code following a conditional branch be the likely target for a branch with a forward target"
  // to hint static predictor.
  cmpq $0, _libcuda_so_tramp_table+1520(%rip)
  je 2f
1:
  jmp *_libcuda_so_tramp_table+1520(%rip)
2:
  pushq $190
  .cfi_adjust_cfa_offset 8
  call _libcuda_so_save_regs_and_resolve
  addq $8, %rsp
  .cfi_adjust_cfa_offset -8
  jmp *%rax
  .cfi_endproc

/*
 * Copyright 2018-2025 Yury Gribov
 *
 * The MIT License (MIT)
 *
 * Use of this source code is governed by MIT license that can be
 * found in the LICENSE.txt file.
 */

  .globl cuGraphExecGetFlags
  .p2align 4
  .type cuGraphExecGetFlags, %function
#ifndef IMPLIB_EXPORT_SHIMS
  .hidden cuGraphExecGetFlags
#endif
cuGraphExecGetFlags:
  .cfi_startproc
  .cfi_def_cfa_offset 8  // Return address
  // Intel opt. manual says to
  // "make the fall-through code following a conditional branch be the likely target for a branch with a forward target"
  // to hint static predictor.
  cmpq $0, _libcuda_so_tramp_table+1528(%rip)
  je 2f
1:
  jmp *_libcuda_so_tramp_table+1528(%rip)
2:
  pushq $191
  .cfi_adjust_cfa_offset 8
  call _libcuda_so_save_regs_and_resolve
  addq $8, %rsp
  .cfi_adjust_cfa_offset -8
  jmp *%rax
  .cfi_endproc

/*
 * Copyright 2018-2025 Yury Gribov
 *
 * The MIT License (MIT)
 *
 * Use of this source code is governed by MIT license that can be
 * found in the LICENSE.txt file.
 */

  .globl cuGraphExecHostNodeSetParams
  .p2align 4
  .type cuGraphExecHostNodeSetParams, %function
#ifndef IMPLIB_EXPORT_SHIMS
  .hidden cuGraphExecHostNodeSetParams
#endif
cuGraphExecHostNodeSetParams:
  .cfi_startproc
  .cfi_def_cfa_offset 8  // Return address
  // Intel opt. manual says to
  // "make the fall-through code following a conditional branch be the likely target for a branch with a forward target"
  // to hint static predictor.
  cmpq $0, _libcuda_so_tramp_table+1536(%rip)
  je 2f
1:
  jmp *_libcuda_so_tramp_table+1536(%rip)
2:
  pushq $192
  .cfi_adjust_cfa_offset 8
  call _libcuda_so_save_regs_and_resolve
  addq $8, %rsp
  .cfi_adjust_cfa_offset -8
  jmp *%rax
  .cfi_endproc

/*
 * Copyright 2018-2025 Yury Gribov
 *
 * The MIT License (MIT)
 *
 * Use of this source code is governed by MIT license that can be
 * found in the LICENSE.txt file.
 */

  .globl cuGraphExecKernelNodeSetParams
  .p2align 4
  .type cuGraphExecKernelNodeSetParams, %function
#ifndef IMPLIB_EXPORT_SHIMS
  .hidden cuGraphExecKernelNodeSetParams
#endif
cuGraphExecKernelNodeSetParams:
  .cfi_startproc
  .cfi_def_cfa_offset 8  // Return address
  // Intel opt. manual says to
  // "make the fall-through code following a conditional branch be the likely target for a branch with a forward target"
  // to hint static predictor.
  cmpq $0, _libcuda_so_tramp_table+1544(%rip)
  je 2f
1:
  jmp *_libcuda_so_tramp_table+1544(%rip)
2:
  pushq $193
  .cfi_adjust_cfa_offset 8
  call _libcuda_so_save_regs_and_resolve
  addq $8, %rsp
  .cfi_adjust_cfa_offset -8
  jmp *%rax
  .cfi_endproc

/*
 * Copyright 2018-2025 Yury Gribov
 *
 * The MIT License (MIT)
 *
 * Use of this source code is governed by MIT license that can be
 * found in the LICENSE.txt file.
 */

  .globl cuGraphExecKernelNodeSetParams_v2
  .p2align 4
  .type cuGraphExecKernelNodeSetParams_v2, %function
#ifndef IMPLIB_EXPORT_SHIMS
  .hidden cuGraphExecKernelNodeSetParams_v2
#endif
cuGraphExecKernelNodeSetParams_v2:
  .cfi_startproc
  .cfi_def_cfa_offset 8  // Return address
  // Intel opt. manual says to
  // "make the fall-through code following a conditional branch be the likely target for a branch with a forward target"
  // to hint static predictor.
  cmpq $0, _libcuda_so_tramp_table+1552(%rip)
  je 2f
1:
  jmp *_libcuda_so_tramp_table+1552(%rip)
2:
  pushq $194
  .cfi_adjust_cfa_offset 8
  call _libcuda_so_save_regs_and_resolve
  addq $8, %rsp
  .cfi_adjust_cfa_offset -8
  jmp *%rax
  .cfi_endproc

/*
 * Copyright 2018-2025 Yury Gribov
 *
 * The MIT License (MIT)
 *
 * Use of this source code is governed by MIT license that can be
 * found in the LICENSE.txt file.
 */

  .globl cuGraphExecMemcpyNodeSetParams
  .p2align 4
  .type cuGraphExecMemcpyNodeSetParams, %function
#ifndef IMPLIB_EXPORT_SHIMS
  .hidden cuGraphExecMemcpyNodeSetParams
#endif
cuGraphExecMemcpyNodeSetParams:
  .cfi_startproc
  .cfi_def_cfa_offset 8  // Return address
  // Intel opt. manual says to
  // "make the fall-through code following a conditional branch be the likely target for a branch with a forward target"
  // to hint static predictor.
  cmpq $0, _libcuda_so_tramp_table+1560(%rip)
  je 2f
1:
  jmp *_libcuda_so_tramp_table+1560(%rip)
2:
  pushq $195
  .cfi_adjust_cfa_offset 8
  call _libcuda_so_save_regs_and_resolve
  addq $8, %rsp
  .cfi_adjust_cfa_offset -8
  jmp *%rax
  .cfi_endproc

/*
 * Copyright 2018-2025 Yury Gribov
 *
 * The MIT License (MIT)
 *
 * Use of this source code is governed by MIT license that can be
 * found in the LICENSE.txt file.
 */

  .globl cuGraphExecMemsetNodeSetParams
  .p2align 4
  .type cuGraphExecMemsetNodeSetParams, %function
#ifndef IMPLIB_EXPORT_SHIMS
  .hidden cuGraphExecMemsetNodeSetParams
#endif
cuGraphExecMemsetNodeSetParams:
  .cfi_startproc
  .cfi_def_cfa_offset 8  // Return address
  // Intel opt. manual says to
  // "make the fall-through code following a conditional branch be the likely target for a branch with a forward target"
  // to hint static predictor.
  cmpq $0, _libcuda_so_tramp_table+1568(%rip)
  je 2f
1:
  jmp *_libcuda_so_tramp_table+1568(%rip)
2:
  pushq $196
  .cfi_adjust_cfa_offset 8
  call _libcuda_so_save_regs_and_resolve
  addq $8, %rsp
  .cfi_adjust_cfa_offset -8
  jmp *%rax
  .cfi_endproc

/*
 * Copyright 2018-2025 Yury Gribov
 *
 * The MIT License (MIT)
 *
 * Use of this source code is governed by MIT license that can be
 * found in the LICENSE.txt file.
 */

  .globl cuGraphExecNodeSetParams
  .p2align 4
  .type cuGraphExecNodeSetParams, %function
#ifndef IMPLIB_EXPORT_SHIMS
  .hidden cuGraphExecNodeSetParams
#endif
cuGraphExecNodeSetParams:
  .cfi_startproc
  .cfi_def_cfa_offset 8  // Return address
  // Intel opt. manual says to
  // "make the fall-through code following a conditional branch be the likely target for a branch with a forward target"
  // to hint static predictor.
  cmpq $0, _libcuda_so_tramp_table+1576(%rip)
  je 2f
1:
  jmp *_libcuda_so_tramp_table+1576(%rip)
2:
  pushq $197
  .cfi_adjust_cfa_offset 8
  call _libcuda_so_save_regs_and_resolve
  addq $8, %rsp
  .cfi_adjust_cfa_offset -8
  jmp *%rax
  .cfi_endproc

/*
 * Copyright 2018-2025 Yury Gribov
 *
 * The MIT License (MIT)
 *
 * Use of this source code is governed by MIT license that can be
 * found in the LICENSE.txt file.
 */

  .globl cuGraphExecUpdate
  .p2align 4
  .type cuGraphExecUpdate, %function
#ifndef IMPLIB_EXPORT_SHIMS
  .hidden cuGraphExecUpdate
#endif
cuGraphExecUpdate:
  .cfi_startproc
  .cfi_def_cfa_offset 8  // Return address
  // Intel opt. manual says to
  // "make the fall-through code following a conditional branch be the likely target for a branch with a forward target"
  // to hint static predictor.
  cmpq $0, _libcuda_so_tramp_table+1584(%rip)
  je 2f
1:
  jmp *_libcuda_so_tramp_table+1584(%rip)
2:
  pushq $198
  .cfi_adjust_cfa_offset 8
  call _libcuda_so_save_regs_and_resolve
  addq $8, %rsp
  .cfi_adjust_cfa_offset -8
  jmp *%rax
  .cfi_endproc

/*
 * Copyright 2018-2025 Yury Gribov
 *
 * The MIT License (MIT)
 *
 * Use of this source code is governed by MIT license that can be
 * found in the LICENSE.txt file.
 */

  .globl cuGraphExecUpdate_v2
  .p2align 4
  .type cuGraphExecUpdate_v2, %function
#ifndef IMPLIB_EXPORT_SHIMS
  .hidden cuGraphExecUpdate_v2
#endif
cuGraphExecUpdate_v2:
  .cfi_startproc
  .cfi_def_cfa_offset 8  // Return address
  // Intel opt. manual says to
  // "make the fall-through code following a conditional branch be the likely target for a branch with a forward target"
  // to hint static predictor.
  cmpq $0, _libcuda_so_tramp_table+1592(%rip)
  je 2f
1:
  jmp *_libcuda_so_tramp_table+1592(%rip)
2:
  pushq $199
  .cfi_adjust_cfa_offset 8
  call _libcuda_so_save_regs_and_resolve
  addq $8, %rsp
  .cfi_adjust_cfa_offset -8
  jmp *%rax
  .cfi_endproc

/*
 * Copyright 2018-2025 Yury Gribov
 *
 * The MIT License (MIT)
 *
 * Use of this source code is governed by MIT license that can be
 * found in the LICENSE.txt file.
 */

  .globl cuGraphExternalSemaphoresSignalNodeGetParams
  .p2align 4
  .type cuGraphExternalSemaphoresSignalNodeGetParams, %function
#ifndef IMPLIB_EXPORT_SHIMS
  .hidden cuGraphExternalSemaphoresSignalNodeGetParams
#endif
cuGraphExternalSemaphoresSignalNodeGetParams:
  .cfi_startproc
  .cfi_def_cfa_offset 8  // Return address
  // Intel opt. manual says to
  // "make the fall-through code following a conditional branch be the likely target for a branch with a forward target"
  // to hint static predictor.
  cmpq $0, _libcuda_so_tramp_table+1600(%rip)
  je 2f
1:
  jmp *_libcuda_so_tramp_table+1600(%rip)
2:
  pushq $200
  .cfi_adjust_cfa_offset 8
  call _libcuda_so_save_regs_and_resolve
  addq $8, %rsp
  .cfi_adjust_cfa_offset -8
  jmp *%rax
  .cfi_endproc

/*
 * Copyright 2018-2025 Yury Gribov
 *
 * The MIT License (MIT)
 *
 * Use of this source code is governed by MIT license that can be
 * found in the LICENSE.txt file.
 */

  .globl cuGraphExternalSemaphoresSignalNodeSetParams
  .p2align 4
  .type cuGraphExternalSemaphoresSignalNodeSetParams, %function
#ifndef IMPLIB_EXPORT_SHIMS
  .hidden cuGraphExternalSemaphoresSignalNodeSetParams
#endif
cuGraphExternalSemaphoresSignalNodeSetParams:
  .cfi_startproc
  .cfi_def_cfa_offset 8  // Return address
  // Intel opt. manual says to
  // "make the fall-through code following a conditional branch be the likely target for a branch with a forward target"
  // to hint static predictor.
  cmpq $0, _libcuda_so_tramp_table+1608(%rip)
  je 2f
1:
  jmp *_libcuda_so_tramp_table+1608(%rip)
2:
  pushq $201
  .cfi_adjust_cfa_offset 8
  call _libcuda_so_save_regs_and_resolve
  addq $8, %rsp
  .cfi_adjust_cfa_offset -8
  jmp *%rax
  .cfi_endproc

/*
 * Copyright 2018-2025 Yury Gribov
 *
 * The MIT License (MIT)
 *
 * Use of this source code is governed by MIT license that can be
 * found in the LICENSE.txt file.
 */

  .globl cuGraphExternalSemaphoresWaitNodeGetParams
  .p2align 4
  .type cuGraphExternalSemaphoresWaitNodeGetParams, %function
#ifndef IMPLIB_EXPORT_SHIMS
  .hidden cuGraphExternalSemaphoresWaitNodeGetParams
#endif
cuGraphExternalSemaphoresWaitNodeGetParams:
  .cfi_startproc
  .cfi_def_cfa_offset 8  // Return address
  // Intel opt. manual says to
  // "make the fall-through code following a conditional branch be the likely target for a branch with a forward target"
  // to hint static predictor.
  cmpq $0, _libcuda_so_tramp_table+1616(%rip)
  je 2f
1:
  jmp *_libcuda_so_tramp_table+1616(%rip)
2:
  pushq $202
  .cfi_adjust_cfa_offset 8
  call _libcuda_so_save_regs_and_resolve
  addq $8, %rsp
  .cfi_adjust_cfa_offset -8
  jmp *%rax
  .cfi_endproc

/*
 * Copyright 2018-2025 Yury Gribov
 *
 * The MIT License (MIT)
 *
 * Use of this source code is governed by MIT license that can be
 * found in the LICENSE.txt file.
 */

  .globl cuGraphExternalSemaphoresWaitNodeSetParams
  .p2align 4
  .type cuGraphExternalSemaphoresWaitNodeSetParams, %function
#ifndef IMPLIB_EXPORT_SHIMS
  .hidden cuGraphExternalSemaphoresWaitNodeSetParams
#endif
cuGraphExternalSemaphoresWaitNodeSetParams:
  .cfi_startproc
  .cfi_def_cfa_offset 8  // Return address
  // Intel opt. manual says to
  // "make the fall-through code following a conditional branch be the likely target for a branch with a forward target"
  // to hint static predictor.
  cmpq $0, _libcuda_so_tramp_table+1624(%rip)
  je 2f
1:
  jmp *_libcuda_so_tramp_table+1624(%rip)
2:
  pushq $203
  .cfi_adjust_cfa_offset 8
  call _libcuda_so_save_regs_and_resolve
  addq $8, %rsp
  .cfi_adjust_cfa_offset -8
  jmp *%rax
  .cfi_endproc

/*
 * Copyright 2018-2025 Yury Gribov
 *
 * The MIT License (MIT)
 *
 * Use of this source code is governed by MIT license that can be
 * found in the LICENSE.txt file.
 */

  .globl cuGraphGetEdges
  .p2align 4
  .type cuGraphGetEdges, %function
#ifndef IMPLIB_EXPORT_SHIMS
  .hidden cuGraphGetEdges
#endif
cuGraphGetEdges:
  .cfi_startproc
  .cfi_def_cfa_offset 8  // Return address
  // Intel opt. manual says to
  // "make the fall-through code following a conditional branch be the likely target for a branch with a forward target"
  // to hint static predictor.
  cmpq $0, _libcuda_so_tramp_table+1632(%rip)
  je 2f
1:
  jmp *_libcuda_so_tramp_table+1632(%rip)
2:
  pushq $204
  .cfi_adjust_cfa_offset 8
  call _libcuda_so_save_regs_and_resolve
  addq $8, %rsp
  .cfi_adjust_cfa_offset -8
  jmp *%rax
  .cfi_endproc

/*
 * Copyright 2018-2025 Yury Gribov
 *
 * The MIT License (MIT)
 *
 * Use of this source code is governed by MIT license that can be
 * found in the LICENSE.txt file.
 */

  .globl cuGraphGetEdges_v2
  .p2align 4
  .type cuGraphGetEdges_v2, %function
#ifndef IMPLIB_EXPORT_SHIMS
  .hidden cuGraphGetEdges_v2
#endif
cuGraphGetEdges_v2:
  .cfi_startproc
  .cfi_def_cfa_offset 8  // Return address
  // Intel opt. manual says to
  // "make the fall-through code following a conditional branch be the likely target for a branch with a forward target"
  // to hint static predictor.
  cmpq $0, _libcuda_so_tramp_table+1640(%rip)
  je 2f
1:
  jmp *_libcuda_so_tramp_table+1640(%rip)
2:
  pushq $205
  .cfi_adjust_cfa_offset 8
  call _libcuda_so_save_regs_and_resolve
  addq $8, %rsp
  .cfi_adjust_cfa_offset -8
  jmp *%rax
  .cfi_endproc

/*
 * Copyright 2018-2025 Yury Gribov
 *
 * The MIT License (MIT)
 *
 * Use of this source code is governed by MIT license that can be
 * found in the LICENSE.txt file.
 */

  .globl cuGraphGetNodes
  .p2align 4
  .type cuGraphGetNodes, %function
#ifndef IMPLIB_EXPORT_SHIMS
  .hidden cuGraphGetNodes
#endif
cuGraphGetNodes:
  .cfi_startproc
  .cfi_def_cfa_offset 8  // Return address
  // Intel opt. manual says to
  // "make the fall-through code following a conditional branch be the likely target for a branch with a forward target"
  // to hint static predictor.
  cmpq $0, _libcuda_so_tramp_table+1648(%rip)
  je 2f
1:
  jmp *_libcuda_so_tramp_table+1648(%rip)
2:
  pushq $206
  .cfi_adjust_cfa_offset 8
  call _libcuda_so_save_regs_and_resolve
  addq $8, %rsp
  .cfi_adjust_cfa_offset -8
  jmp *%rax
  .cfi_endproc

/*
 * Copyright 2018-2025 Yury Gribov
 *
 * The MIT License (MIT)
 *
 * Use of this source code is governed by MIT license that can be
 * found in the LICENSE.txt file.
 */

  .globl cuGraphGetRootNodes
  .p2align 4
  .type cuGraphGetRootNodes, %function
#ifndef IMPLIB_EXPORT_SHIMS
  .hidden cuGraphGetRootNodes
#endif
cuGraphGetRootNodes:
  .cfi_startproc
  .cfi_def_cfa_offset 8  // Return address
  // Intel opt. manual says to
  // "make the fall-through code following a conditional branch be the likely target for a branch with a forward target"
  // to hint static predictor.
  cmpq $0, _libcuda_so_tramp_table+1656(%rip)
  je 2f
1:
  jmp *_libcuda_so_tramp_table+1656(%rip)
2:
  pushq $207
  .cfi_adjust_cfa_offset 8
  call _libcuda_so_save_regs_and_resolve
  addq $8, %rsp
  .cfi_adjust_cfa_offset -8
  jmp *%rax
  .cfi_endproc

/*
 * Copyright 2018-2025 Yury Gribov
 *
 * The MIT License (MIT)
 *
 * Use of this source code is governed by MIT license that can be
 * found in the LICENSE.txt file.
 */

  .globl cuGraphHostNodeGetParams
  .p2align 4
  .type cuGraphHostNodeGetParams, %function
#ifndef IMPLIB_EXPORT_SHIMS
  .hidden cuGraphHostNodeGetParams
#endif
cuGraphHostNodeGetParams:
  .cfi_startproc
  .cfi_def_cfa_offset 8  // Return address
  // Intel opt. manual says to
  // "make the fall-through code following a conditional branch be the likely target for a branch with a forward target"
  // to hint static predictor.
  cmpq $0, _libcuda_so_tramp_table+1664(%rip)
  je 2f
1:
  jmp *_libcuda_so_tramp_table+1664(%rip)
2:
  pushq $208
  .cfi_adjust_cfa_offset 8
  call _libcuda_so_save_regs_and_resolve
  addq $8, %rsp
  .cfi_adjust_cfa_offset -8
  jmp *%rax
  .cfi_endproc

/*
 * Copyright 2018-2025 Yury Gribov
 *
 * The MIT License (MIT)
 *
 * Use of this source code is governed by MIT license that can be
 * found in the LICENSE.txt file.
 */

  .globl cuGraphHostNodeSetParams
  .p2align 4
  .type cuGraphHostNodeSetParams, %function
#ifndef IMPLIB_EXPORT_SHIMS
  .hidden cuGraphHostNodeSetParams
#endif
cuGraphHostNodeSetParams:
  .cfi_startproc
  .cfi_def_cfa_offset 8  // Return address
  // Intel opt. manual says to
  // "make the fall-through code following a conditional branch be the likely target for a branch with a forward target"
  // to hint static predictor.
  cmpq $0, _libcuda_so_tramp_table+1672(%rip)
  je 2f
1:
  jmp *_libcuda_so_tramp_table+1672(%rip)
2:
  pushq $209
  .cfi_adjust_cfa_offset 8
  call _libcuda_so_save_regs_and_resolve
  addq $8, %rsp
  .cfi_adjust_cfa_offset -8
  jmp *%rax
  .cfi_endproc

/*
 * Copyright 2018-2025 Yury Gribov
 *
 * The MIT License (MIT)
 *
 * Use of this source code is governed by MIT license that can be
 * found in the LICENSE.txt file.
 */

  .globl cuGraphInstantiate
  .p2align 4
  .type cuGraphInstantiate, %function
#ifndef IMPLIB_EXPORT_SHIMS
  .hidden cuGraphInstantiate
#endif
cuGraphInstantiate:
  .cfi_startproc
  .cfi_def_cfa_offset 8  // Return address
  // Intel opt. manual says to
  // "make the fall-through code following a conditional branch be the likely target for a branch with a forward target"
  // to hint static predictor.
  cmpq $0, _libcuda_so_tramp_table+1680(%rip)
  je 2f
1:
  jmp *_libcuda_so_tramp_table+1680(%rip)
2:
  pushq $210
  .cfi_adjust_cfa_offset 8
  call _libcuda_so_save_regs_and_resolve
  addq $8, %rsp
  .cfi_adjust_cfa_offset -8
  jmp *%rax
  .cfi_endproc

/*
 * Copyright 2018-2025 Yury Gribov
 *
 * The MIT License (MIT)
 *
 * Use of this source code is governed by MIT license that can be
 * found in the LICENSE.txt file.
 */

  .globl cuGraphInstantiateWithFlags
  .p2align 4
  .type cuGraphInstantiateWithFlags, %function
#ifndef IMPLIB_EXPORT_SHIMS
  .hidden cuGraphInstantiateWithFlags
#endif
cuGraphInstantiateWithFlags:
  .cfi_startproc
  .cfi_def_cfa_offset 8  // Return address
  // Intel opt. manual says to
  // "make the fall-through code following a conditional branch be the likely target for a branch with a forward target"
  // to hint static predictor.
  cmpq $0, _libcuda_so_tramp_table+1688(%rip)
  je 2f
1:
  jmp *_libcuda_so_tramp_table+1688(%rip)
2:
  pushq $211
  .cfi_adjust_cfa_offset 8
  call _libcuda_so_save_regs_and_resolve
  addq $8, %rsp
  .cfi_adjust_cfa_offset -8
  jmp *%rax
  .cfi_endproc

/*
 * Copyright 2018-2025 Yury Gribov
 *
 * The MIT License (MIT)
 *
 * Use of this source code is governed by MIT license that can be
 * found in the LICENSE.txt file.
 */

  .globl cuGraphInstantiateWithParams
  .p2align 4
  .type cuGraphInstantiateWithParams, %function
#ifndef IMPLIB_EXPORT_SHIMS
  .hidden cuGraphInstantiateWithParams
#endif
cuGraphInstantiateWithParams:
  .cfi_startproc
  .cfi_def_cfa_offset 8  // Return address
  // Intel opt. manual says to
  // "make the fall-through code following a conditional branch be the likely target for a branch with a forward target"
  // to hint static predictor.
  cmpq $0, _libcuda_so_tramp_table+1696(%rip)
  je 2f
1:
  jmp *_libcuda_so_tramp_table+1696(%rip)
2:
  pushq $212
  .cfi_adjust_cfa_offset 8
  call _libcuda_so_save_regs_and_resolve
  addq $8, %rsp
  .cfi_adjust_cfa_offset -8
  jmp *%rax
  .cfi_endproc

/*
 * Copyright 2018-2025 Yury Gribov
 *
 * The MIT License (MIT)
 *
 * Use of this source code is governed by MIT license that can be
 * found in the LICENSE.txt file.
 */

  .globl cuGraphInstantiateWithParams_ptsz
  .p2align 4
  .type cuGraphInstantiateWithParams_ptsz, %function
#ifndef IMPLIB_EXPORT_SHIMS
  .hidden cuGraphInstantiateWithParams_ptsz
#endif
cuGraphInstantiateWithParams_ptsz:
  .cfi_startproc
  .cfi_def_cfa_offset 8  // Return address
  // Intel opt. manual says to
  // "make the fall-through code following a conditional branch be the likely target for a branch with a forward target"
  // to hint static predictor.
  cmpq $0, _libcuda_so_tramp_table+1704(%rip)
  je 2f
1:
  jmp *_libcuda_so_tramp_table+1704(%rip)
2:
  pushq $213
  .cfi_adjust_cfa_offset 8
  call _libcuda_so_save_regs_and_resolve
  addq $8, %rsp
  .cfi_adjust_cfa_offset -8
  jmp *%rax
  .cfi_endproc

/*
 * Copyright 2018-2025 Yury Gribov
 *
 * The MIT License (MIT)
 *
 * Use of this source code is governed by MIT license that can be
 * found in the LICENSE.txt file.
 */

  .globl cuGraphInstantiate_v2
  .p2align 4
  .type cuGraphInstantiate_v2, %function
#ifndef IMPLIB_EXPORT_SHIMS
  .hidden cuGraphInstantiate_v2
#endif
cuGraphInstantiate_v2:
  .cfi_startproc
  .cfi_def_cfa_offset 8  // Return address
  // Intel opt. manual says to
  // "make the fall-through code following a conditional branch be the likely target for a branch with a forward target"
  // to hint static predictor.
  cmpq $0, _libcuda_so_tramp_table+1712(%rip)
  je 2f
1:
  jmp *_libcuda_so_tramp_table+1712(%rip)
2:
  pushq $214
  .cfi_adjust_cfa_offset 8
  call _libcuda_so_save_regs_and_resolve
  addq $8, %rsp
  .cfi_adjust_cfa_offset -8
  jmp *%rax
  .cfi_endproc

/*
 * Copyright 2018-2025 Yury Gribov
 *
 * The MIT License (MIT)
 *
 * Use of this source code is governed by MIT license that can be
 * found in the LICENSE.txt file.
 */

  .globl cuGraphKernelNodeCopyAttributes
  .p2align 4
  .type cuGraphKernelNodeCopyAttributes, %function
#ifndef IMPLIB_EXPORT_SHIMS
  .hidden cuGraphKernelNodeCopyAttributes
#endif
cuGraphKernelNodeCopyAttributes:
  .cfi_startproc
  .cfi_def_cfa_offset 8  // Return address
  // Intel opt. manual says to
  // "make the fall-through code following a conditional branch be the likely target for a branch with a forward target"
  // to hint static predictor.
  cmpq $0, _libcuda_so_tramp_table+1720(%rip)
  je 2f
1:
  jmp *_libcuda_so_tramp_table+1720(%rip)
2:
  pushq $215
  .cfi_adjust_cfa_offset 8
  call _libcuda_so_save_regs_and_resolve
  addq $8, %rsp
  .cfi_adjust_cfa_offset -8
  jmp *%rax
  .cfi_endproc

/*
 * Copyright 2018-2025 Yury Gribov
 *
 * The MIT License (MIT)
 *
 * Use of this source code is governed by MIT license that can be
 * found in the LICENSE.txt file.
 */

  .globl cuGraphKernelNodeGetAttribute
  .p2align 4
  .type cuGraphKernelNodeGetAttribute, %function
#ifndef IMPLIB_EXPORT_SHIMS
  .hidden cuGraphKernelNodeGetAttribute
#endif
cuGraphKernelNodeGetAttribute:
  .cfi_startproc
  .cfi_def_cfa_offset 8  // Return address
  // Intel opt. manual says to
  // "make the fall-through code following a conditional branch be the likely target for a branch with a forward target"
  // to hint static predictor.
  cmpq $0, _libcuda_so_tramp_table+1728(%rip)
  je 2f
1:
  jmp *_libcuda_so_tramp_table+1728(%rip)
2:
  pushq $216
  .cfi_adjust_cfa_offset 8
  call _libcuda_so_save_regs_and_resolve
  addq $8, %rsp
  .cfi_adjust_cfa_offset -8
  jmp *%rax
  .cfi_endproc

/*
 * Copyright 2018-2025 Yury Gribov
 *
 * The MIT License (MIT)
 *
 * Use of this source code is governed by MIT license that can be
 * found in the LICENSE.txt file.
 */

  .globl cuGraphKernelNodeGetParams
  .p2align 4
  .type cuGraphKernelNodeGetParams, %function
#ifndef IMPLIB_EXPORT_SHIMS
  .hidden cuGraphKernelNodeGetParams
#endif
cuGraphKernelNodeGetParams:
  .cfi_startproc
  .cfi_def_cfa_offset 8  // Return address
  // Intel opt. manual says to
  // "make the fall-through code following a conditional branch be the likely target for a branch with a forward target"
  // to hint static predictor.
  cmpq $0, _libcuda_so_tramp_table+1736(%rip)
  je 2f
1:
  jmp *_libcuda_so_tramp_table+1736(%rip)
2:
  pushq $217
  .cfi_adjust_cfa_offset 8
  call _libcuda_so_save_regs_and_resolve
  addq $8, %rsp
  .cfi_adjust_cfa_offset -8
  jmp *%rax
  .cfi_endproc

/*
 * Copyright 2018-2025 Yury Gribov
 *
 * The MIT License (MIT)
 *
 * Use of this source code is governed by MIT license that can be
 * found in the LICENSE.txt file.
 */

  .globl cuGraphKernelNodeGetParams_v2
  .p2align 4
  .type cuGraphKernelNodeGetParams_v2, %function
#ifndef IMPLIB_EXPORT_SHIMS
  .hidden cuGraphKernelNodeGetParams_v2
#endif
cuGraphKernelNodeGetParams_v2:
  .cfi_startproc
  .cfi_def_cfa_offset 8  // Return address
  // Intel opt. manual says to
  // "make the fall-through code following a conditional branch be the likely target for a branch with a forward target"
  // to hint static predictor.
  cmpq $0, _libcuda_so_tramp_table+1744(%rip)
  je 2f
1:
  jmp *_libcuda_so_tramp_table+1744(%rip)
2:
  pushq $218
  .cfi_adjust_cfa_offset 8
  call _libcuda_so_save_regs_and_resolve
  addq $8, %rsp
  .cfi_adjust_cfa_offset -8
  jmp *%rax
  .cfi_endproc

/*
 * Copyright 2018-2025 Yury Gribov
 *
 * The MIT License (MIT)
 *
 * Use of this source code is governed by MIT license that can be
 * found in the LICENSE.txt file.
 */

  .globl cuGraphKernelNodeSetAttribute
  .p2align 4
  .type cuGraphKernelNodeSetAttribute, %function
#ifndef IMPLIB_EXPORT_SHIMS
  .hidden cuGraphKernelNodeSetAttribute
#endif
cuGraphKernelNodeSetAttribute:
  .cfi_startproc
  .cfi_def_cfa_offset 8  // Return address
  // Intel opt. manual says to
  // "make the fall-through code following a conditional branch be the likely target for a branch with a forward target"
  // to hint static predictor.
  cmpq $0, _libcuda_so_tramp_table+1752(%rip)
  je 2f
1:
  jmp *_libcuda_so_tramp_table+1752(%rip)
2:
  pushq $219
  .cfi_adjust_cfa_offset 8
  call _libcuda_so_save_regs_and_resolve
  addq $8, %rsp
  .cfi_adjust_cfa_offset -8
  jmp *%rax
  .cfi_endproc

/*
 * Copyright 2018-2025 Yury Gribov
 *
 * The MIT License (MIT)
 *
 * Use of this source code is governed by MIT license that can be
 * found in the LICENSE.txt file.
 */

  .globl cuGraphKernelNodeSetParams
  .p2align 4
  .type cuGraphKernelNodeSetParams, %function
#ifndef IMPLIB_EXPORT_SHIMS
  .hidden cuGraphKernelNodeSetParams
#endif
cuGraphKernelNodeSetParams:
  .cfi_startproc
  .cfi_def_cfa_offset 8  // Return address
  // Intel opt. manual says to
  // "make the fall-through code following a conditional branch be the likely target for a branch with a forward target"
  // to hint static predictor.
  cmpq $0, _libcuda_so_tramp_table+1760(%rip)
  je 2f
1:
  jmp *_libcuda_so_tramp_table+1760(%rip)
2:
  pushq $220
  .cfi_adjust_cfa_offset 8
  call _libcuda_so_save_regs_and_resolve
  addq $8, %rsp
  .cfi_adjust_cfa_offset -8
  jmp *%rax
  .cfi_endproc

/*
 * Copyright 2018-2025 Yury Gribov
 *
 * The MIT License (MIT)
 *
 * Use of this source code is governed by MIT license that can be
 * found in the LICENSE.txt file.
 */

  .globl cuGraphKernelNodeSetParams_v2
  .p2align 4
  .type cuGraphKernelNodeSetParams_v2, %function
#ifndef IMPLIB_EXPORT_SHIMS
  .hidden cuGraphKernelNodeSetParams_v2
#endif
cuGraphKernelNodeSetParams_v2:
  .cfi_startproc
  .cfi_def_cfa_offset 8  // Return address
  // Intel opt. manual says to
  // "make the fall-through code following a conditional branch be the likely target for a branch with a forward target"
  // to hint static predictor.
  cmpq $0, _libcuda_so_tramp_table+1768(%rip)
  je 2f
1:
  jmp *_libcuda_so_tramp_table+1768(%rip)
2:
  pushq $221
  .cfi_adjust_cfa_offset 8
  call _libcuda_so_save_regs_and_resolve
  addq $8, %rsp
  .cfi_adjust_cfa_offset -8
  jmp *%rax
  .cfi_endproc

/*
 * Copyright 2018-2025 Yury Gribov
 *
 * The MIT License (MIT)
 *
 * Use of this source code is governed by MIT license that can be
 * found in the LICENSE.txt file.
 */

  .globl cuGraphLaunch
  .p2align 4
  .type cuGraphLaunch, %function
#ifndef IMPLIB_EXPORT_SHIMS
  .hidden cuGraphLaunch
#endif
cuGraphLaunch:
  .cfi_startproc
  .cfi_def_cfa_offset 8  // Return address
  // Intel opt. manual says to
  // "make the fall-through code following a conditional branch be the likely target for a branch with a forward target"
  // to hint static predictor.
  cmpq $0, _libcuda_so_tramp_table+1776(%rip)
  je 2f
1:
  jmp *_libcuda_so_tramp_table+1776(%rip)
2:
  pushq $222
  .cfi_adjust_cfa_offset 8
  call _libcuda_so_save_regs_and_resolve
  addq $8, %rsp
  .cfi_adjust_cfa_offset -8
  jmp *%rax
  .cfi_endproc

/*
 * Copyright 2018-2025 Yury Gribov
 *
 * The MIT License (MIT)
 *
 * Use of this source code is governed by MIT license that can be
 * found in the LICENSE.txt file.
 */

  .globl cuGraphLaunch_ptsz
  .p2align 4
  .type cuGraphLaunch_ptsz, %function
#ifndef IMPLIB_EXPORT_SHIMS
  .hidden cuGraphLaunch_ptsz
#endif
cuGraphLaunch_ptsz:
  .cfi_startproc
  .cfi_def_cfa_offset 8  // Return address
  // Intel opt. manual says to
  // "make the fall-through code following a conditional branch be the likely target for a branch with a forward target"
  // to hint static predictor.
  cmpq $0, _libcuda_so_tramp_table+1784(%rip)
  je 2f
1:
  jmp *_libcuda_so_tramp_table+1784(%rip)
2:
  pushq $223
  .cfi_adjust_cfa_offset 8
  call _libcuda_so_save_regs_and_resolve
  addq $8, %rsp
  .cfi_adjust_cfa_offset -8
  jmp *%rax
  .cfi_endproc

/*
 * Copyright 2018-2025 Yury Gribov
 *
 * The MIT License (MIT)
 *
 * Use of this source code is governed by MIT license that can be
 * found in the LICENSE.txt file.
 */

  .globl cuGraphMemAllocNodeGetParams
  .p2align 4
  .type cuGraphMemAllocNodeGetParams, %function
#ifndef IMPLIB_EXPORT_SHIMS
  .hidden cuGraphMemAllocNodeGetParams
#endif
cuGraphMemAllocNodeGetParams:
  .cfi_startproc
  .cfi_def_cfa_offset 8  // Return address
  // Intel opt. manual says to
  // "make the fall-through code following a conditional branch be the likely target for a branch with a forward target"
  // to hint static predictor.
  cmpq $0, _libcuda_so_tramp_table+1792(%rip)
  je 2f
1:
  jmp *_libcuda_so_tramp_table+1792(%rip)
2:
  pushq $224
  .cfi_adjust_cfa_offset 8
  call _libcuda_so_save_regs_and_resolve
  addq $8, %rsp
  .cfi_adjust_cfa_offset -8
  jmp *%rax
  .cfi_endproc

/*
 * Copyright 2018-2025 Yury Gribov
 *
 * The MIT License (MIT)
 *
 * Use of this source code is governed by MIT license that can be
 * found in the LICENSE.txt file.
 */

  .globl cuGraphMemFreeNodeGetParams
  .p2align 4
  .type cuGraphMemFreeNodeGetParams, %function
#ifndef IMPLIB_EXPORT_SHIMS
  .hidden cuGraphMemFreeNodeGetParams
#endif
cuGraphMemFreeNodeGetParams:
  .cfi_startproc
  .cfi_def_cfa_offset 8  // Return address
  // Intel opt. manual says to
  // "make the fall-through code following a conditional branch be the likely target for a branch with a forward target"
  // to hint static predictor.
  cmpq $0, _libcuda_so_tramp_table+1800(%rip)
  je 2f
1:
  jmp *_libcuda_so_tramp_table+1800(%rip)
2:
  pushq $225
  .cfi_adjust_cfa_offset 8
  call _libcuda_so_save_regs_and_resolve
  addq $8, %rsp
  .cfi_adjust_cfa_offset -8
  jmp *%rax
  .cfi_endproc

/*
 * Copyright 2018-2025 Yury Gribov
 *
 * The MIT License (MIT)
 *
 * Use of this source code is governed by MIT license that can be
 * found in the LICENSE.txt file.
 */

  .globl cuGraphMemcpyNodeGetParams
  .p2align 4
  .type cuGraphMemcpyNodeGetParams, %function
#ifndef IMPLIB_EXPORT_SHIMS
  .hidden cuGraphMemcpyNodeGetParams
#endif
cuGraphMemcpyNodeGetParams:
  .cfi_startproc
  .cfi_def_cfa_offset 8  // Return address
  // Intel opt. manual says to
  // "make the fall-through code following a conditional branch be the likely target for a branch with a forward target"
  // to hint static predictor.
  cmpq $0, _libcuda_so_tramp_table+1808(%rip)
  je 2f
1:
  jmp *_libcuda_so_tramp_table+1808(%rip)
2:
  pushq $226
  .cfi_adjust_cfa_offset 8
  call _libcuda_so_save_regs_and_resolve
  addq $8, %rsp
  .cfi_adjust_cfa_offset -8
  jmp *%rax
  .cfi_endproc

/*
 * Copyright 2018-2025 Yury Gribov
 *
 * The MIT License (MIT)
 *
 * Use of this source code is governed by MIT license that can be
 * found in the LICENSE.txt file.
 */

  .globl cuGraphMemcpyNodeSetParams
  .p2align 4
  .type cuGraphMemcpyNodeSetParams, %function
#ifndef IMPLIB_EXPORT_SHIMS
  .hidden cuGraphMemcpyNodeSetParams
#endif
cuGraphMemcpyNodeSetParams:
  .cfi_startproc
  .cfi_def_cfa_offset 8  // Return address
  // Intel opt. manual says to
  // "make the fall-through code following a conditional branch be the likely target for a branch with a forward target"
  // to hint static predictor.
  cmpq $0, _libcuda_so_tramp_table+1816(%rip)
  je 2f
1:
  jmp *_libcuda_so_tramp_table+1816(%rip)
2:
  pushq $227
  .cfi_adjust_cfa_offset 8
  call _libcuda_so_save_regs_and_resolve
  addq $8, %rsp
  .cfi_adjust_cfa_offset -8
  jmp *%rax
  .cfi_endproc

/*
 * Copyright 2018-2025 Yury Gribov
 *
 * The MIT License (MIT)
 *
 * Use of this source code is governed by MIT license that can be
 * found in the LICENSE.txt file.
 */

  .globl cuGraphMemsetNodeGetParams
  .p2align 4
  .type cuGraphMemsetNodeGetParams, %function
#ifndef IMPLIB_EXPORT_SHIMS
  .hidden cuGraphMemsetNodeGetParams
#endif
cuGraphMemsetNodeGetParams:
  .cfi_startproc
  .cfi_def_cfa_offset 8  // Return address
  // Intel opt. manual says to
  // "make the fall-through code following a conditional branch be the likely target for a branch with a forward target"
  // to hint static predictor.
  cmpq $0, _libcuda_so_tramp_table+1824(%rip)
  je 2f
1:
  jmp *_libcuda_so_tramp_table+1824(%rip)
2:
  pushq $228
  .cfi_adjust_cfa_offset 8
  call _libcuda_so_save_regs_and_resolve
  addq $8, %rsp
  .cfi_adjust_cfa_offset -8
  jmp *%rax
  .cfi_endproc

/*
 * Copyright 2018-2025 Yury Gribov
 *
 * The MIT License (MIT)
 *
 * Use of this source code is governed by MIT license that can be
 * found in the LICENSE.txt file.
 */

  .globl cuGraphMemsetNodeSetParams
  .p2align 4
  .type cuGraphMemsetNodeSetParams, %function
#ifndef IMPLIB_EXPORT_SHIMS
  .hidden cuGraphMemsetNodeSetParams
#endif
cuGraphMemsetNodeSetParams:
  .cfi_startproc
  .cfi_def_cfa_offset 8  // Return address
  // Intel opt. manual says to
  // "make the fall-through code following a conditional branch be the likely target for a branch with a forward target"
  // to hint static predictor.
  cmpq $0, _libcuda_so_tramp_table+1832(%rip)
  je 2f
1:
  jmp *_libcuda_so_tramp_table+1832(%rip)
2:
  pushq $229
  .cfi_adjust_cfa_offset 8
  call _libcuda_so_save_regs_and_resolve
  addq $8, %rsp
  .cfi_adjust_cfa_offset -8
  jmp *%rax
  .cfi_endproc

/*
 * Copyright 2018-2025 Yury Gribov
 *
 * The MIT License (MIT)
 *
 * Use of this source code is governed by MIT license that can be
 * found in the LICENSE.txt file.
 */

  .globl cuGraphNodeFindInClone
  .p2align 4
  .type cuGraphNodeFindInClone, %function
#ifndef IMPLIB_EXPORT_SHIMS
  .hidden cuGraphNodeFindInClone
#endif
cuGraphNodeFindInClone:
  .cfi_startproc
  .cfi_def_cfa_offset 8  // Return address
  // Intel opt. manual says to
  // "make the fall-through code following a conditional branch be the likely target for a branch with a forward target"
  // to hint static predictor.
  cmpq $0, _libcuda_so_tramp_table+1840(%rip)
  je 2f
1:
  jmp *_libcuda_so_tramp_table+1840(%rip)
2:
  pushq $230
  .cfi_adjust_cfa_offset 8
  call _libcuda_so_save_regs_and_resolve
  addq $8, %rsp
  .cfi_adjust_cfa_offset -8
  jmp *%rax
  .cfi_endproc

/*
 * Copyright 2018-2025 Yury Gribov
 *
 * The MIT License (MIT)
 *
 * Use of this source code is governed by MIT license that can be
 * found in the LICENSE.txt file.
 */

  .globl cuGraphNodeGetDependencies
  .p2align 4
  .type cuGraphNodeGetDependencies, %function
#ifndef IMPLIB_EXPORT_SHIMS
  .hidden cuGraphNodeGetDependencies
#endif
cuGraphNodeGetDependencies:
  .cfi_startproc
  .cfi_def_cfa_offset 8  // Return address
  // Intel opt. manual says to
  // "make the fall-through code following a conditional branch be the likely target for a branch with a forward target"
  // to hint static predictor.
  cmpq $0, _libcuda_so_tramp_table+1848(%rip)
  je 2f
1:
  jmp *_libcuda_so_tramp_table+1848(%rip)
2:
  pushq $231
  .cfi_adjust_cfa_offset 8
  call _libcuda_so_save_regs_and_resolve
  addq $8, %rsp
  .cfi_adjust_cfa_offset -8
  jmp *%rax
  .cfi_endproc

/*
 * Copyright 2018-2025 Yury Gribov
 *
 * The MIT License (MIT)
 *
 * Use of this source code is governed by MIT license that can be
 * found in the LICENSE.txt file.
 */

  .globl cuGraphNodeGetDependencies_v2
  .p2align 4
  .type cuGraphNodeGetDependencies_v2, %function
#ifndef IMPLIB_EXPORT_SHIMS
  .hidden cuGraphNodeGetDependencies_v2
#endif
cuGraphNodeGetDependencies_v2:
  .cfi_startproc
  .cfi_def_cfa_offset 8  // Return address
  // Intel opt. manual says to
  // "make the fall-through code following a conditional branch be the likely target for a branch with a forward target"
  // to hint static predictor.
  cmpq $0, _libcuda_so_tramp_table+1856(%rip)
  je 2f
1:
  jmp *_libcuda_so_tramp_table+1856(%rip)
2:
  pushq $232
  .cfi_adjust_cfa_offset 8
  call _libcuda_so_save_regs_and_resolve
  addq $8, %rsp
  .cfi_adjust_cfa_offset -8
  jmp *%rax
  .cfi_endproc

/*
 * Copyright 2018-2025 Yury Gribov
 *
 * The MIT License (MIT)
 *
 * Use of this source code is governed by MIT license that can be
 * found in the LICENSE.txt file.
 */

  .globl cuGraphNodeGetDependentNodes
  .p2align 4
  .type cuGraphNodeGetDependentNodes, %function
#ifndef IMPLIB_EXPORT_SHIMS
  .hidden cuGraphNodeGetDependentNodes
#endif
cuGraphNodeGetDependentNodes:
  .cfi_startproc
  .cfi_def_cfa_offset 8  // Return address
  // Intel opt. manual says to
  // "make the fall-through code following a conditional branch be the likely target for a branch with a forward target"
  // to hint static predictor.
  cmpq $0, _libcuda_so_tramp_table+1864(%rip)
  je 2f
1:
  jmp *_libcuda_so_tramp_table+1864(%rip)
2:
  pushq $233
  .cfi_adjust_cfa_offset 8
  call _libcuda_so_save_regs_and_resolve
  addq $8, %rsp
  .cfi_adjust_cfa_offset -8
  jmp *%rax
  .cfi_endproc

/*
 * Copyright 2018-2025 Yury Gribov
 *
 * The MIT License (MIT)
 *
 * Use of this source code is governed by MIT license that can be
 * found in the LICENSE.txt file.
 */

  .globl cuGraphNodeGetDependentNodes_v2
  .p2align 4
  .type cuGraphNodeGetDependentNodes_v2, %function
#ifndef IMPLIB_EXPORT_SHIMS
  .hidden cuGraphNodeGetDependentNodes_v2
#endif
cuGraphNodeGetDependentNodes_v2:
  .cfi_startproc
  .cfi_def_cfa_offset 8  // Return address
  // Intel opt. manual says to
  // "make the fall-through code following a conditional branch be the likely target for a branch with a forward target"
  // to hint static predictor.
  cmpq $0, _libcuda_so_tramp_table+1872(%rip)
  je 2f
1:
  jmp *_libcuda_so_tramp_table+1872(%rip)
2:
  pushq $234
  .cfi_adjust_cfa_offset 8
  call _libcuda_so_save_regs_and_resolve
  addq $8, %rsp
  .cfi_adjust_cfa_offset -8
  jmp *%rax
  .cfi_endproc

/*
 * Copyright 2018-2025 Yury Gribov
 *
 * The MIT License (MIT)
 *
 * Use of this source code is governed by MIT license that can be
 * found in the LICENSE.txt file.
 */

  .globl cuGraphNodeGetEnabled
  .p2align 4
  .type cuGraphNodeGetEnabled, %function
#ifndef IMPLIB_EXPORT_SHIMS
  .hidden cuGraphNodeGetEnabled
#endif
cuGraphNodeGetEnabled:
  .cfi_startproc
  .cfi_def_cfa_offset 8  // Return address
  // Intel opt. manual says to
  // "make the fall-through code following a conditional branch be the likely target for a branch with a forward target"
  // to hint static predictor.
  cmpq $0, _libcuda_so_tramp_table+1880(%rip)
  je 2f
1:
  jmp *_libcuda_so_tramp_table+1880(%rip)
2:
  pushq $235
  .cfi_adjust_cfa_offset 8
  call _libcuda_so_save_regs_and_resolve
  addq $8, %rsp
  .cfi_adjust_cfa_offset -8
  jmp *%rax
  .cfi_endproc

/*
 * Copyright 2018-2025 Yury Gribov
 *
 * The MIT License (MIT)
 *
 * Use of this source code is governed by MIT license that can be
 * found in the LICENSE.txt file.
 */

  .globl cuGraphNodeGetType
  .p2align 4
  .type cuGraphNodeGetType, %function
#ifndef IMPLIB_EXPORT_SHIMS
  .hidden cuGraphNodeGetType
#endif
cuGraphNodeGetType:
  .cfi_startproc
  .cfi_def_cfa_offset 8  // Return address
  // Intel opt. manual says to
  // "make the fall-through code following a conditional branch be the likely target for a branch with a forward target"
  // to hint static predictor.
  cmpq $0, _libcuda_so_tramp_table+1888(%rip)
  je 2f
1:
  jmp *_libcuda_so_tramp_table+1888(%rip)
2:
  pushq $236
  .cfi_adjust_cfa_offset 8
  call _libcuda_so_save_regs_and_resolve
  addq $8, %rsp
  .cfi_adjust_cfa_offset -8
  jmp *%rax
  .cfi_endproc

/*
 * Copyright 2018-2025 Yury Gribov
 *
 * The MIT License (MIT)
 *
 * Use of this source code is governed by MIT license that can be
 * found in the LICENSE.txt file.
 */

  .globl cuGraphNodeSetEnabled
  .p2align 4
  .type cuGraphNodeSetEnabled, %function
#ifndef IMPLIB_EXPORT_SHIMS
  .hidden cuGraphNodeSetEnabled
#endif
cuGraphNodeSetEnabled:
  .cfi_startproc
  .cfi_def_cfa_offset 8  // Return address
  // Intel opt. manual says to
  // "make the fall-through code following a conditional branch be the likely target for a branch with a forward target"
  // to hint static predictor.
  cmpq $0, _libcuda_so_tramp_table+1896(%rip)
  je 2f
1:
  jmp *_libcuda_so_tramp_table+1896(%rip)
2:
  pushq $237
  .cfi_adjust_cfa_offset 8
  call _libcuda_so_save_regs_and_resolve
  addq $8, %rsp
  .cfi_adjust_cfa_offset -8
  jmp *%rax
  .cfi_endproc

/*
 * Copyright 2018-2025 Yury Gribov
 *
 * The MIT License (MIT)
 *
 * Use of this source code is governed by MIT license that can be
 * found in the LICENSE.txt file.
 */

  .globl cuGraphNodeSetParams
  .p2align 4
  .type cuGraphNodeSetParams, %function
#ifndef IMPLIB_EXPORT_SHIMS
  .hidden cuGraphNodeSetParams
#endif
cuGraphNodeSetParams:
  .cfi_startproc
  .cfi_def_cfa_offset 8  // Return address
  // Intel opt. manual says to
  // "make the fall-through code following a conditional branch be the likely target for a branch with a forward target"
  // to hint static predictor.
  cmpq $0, _libcuda_so_tramp_table+1904(%rip)
  je 2f
1:
  jmp *_libcuda_so_tramp_table+1904(%rip)
2:
  pushq $238
  .cfi_adjust_cfa_offset 8
  call _libcuda_so_save_regs_and_resolve
  addq $8, %rsp
  .cfi_adjust_cfa_offset -8
  jmp *%rax
  .cfi_endproc

/*
 * Copyright 2018-2025 Yury Gribov
 *
 * The MIT License (MIT)
 *
 * Use of this source code is governed by MIT license that can be
 * found in the LICENSE.txt file.
 */

  .globl cuGraphReleaseUserObject
  .p2align 4
  .type cuGraphReleaseUserObject, %function
#ifndef IMPLIB_EXPORT_SHIMS
  .hidden cuGraphReleaseUserObject
#endif
cuGraphReleaseUserObject:
  .cfi_startproc
  .cfi_def_cfa_offset 8  // Return address
  // Intel opt. manual says to
  // "make the fall-through code following a conditional branch be the likely target for a branch with a forward target"
  // to hint static predictor.
  cmpq $0, _libcuda_so_tramp_table+1912(%rip)
  je 2f
1:
  jmp *_libcuda_so_tramp_table+1912(%rip)
2:
  pushq $239
  .cfi_adjust_cfa_offset 8
  call _libcuda_so_save_regs_and_resolve
  addq $8, %rsp
  .cfi_adjust_cfa_offset -8
  jmp *%rax
  .cfi_endproc

/*
 * Copyright 2018-2025 Yury Gribov
 *
 * The MIT License (MIT)
 *
 * Use of this source code is governed by MIT license that can be
 * found in the LICENSE.txt file.
 */

  .globl cuGraphRemoveDependencies
  .p2align 4
  .type cuGraphRemoveDependencies, %function
#ifndef IMPLIB_EXPORT_SHIMS
  .hidden cuGraphRemoveDependencies
#endif
cuGraphRemoveDependencies:
  .cfi_startproc
  .cfi_def_cfa_offset 8  // Return address
  // Intel opt. manual says to
  // "make the fall-through code following a conditional branch be the likely target for a branch with a forward target"
  // to hint static predictor.
  cmpq $0, _libcuda_so_tramp_table+1920(%rip)
  je 2f
1:
  jmp *_libcuda_so_tramp_table+1920(%rip)
2:
  pushq $240
  .cfi_adjust_cfa_offset 8
  call _libcuda_so_save_regs_and_resolve
  addq $8, %rsp
  .cfi_adjust_cfa_offset -8
  jmp *%rax
  .cfi_endproc

/*
 * Copyright 2018-2025 Yury Gribov
 *
 * The MIT License (MIT)
 *
 * Use of this source code is governed by MIT license that can be
 * found in the LICENSE.txt file.
 */

  .globl cuGraphRemoveDependencies_v2
  .p2align 4
  .type cuGraphRemoveDependencies_v2, %function
#ifndef IMPLIB_EXPORT_SHIMS
  .hidden cuGraphRemoveDependencies_v2
#endif
cuGraphRemoveDependencies_v2:
  .cfi_startproc
  .cfi_def_cfa_offset 8  // Return address
  // Intel opt. manual says to
  // "make the fall-through code following a conditional branch be the likely target for a branch with a forward target"
  // to hint static predictor.
  cmpq $0, _libcuda_so_tramp_table+1928(%rip)
  je 2f
1:
  jmp *_libcuda_so_tramp_table+1928(%rip)
2:
  pushq $241
  .cfi_adjust_cfa_offset 8
  call _libcuda_so_save_regs_and_resolve
  addq $8, %rsp
  .cfi_adjust_cfa_offset -8
  jmp *%rax
  .cfi_endproc

/*
 * Copyright 2018-2025 Yury Gribov
 *
 * The MIT License (MIT)
 *
 * Use of this source code is governed by MIT license that can be
 * found in the LICENSE.txt file.
 */

  .globl cuGraphRetainUserObject
  .p2align 4
  .type cuGraphRetainUserObject, %function
#ifndef IMPLIB_EXPORT_SHIMS
  .hidden cuGraphRetainUserObject
#endif
cuGraphRetainUserObject:
  .cfi_startproc
  .cfi_def_cfa_offset 8  // Return address
  // Intel opt. manual says to
  // "make the fall-through code following a conditional branch be the likely target for a branch with a forward target"
  // to hint static predictor.
  cmpq $0, _libcuda_so_tramp_table+1936(%rip)
  je 2f
1:
  jmp *_libcuda_so_tramp_table+1936(%rip)
2:
  pushq $242
  .cfi_adjust_cfa_offset 8
  call _libcuda_so_save_regs_and_resolve
  addq $8, %rsp
  .cfi_adjust_cfa_offset -8
  jmp *%rax
  .cfi_endproc

/*
 * Copyright 2018-2025 Yury Gribov
 *
 * The MIT License (MIT)
 *
 * Use of this source code is governed by MIT license that can be
 * found in the LICENSE.txt file.
 */

  .globl cuGraphUpload
  .p2align 4
  .type cuGraphUpload, %function
#ifndef IMPLIB_EXPORT_SHIMS
  .hidden cuGraphUpload
#endif
cuGraphUpload:
  .cfi_startproc
  .cfi_def_cfa_offset 8  // Return address
  // Intel opt. manual says to
  // "make the fall-through code following a conditional branch be the likely target for a branch with a forward target"
  // to hint static predictor.
  cmpq $0, _libcuda_so_tramp_table+1944(%rip)
  je 2f
1:
  jmp *_libcuda_so_tramp_table+1944(%rip)
2:
  pushq $243
  .cfi_adjust_cfa_offset 8
  call _libcuda_so_save_regs_and_resolve
  addq $8, %rsp
  .cfi_adjust_cfa_offset -8
  jmp *%rax
  .cfi_endproc

/*
 * Copyright 2018-2025 Yury Gribov
 *
 * The MIT License (MIT)
 *
 * Use of this source code is governed by MIT license that can be
 * found in the LICENSE.txt file.
 */

  .globl cuGraphUpload_ptsz
  .p2align 4
  .type cuGraphUpload_ptsz, %function
#ifndef IMPLIB_EXPORT_SHIMS
  .hidden cuGraphUpload_ptsz
#endif
cuGraphUpload_ptsz:
  .cfi_startproc
  .cfi_def_cfa_offset 8  // Return address
  // Intel opt. manual says to
  // "make the fall-through code following a conditional branch be the likely target for a branch with a forward target"
  // to hint static predictor.
  cmpq $0, _libcuda_so_tramp_table+1952(%rip)
  je 2f
1:
  jmp *_libcuda_so_tramp_table+1952(%rip)
2:
  pushq $244
  .cfi_adjust_cfa_offset 8
  call _libcuda_so_save_regs_and_resolve
  addq $8, %rsp
  .cfi_adjust_cfa_offset -8
  jmp *%rax
  .cfi_endproc

/*
 * Copyright 2018-2025 Yury Gribov
 *
 * The MIT License (MIT)
 *
 * Use of this source code is governed by MIT license that can be
 * found in the LICENSE.txt file.
 */

  .globl cuGraphicsEGLRegisterImage
  .p2align 4
  .type cuGraphicsEGLRegisterImage, %function
#ifndef IMPLIB_EXPORT_SHIMS
  .hidden cuGraphicsEGLRegisterImage
#endif
cuGraphicsEGLRegisterImage:
  .cfi_startproc
  .cfi_def_cfa_offset 8  // Return address
  // Intel opt. manual says to
  // "make the fall-through code following a conditional branch be the likely target for a branch with a forward target"
  // to hint static predictor.
  cmpq $0, _libcuda_so_tramp_table+1960(%rip)
  je 2f
1:
  jmp *_libcuda_so_tramp_table+1960(%rip)
2:
  pushq $245
  .cfi_adjust_cfa_offset 8
  call _libcuda_so_save_regs_and_resolve
  addq $8, %rsp
  .cfi_adjust_cfa_offset -8
  jmp *%rax
  .cfi_endproc

/*
 * Copyright 2018-2025 Yury Gribov
 *
 * The MIT License (MIT)
 *
 * Use of this source code is governed by MIT license that can be
 * found in the LICENSE.txt file.
 */

  .globl cuGraphicsGLRegisterBuffer
  .p2align 4
  .type cuGraphicsGLRegisterBuffer, %function
#ifndef IMPLIB_EXPORT_SHIMS
  .hidden cuGraphicsGLRegisterBuffer
#endif
cuGraphicsGLRegisterBuffer:
  .cfi_startproc
  .cfi_def_cfa_offset 8  // Return address
  // Intel opt. manual says to
  // "make the fall-through code following a conditional branch be the likely target for a branch with a forward target"
  // to hint static predictor.
  cmpq $0, _libcuda_so_tramp_table+1968(%rip)
  je 2f
1:
  jmp *_libcuda_so_tramp_table+1968(%rip)
2:
  pushq $246
  .cfi_adjust_cfa_offset 8
  call _libcuda_so_save_regs_and_resolve
  addq $8, %rsp
  .cfi_adjust_cfa_offset -8
  jmp *%rax
  .cfi_endproc

/*
 * Copyright 2018-2025 Yury Gribov
 *
 * The MIT License (MIT)
 *
 * Use of this source code is governed by MIT license that can be
 * found in the LICENSE.txt file.
 */

  .globl cuGraphicsGLRegisterImage
  .p2align 4
  .type cuGraphicsGLRegisterImage, %function
#ifndef IMPLIB_EXPORT_SHIMS
  .hidden cuGraphicsGLRegisterImage
#endif
cuGraphicsGLRegisterImage:
  .cfi_startproc
  .cfi_def_cfa_offset 8  // Return address
  // Intel opt. manual says to
  // "make the fall-through code following a conditional branch be the likely target for a branch with a forward target"
  // to hint static predictor.
  cmpq $0, _libcuda_so_tramp_table+1976(%rip)
  je 2f
1:
  jmp *_libcuda_so_tramp_table+1976(%rip)
2:
  pushq $247
  .cfi_adjust_cfa_offset 8
  call _libcuda_so_save_regs_and_resolve
  addq $8, %rsp
  .cfi_adjust_cfa_offset -8
  jmp *%rax
  .cfi_endproc

/*
 * Copyright 2018-2025 Yury Gribov
 *
 * The MIT License (MIT)
 *
 * Use of this source code is governed by MIT license that can be
 * found in the LICENSE.txt file.
 */

  .globl cuGraphicsMapResources
  .p2align 4
  .type cuGraphicsMapResources, %function
#ifndef IMPLIB_EXPORT_SHIMS
  .hidden cuGraphicsMapResources
#endif
cuGraphicsMapResources:
  .cfi_startproc
  .cfi_def_cfa_offset 8  // Return address
  // Intel opt. manual says to
  // "make the fall-through code following a conditional branch be the likely target for a branch with a forward target"
  // to hint static predictor.
  cmpq $0, _libcuda_so_tramp_table+1984(%rip)
  je 2f
1:
  jmp *_libcuda_so_tramp_table+1984(%rip)
2:
  pushq $248
  .cfi_adjust_cfa_offset 8
  call _libcuda_so_save_regs_and_resolve
  addq $8, %rsp
  .cfi_adjust_cfa_offset -8
  jmp *%rax
  .cfi_endproc

/*
 * Copyright 2018-2025 Yury Gribov
 *
 * The MIT License (MIT)
 *
 * Use of this source code is governed by MIT license that can be
 * found in the LICENSE.txt file.
 */

  .globl cuGraphicsMapResources_ptsz
  .p2align 4
  .type cuGraphicsMapResources_ptsz, %function
#ifndef IMPLIB_EXPORT_SHIMS
  .hidden cuGraphicsMapResources_ptsz
#endif
cuGraphicsMapResources_ptsz:
  .cfi_startproc
  .cfi_def_cfa_offset 8  // Return address
  // Intel opt. manual says to
  // "make the fall-through code following a conditional branch be the likely target for a branch with a forward target"
  // to hint static predictor.
  cmpq $0, _libcuda_so_tramp_table+1992(%rip)
  je 2f
1:
  jmp *_libcuda_so_tramp_table+1992(%rip)
2:
  pushq $249
  .cfi_adjust_cfa_offset 8
  call _libcuda_so_save_regs_and_resolve
  addq $8, %rsp
  .cfi_adjust_cfa_offset -8
  jmp *%rax
  .cfi_endproc

/*
 * Copyright 2018-2025 Yury Gribov
 *
 * The MIT License (MIT)
 *
 * Use of this source code is governed by MIT license that can be
 * found in the LICENSE.txt file.
 */

  .globl cuGraphicsResourceGetMappedEglFrame
  .p2align 4
  .type cuGraphicsResourceGetMappedEglFrame, %function
#ifndef IMPLIB_EXPORT_SHIMS
  .hidden cuGraphicsResourceGetMappedEglFrame
#endif
cuGraphicsResourceGetMappedEglFrame:
  .cfi_startproc
  .cfi_def_cfa_offset 8  // Return address
  // Intel opt. manual says to
  // "make the fall-through code following a conditional branch be the likely target for a branch with a forward target"
  // to hint static predictor.
  cmpq $0, _libcuda_so_tramp_table+2000(%rip)
  je 2f
1:
  jmp *_libcuda_so_tramp_table+2000(%rip)
2:
  pushq $250
  .cfi_adjust_cfa_offset 8
  call _libcuda_so_save_regs_and_resolve
  addq $8, %rsp
  .cfi_adjust_cfa_offset -8
  jmp *%rax
  .cfi_endproc

/*
 * Copyright 2018-2025 Yury Gribov
 *
 * The MIT License (MIT)
 *
 * Use of this source code is governed by MIT license that can be
 * found in the LICENSE.txt file.
 */

  .globl cuGraphicsResourceGetMappedMipmappedArray
  .p2align 4
  .type cuGraphicsResourceGetMappedMipmappedArray, %function
#ifndef IMPLIB_EXPORT_SHIMS
  .hidden cuGraphicsResourceGetMappedMipmappedArray
#endif
cuGraphicsResourceGetMappedMipmappedArray:
  .cfi_startproc
  .cfi_def_cfa_offset 8  // Return address
  // Intel opt. manual says to
  // "make the fall-through code following a conditional branch be the likely target for a branch with a forward target"
  // to hint static predictor.
  cmpq $0, _libcuda_so_tramp_table+2008(%rip)
  je 2f
1:
  jmp *_libcuda_so_tramp_table+2008(%rip)
2:
  pushq $251
  .cfi_adjust_cfa_offset 8
  call _libcuda_so_save_regs_and_resolve
  addq $8, %rsp
  .cfi_adjust_cfa_offset -8
  jmp *%rax
  .cfi_endproc

/*
 * Copyright 2018-2025 Yury Gribov
 *
 * The MIT License (MIT)
 *
 * Use of this source code is governed by MIT license that can be
 * found in the LICENSE.txt file.
 */

  .globl cuGraphicsResourceGetMappedPointer
  .p2align 4
  .type cuGraphicsResourceGetMappedPointer, %function
#ifndef IMPLIB_EXPORT_SHIMS
  .hidden cuGraphicsResourceGetMappedPointer
#endif
cuGraphicsResourceGetMappedPointer:
  .cfi_startproc
  .cfi_def_cfa_offset 8  // Return address
  // Intel opt. manual says to
  // "make the fall-through code following a conditional branch be the likely target for a branch with a forward target"
  // to hint static predictor.
  cmpq $0, _libcuda_so_tramp_table+2016(%rip)
  je 2f
1:
  jmp *_libcuda_so_tramp_table+2016(%rip)
2:
  pushq $252
  .cfi_adjust_cfa_offset 8
  call _libcuda_so_save_regs_and_resolve
  addq $8, %rsp
  .cfi_adjust_cfa_offset -8
  jmp *%rax
  .cfi_endproc

/*
 * Copyright 2018-2025 Yury Gribov
 *
 * The MIT License (MIT)
 *
 * Use of this source code is governed by MIT license that can be
 * found in the LICENSE.txt file.
 */

  .globl cuGraphicsResourceGetMappedPointer_v2
  .p2align 4
  .type cuGraphicsResourceGetMappedPointer_v2, %function
#ifndef IMPLIB_EXPORT_SHIMS
  .hidden cuGraphicsResourceGetMappedPointer_v2
#endif
cuGraphicsResourceGetMappedPointer_v2:
  .cfi_startproc
  .cfi_def_cfa_offset 8  // Return address
  // Intel opt. manual says to
  // "make the fall-through code following a conditional branch be the likely target for a branch with a forward target"
  // to hint static predictor.
  cmpq $0, _libcuda_so_tramp_table+2024(%rip)
  je 2f
1:
  jmp *_libcuda_so_tramp_table+2024(%rip)
2:
  pushq $253
  .cfi_adjust_cfa_offset 8
  call _libcuda_so_save_regs_and_resolve
  addq $8, %rsp
  .cfi_adjust_cfa_offset -8
  jmp *%rax
  .cfi_endproc

/*
 * Copyright 2018-2025 Yury Gribov
 *
 * The MIT License (MIT)
 *
 * Use of this source code is governed by MIT license that can be
 * found in the LICENSE.txt file.
 */

  .globl cuGraphicsResourceSetMapFlags
  .p2align 4
  .type cuGraphicsResourceSetMapFlags, %function
#ifndef IMPLIB_EXPORT_SHIMS
  .hidden cuGraphicsResourceSetMapFlags
#endif
cuGraphicsResourceSetMapFlags:
  .cfi_startproc
  .cfi_def_cfa_offset 8  // Return address
  // Intel opt. manual says to
  // "make the fall-through code following a conditional branch be the likely target for a branch with a forward target"
  // to hint static predictor.
  cmpq $0, _libcuda_so_tramp_table+2032(%rip)
  je 2f
1:
  jmp *_libcuda_so_tramp_table+2032(%rip)
2:
  pushq $254
  .cfi_adjust_cfa_offset 8
  call _libcuda_so_save_regs_and_resolve
  addq $8, %rsp
  .cfi_adjust_cfa_offset -8
  jmp *%rax
  .cfi_endproc

/*
 * Copyright 2018-2025 Yury Gribov
 *
 * The MIT License (MIT)
 *
 * Use of this source code is governed by MIT license that can be
 * found in the LICENSE.txt file.
 */

  .globl cuGraphicsResourceSetMapFlags_v2
  .p2align 4
  .type cuGraphicsResourceSetMapFlags_v2, %function
#ifndef IMPLIB_EXPORT_SHIMS
  .hidden cuGraphicsResourceSetMapFlags_v2
#endif
cuGraphicsResourceSetMapFlags_v2:
  .cfi_startproc
  .cfi_def_cfa_offset 8  // Return address
  // Intel opt. manual says to
  // "make the fall-through code following a conditional branch be the likely target for a branch with a forward target"
  // to hint static predictor.
  cmpq $0, _libcuda_so_tramp_table+2040(%rip)
  je 2f
1:
  jmp *_libcuda_so_tramp_table+2040(%rip)
2:
  pushq $255
  .cfi_adjust_cfa_offset 8
  call _libcuda_so_save_regs_and_resolve
  addq $8, %rsp
  .cfi_adjust_cfa_offset -8
  jmp *%rax
  .cfi_endproc

/*
 * Copyright 2018-2025 Yury Gribov
 *
 * The MIT License (MIT)
 *
 * Use of this source code is governed by MIT license that can be
 * found in the LICENSE.txt file.
 */

  .globl cuGraphicsSubResourceGetMappedArray
  .p2align 4
  .type cuGraphicsSubResourceGetMappedArray, %function
#ifndef IMPLIB_EXPORT_SHIMS
  .hidden cuGraphicsSubResourceGetMappedArray
#endif
cuGraphicsSubResourceGetMappedArray:
  .cfi_startproc
  .cfi_def_cfa_offset 8  // Return address
  // Intel opt. manual says to
  // "make the fall-through code following a conditional branch be the likely target for a branch with a forward target"
  // to hint static predictor.
  cmpq $0, _libcuda_so_tramp_table+2048(%rip)
  je 2f
1:
  jmp *_libcuda_so_tramp_table+2048(%rip)
2:
  pushq $256
  .cfi_adjust_cfa_offset 8
  call _libcuda_so_save_regs_and_resolve
  addq $8, %rsp
  .cfi_adjust_cfa_offset -8
  jmp *%rax
  .cfi_endproc

/*
 * Copyright 2018-2025 Yury Gribov
 *
 * The MIT License (MIT)
 *
 * Use of this source code is governed by MIT license that can be
 * found in the LICENSE.txt file.
 */

  .globl cuGraphicsUnmapResources
  .p2align 4
  .type cuGraphicsUnmapResources, %function
#ifndef IMPLIB_EXPORT_SHIMS
  .hidden cuGraphicsUnmapResources
#endif
cuGraphicsUnmapResources:
  .cfi_startproc
  .cfi_def_cfa_offset 8  // Return address
  // Intel opt. manual says to
  // "make the fall-through code following a conditional branch be the likely target for a branch with a forward target"
  // to hint static predictor.
  cmpq $0, _libcuda_so_tramp_table+2056(%rip)
  je 2f
1:
  jmp *_libcuda_so_tramp_table+2056(%rip)
2:
  pushq $257
  .cfi_adjust_cfa_offset 8
  call _libcuda_so_save_regs_and_resolve
  addq $8, %rsp
  .cfi_adjust_cfa_offset -8
  jmp *%rax
  .cfi_endproc

/*
 * Copyright 2018-2025 Yury Gribov
 *
 * The MIT License (MIT)
 *
 * Use of this source code is governed by MIT license that can be
 * found in the LICENSE.txt file.
 */

  .globl cuGraphicsUnmapResources_ptsz
  .p2align 4
  .type cuGraphicsUnmapResources_ptsz, %function
#ifndef IMPLIB_EXPORT_SHIMS
  .hidden cuGraphicsUnmapResources_ptsz
#endif
cuGraphicsUnmapResources_ptsz:
  .cfi_startproc
  .cfi_def_cfa_offset 8  // Return address
  // Intel opt. manual says to
  // "make the fall-through code following a conditional branch be the likely target for a branch with a forward target"
  // to hint static predictor.
  cmpq $0, _libcuda_so_tramp_table+2064(%rip)
  je 2f
1:
  jmp *_libcuda_so_tramp_table+2064(%rip)
2:
  pushq $258
  .cfi_adjust_cfa_offset 8
  call _libcuda_so_save_regs_and_resolve
  addq $8, %rsp
  .cfi_adjust_cfa_offset -8
  jmp *%rax
  .cfi_endproc

/*
 * Copyright 2018-2025 Yury Gribov
 *
 * The MIT License (MIT)
 *
 * Use of this source code is governed by MIT license that can be
 * found in the LICENSE.txt file.
 */

  .globl cuGraphicsUnregisterResource
  .p2align 4
  .type cuGraphicsUnregisterResource, %function
#ifndef IMPLIB_EXPORT_SHIMS
  .hidden cuGraphicsUnregisterResource
#endif
cuGraphicsUnregisterResource:
  .cfi_startproc
  .cfi_def_cfa_offset 8  // Return address
  // Intel opt. manual says to
  // "make the fall-through code following a conditional branch be the likely target for a branch with a forward target"
  // to hint static predictor.
  cmpq $0, _libcuda_so_tramp_table+2072(%rip)
  je 2f
1:
  jmp *_libcuda_so_tramp_table+2072(%rip)
2:
  pushq $259
  .cfi_adjust_cfa_offset 8
  call _libcuda_so_save_regs_and_resolve
  addq $8, %rsp
  .cfi_adjust_cfa_offset -8
  jmp *%rax
  .cfi_endproc

/*
 * Copyright 2018-2025 Yury Gribov
 *
 * The MIT License (MIT)
 *
 * Use of this source code is governed by MIT license that can be
 * found in the LICENSE.txt file.
 */

  .globl cuGraphicsVDPAURegisterOutputSurface
  .p2align 4
  .type cuGraphicsVDPAURegisterOutputSurface, %function
#ifndef IMPLIB_EXPORT_SHIMS
  .hidden cuGraphicsVDPAURegisterOutputSurface
#endif
cuGraphicsVDPAURegisterOutputSurface:
  .cfi_startproc
  .cfi_def_cfa_offset 8  // Return address
  // Intel opt. manual says to
  // "make the fall-through code following a conditional branch be the likely target for a branch with a forward target"
  // to hint static predictor.
  cmpq $0, _libcuda_so_tramp_table+2080(%rip)
  je 2f
1:
  jmp *_libcuda_so_tramp_table+2080(%rip)
2:
  pushq $260
  .cfi_adjust_cfa_offset 8
  call _libcuda_so_save_regs_and_resolve
  addq $8, %rsp
  .cfi_adjust_cfa_offset -8
  jmp *%rax
  .cfi_endproc

/*
 * Copyright 2018-2025 Yury Gribov
 *
 * The MIT License (MIT)
 *
 * Use of this source code is governed by MIT license that can be
 * found in the LICENSE.txt file.
 */

  .globl cuGraphicsVDPAURegisterVideoSurface
  .p2align 4
  .type cuGraphicsVDPAURegisterVideoSurface, %function
#ifndef IMPLIB_EXPORT_SHIMS
  .hidden cuGraphicsVDPAURegisterVideoSurface
#endif
cuGraphicsVDPAURegisterVideoSurface:
  .cfi_startproc
  .cfi_def_cfa_offset 8  // Return address
  // Intel opt. manual says to
  // "make the fall-through code following a conditional branch be the likely target for a branch with a forward target"
  // to hint static predictor.
  cmpq $0, _libcuda_so_tramp_table+2088(%rip)
  je 2f
1:
  jmp *_libcuda_so_tramp_table+2088(%rip)
2:
  pushq $261
  .cfi_adjust_cfa_offset 8
  call _libcuda_so_save_regs_and_resolve
  addq $8, %rsp
  .cfi_adjust_cfa_offset -8
  jmp *%rax
  .cfi_endproc

/*
 * Copyright 2018-2025 Yury Gribov
 *
 * The MIT License (MIT)
 *
 * Use of this source code is governed by MIT license that can be
 * found in the LICENSE.txt file.
 */

  .globl cuGreenCtxCreate
  .p2align 4
  .type cuGreenCtxCreate, %function
#ifndef IMPLIB_EXPORT_SHIMS
  .hidden cuGreenCtxCreate
#endif
cuGreenCtxCreate:
  .cfi_startproc
  .cfi_def_cfa_offset 8  // Return address
  // Intel opt. manual says to
  // "make the fall-through code following a conditional branch be the likely target for a branch with a forward target"
  // to hint static predictor.
  cmpq $0, _libcuda_so_tramp_table+2096(%rip)
  je 2f
1:
  jmp *_libcuda_so_tramp_table+2096(%rip)
2:
  pushq $262
  .cfi_adjust_cfa_offset 8
  call _libcuda_so_save_regs_and_resolve
  addq $8, %rsp
  .cfi_adjust_cfa_offset -8
  jmp *%rax
  .cfi_endproc

/*
 * Copyright 2018-2025 Yury Gribov
 *
 * The MIT License (MIT)
 *
 * Use of this source code is governed by MIT license that can be
 * found in the LICENSE.txt file.
 */

  .globl cuGreenCtxDestroy
  .p2align 4
  .type cuGreenCtxDestroy, %function
#ifndef IMPLIB_EXPORT_SHIMS
  .hidden cuGreenCtxDestroy
#endif
cuGreenCtxDestroy:
  .cfi_startproc
  .cfi_def_cfa_offset 8  // Return address
  // Intel opt. manual says to
  // "make the fall-through code following a conditional branch be the likely target for a branch with a forward target"
  // to hint static predictor.
  cmpq $0, _libcuda_so_tramp_table+2104(%rip)
  je 2f
1:
  jmp *_libcuda_so_tramp_table+2104(%rip)
2:
  pushq $263
  .cfi_adjust_cfa_offset 8
  call _libcuda_so_save_regs_and_resolve
  addq $8, %rsp
  .cfi_adjust_cfa_offset -8
  jmp *%rax
  .cfi_endproc

/*
 * Copyright 2018-2025 Yury Gribov
 *
 * The MIT License (MIT)
 *
 * Use of this source code is governed by MIT license that can be
 * found in the LICENSE.txt file.
 */

  .globl cuGreenCtxGetDevResource
  .p2align 4
  .type cuGreenCtxGetDevResource, %function
#ifndef IMPLIB_EXPORT_SHIMS
  .hidden cuGreenCtxGetDevResource
#endif
cuGreenCtxGetDevResource:
  .cfi_startproc
  .cfi_def_cfa_offset 8  // Return address
  // Intel opt. manual says to
  // "make the fall-through code following a conditional branch be the likely target for a branch with a forward target"
  // to hint static predictor.
  cmpq $0, _libcuda_so_tramp_table+2112(%rip)
  je 2f
1:
  jmp *_libcuda_so_tramp_table+2112(%rip)
2:
  pushq $264
  .cfi_adjust_cfa_offset 8
  call _libcuda_so_save_regs_and_resolve
  addq $8, %rsp
  .cfi_adjust_cfa_offset -8
  jmp *%rax
  .cfi_endproc

/*
 * Copyright 2018-2025 Yury Gribov
 *
 * The MIT License (MIT)
 *
 * Use of this source code is governed by MIT license that can be
 * found in the LICENSE.txt file.
 */

  .globl cuGreenCtxRecordEvent
  .p2align 4
  .type cuGreenCtxRecordEvent, %function
#ifndef IMPLIB_EXPORT_SHIMS
  .hidden cuGreenCtxRecordEvent
#endif
cuGreenCtxRecordEvent:
  .cfi_startproc
  .cfi_def_cfa_offset 8  // Return address
  // Intel opt. manual says to
  // "make the fall-through code following a conditional branch be the likely target for a branch with a forward target"
  // to hint static predictor.
  cmpq $0, _libcuda_so_tramp_table+2120(%rip)
  je 2f
1:
  jmp *_libcuda_so_tramp_table+2120(%rip)
2:
  pushq $265
  .cfi_adjust_cfa_offset 8
  call _libcuda_so_save_regs_and_resolve
  addq $8, %rsp
  .cfi_adjust_cfa_offset -8
  jmp *%rax
  .cfi_endproc

/*
 * Copyright 2018-2025 Yury Gribov
 *
 * The MIT License (MIT)
 *
 * Use of this source code is governed by MIT license that can be
 * found in the LICENSE.txt file.
 */

  .globl cuGreenCtxStreamCreate
  .p2align 4
  .type cuGreenCtxStreamCreate, %function
#ifndef IMPLIB_EXPORT_SHIMS
  .hidden cuGreenCtxStreamCreate
#endif
cuGreenCtxStreamCreate:
  .cfi_startproc
  .cfi_def_cfa_offset 8  // Return address
  // Intel opt. manual says to
  // "make the fall-through code following a conditional branch be the likely target for a branch with a forward target"
  // to hint static predictor.
  cmpq $0, _libcuda_so_tramp_table+2128(%rip)
  je 2f
1:
  jmp *_libcuda_so_tramp_table+2128(%rip)
2:
  pushq $266
  .cfi_adjust_cfa_offset 8
  call _libcuda_so_save_regs_and_resolve
  addq $8, %rsp
  .cfi_adjust_cfa_offset -8
  jmp *%rax
  .cfi_endproc

/*
 * Copyright 2018-2025 Yury Gribov
 *
 * The MIT License (MIT)
 *
 * Use of this source code is governed by MIT license that can be
 * found in the LICENSE.txt file.
 */

  .globl cuGreenCtxWaitEvent
  .p2align 4
  .type cuGreenCtxWaitEvent, %function
#ifndef IMPLIB_EXPORT_SHIMS
  .hidden cuGreenCtxWaitEvent
#endif
cuGreenCtxWaitEvent:
  .cfi_startproc
  .cfi_def_cfa_offset 8  // Return address
  // Intel opt. manual says to
  // "make the fall-through code following a conditional branch be the likely target for a branch with a forward target"
  // to hint static predictor.
  cmpq $0, _libcuda_so_tramp_table+2136(%rip)
  je 2f
1:
  jmp *_libcuda_so_tramp_table+2136(%rip)
2:
  pushq $267
  .cfi_adjust_cfa_offset 8
  call _libcuda_so_save_regs_and_resolve
  addq $8, %rsp
  .cfi_adjust_cfa_offset -8
  jmp *%rax
  .cfi_endproc

/*
 * Copyright 2018-2025 Yury Gribov
 *
 * The MIT License (MIT)
 *
 * Use of this source code is governed by MIT license that can be
 * found in the LICENSE.txt file.
 */

  .globl cuImportExternalMemory
  .p2align 4
  .type cuImportExternalMemory, %function
#ifndef IMPLIB_EXPORT_SHIMS
  .hidden cuImportExternalMemory
#endif
cuImportExternalMemory:
  .cfi_startproc
  .cfi_def_cfa_offset 8  // Return address
  // Intel opt. manual says to
  // "make the fall-through code following a conditional branch be the likely target for a branch with a forward target"
  // to hint static predictor.
  cmpq $0, _libcuda_so_tramp_table+2144(%rip)
  je 2f
1:
  jmp *_libcuda_so_tramp_table+2144(%rip)
2:
  pushq $268
  .cfi_adjust_cfa_offset 8
  call _libcuda_so_save_regs_and_resolve
  addq $8, %rsp
  .cfi_adjust_cfa_offset -8
  jmp *%rax
  .cfi_endproc

/*
 * Copyright 2018-2025 Yury Gribov
 *
 * The MIT License (MIT)
 *
 * Use of this source code is governed by MIT license that can be
 * found in the LICENSE.txt file.
 */

  .globl cuImportExternalSemaphore
  .p2align 4
  .type cuImportExternalSemaphore, %function
#ifndef IMPLIB_EXPORT_SHIMS
  .hidden cuImportExternalSemaphore
#endif
cuImportExternalSemaphore:
  .cfi_startproc
  .cfi_def_cfa_offset 8  // Return address
  // Intel opt. manual says to
  // "make the fall-through code following a conditional branch be the likely target for a branch with a forward target"
  // to hint static predictor.
  cmpq $0, _libcuda_so_tramp_table+2152(%rip)
  je 2f
1:
  jmp *_libcuda_so_tramp_table+2152(%rip)
2:
  pushq $269
  .cfi_adjust_cfa_offset 8
  call _libcuda_so_save_regs_and_resolve
  addq $8, %rsp
  .cfi_adjust_cfa_offset -8
  jmp *%rax
  .cfi_endproc

/*
 * Copyright 2018-2025 Yury Gribov
 *
 * The MIT License (MIT)
 *
 * Use of this source code is governed by MIT license that can be
 * found in the LICENSE.txt file.
 */

  .globl cuInit
  .p2align 4
  .type cuInit, %function
#ifndef IMPLIB_EXPORT_SHIMS
  .hidden cuInit
#endif
cuInit:
  .cfi_startproc
  .cfi_def_cfa_offset 8  // Return address
  // Intel opt. manual says to
  // "make the fall-through code following a conditional branch be the likely target for a branch with a forward target"
  // to hint static predictor.
  cmpq $0, _libcuda_so_tramp_table+2160(%rip)
  je 2f
1:
  jmp *_libcuda_so_tramp_table+2160(%rip)
2:
  pushq $270
  .cfi_adjust_cfa_offset 8
  call _libcuda_so_save_regs_and_resolve
  addq $8, %rsp
  .cfi_adjust_cfa_offset -8
  jmp *%rax
  .cfi_endproc

/*
 * Copyright 2018-2025 Yury Gribov
 *
 * The MIT License (MIT)
 *
 * Use of this source code is governed by MIT license that can be
 * found in the LICENSE.txt file.
 */

  .globl cuIpcCloseMemHandle
  .p2align 4
  .type cuIpcCloseMemHandle, %function
#ifndef IMPLIB_EXPORT_SHIMS
  .hidden cuIpcCloseMemHandle
#endif
cuIpcCloseMemHandle:
  .cfi_startproc
  .cfi_def_cfa_offset 8  // Return address
  // Intel opt. manual says to
  // "make the fall-through code following a conditional branch be the likely target for a branch with a forward target"
  // to hint static predictor.
  cmpq $0, _libcuda_so_tramp_table+2168(%rip)
  je 2f
1:
  jmp *_libcuda_so_tramp_table+2168(%rip)
2:
  pushq $271
  .cfi_adjust_cfa_offset 8
  call _libcuda_so_save_regs_and_resolve
  addq $8, %rsp
  .cfi_adjust_cfa_offset -8
  jmp *%rax
  .cfi_endproc

/*
 * Copyright 2018-2025 Yury Gribov
 *
 * The MIT License (MIT)
 *
 * Use of this source code is governed by MIT license that can be
 * found in the LICENSE.txt file.
 */

  .globl cuIpcGetEventHandle
  .p2align 4
  .type cuIpcGetEventHandle, %function
#ifndef IMPLIB_EXPORT_SHIMS
  .hidden cuIpcGetEventHandle
#endif
cuIpcGetEventHandle:
  .cfi_startproc
  .cfi_def_cfa_offset 8  // Return address
  // Intel opt. manual says to
  // "make the fall-through code following a conditional branch be the likely target for a branch with a forward target"
  // to hint static predictor.
  cmpq $0, _libcuda_so_tramp_table+2176(%rip)
  je 2f
1:
  jmp *_libcuda_so_tramp_table+2176(%rip)
2:
  pushq $272
  .cfi_adjust_cfa_offset 8
  call _libcuda_so_save_regs_and_resolve
  addq $8, %rsp
  .cfi_adjust_cfa_offset -8
  jmp *%rax
  .cfi_endproc

/*
 * Copyright 2018-2025 Yury Gribov
 *
 * The MIT License (MIT)
 *
 * Use of this source code is governed by MIT license that can be
 * found in the LICENSE.txt file.
 */

  .globl cuIpcGetMemHandle
  .p2align 4
  .type cuIpcGetMemHandle, %function
#ifndef IMPLIB_EXPORT_SHIMS
  .hidden cuIpcGetMemHandle
#endif
cuIpcGetMemHandle:
  .cfi_startproc
  .cfi_def_cfa_offset 8  // Return address
  // Intel opt. manual says to
  // "make the fall-through code following a conditional branch be the likely target for a branch with a forward target"
  // to hint static predictor.
  cmpq $0, _libcuda_so_tramp_table+2184(%rip)
  je 2f
1:
  jmp *_libcuda_so_tramp_table+2184(%rip)
2:
  pushq $273
  .cfi_adjust_cfa_offset 8
  call _libcuda_so_save_regs_and_resolve
  addq $8, %rsp
  .cfi_adjust_cfa_offset -8
  jmp *%rax
  .cfi_endproc

/*
 * Copyright 2018-2025 Yury Gribov
 *
 * The MIT License (MIT)
 *
 * Use of this source code is governed by MIT license that can be
 * found in the LICENSE.txt file.
 */

  .globl cuIpcOpenEventHandle
  .p2align 4
  .type cuIpcOpenEventHandle, %function
#ifndef IMPLIB_EXPORT_SHIMS
  .hidden cuIpcOpenEventHandle
#endif
cuIpcOpenEventHandle:
  .cfi_startproc
  .cfi_def_cfa_offset 8  // Return address
  // Intel opt. manual says to
  // "make the fall-through code following a conditional branch be the likely target for a branch with a forward target"
  // to hint static predictor.
  cmpq $0, _libcuda_so_tramp_table+2192(%rip)
  je 2f
1:
  jmp *_libcuda_so_tramp_table+2192(%rip)
2:
  pushq $274
  .cfi_adjust_cfa_offset 8
  call _libcuda_so_save_regs_and_resolve
  addq $8, %rsp
  .cfi_adjust_cfa_offset -8
  jmp *%rax
  .cfi_endproc

/*
 * Copyright 2018-2025 Yury Gribov
 *
 * The MIT License (MIT)
 *
 * Use of this source code is governed by MIT license that can be
 * found in the LICENSE.txt file.
 */

  .globl cuIpcOpenMemHandle
  .p2align 4
  .type cuIpcOpenMemHandle, %function
#ifndef IMPLIB_EXPORT_SHIMS
  .hidden cuIpcOpenMemHandle
#endif
cuIpcOpenMemHandle:
  .cfi_startproc
  .cfi_def_cfa_offset 8  // Return address
  // Intel opt. manual says to
  // "make the fall-through code following a conditional branch be the likely target for a branch with a forward target"
  // to hint static predictor.
  cmpq $0, _libcuda_so_tramp_table+2200(%rip)
  je 2f
1:
  jmp *_libcuda_so_tramp_table+2200(%rip)
2:
  pushq $275
  .cfi_adjust_cfa_offset 8
  call _libcuda_so_save_regs_and_resolve
  addq $8, %rsp
  .cfi_adjust_cfa_offset -8
  jmp *%rax
  .cfi_endproc

/*
 * Copyright 2018-2025 Yury Gribov
 *
 * The MIT License (MIT)
 *
 * Use of this source code is governed by MIT license that can be
 * found in the LICENSE.txt file.
 */

  .globl cuIpcOpenMemHandle_v2
  .p2align 4
  .type cuIpcOpenMemHandle_v2, %function
#ifndef IMPLIB_EXPORT_SHIMS
  .hidden cuIpcOpenMemHandle_v2
#endif
cuIpcOpenMemHandle_v2:
  .cfi_startproc
  .cfi_def_cfa_offset 8  // Return address
  // Intel opt. manual says to
  // "make the fall-through code following a conditional branch be the likely target for a branch with a forward target"
  // to hint static predictor.
  cmpq $0, _libcuda_so_tramp_table+2208(%rip)
  je 2f
1:
  jmp *_libcuda_so_tramp_table+2208(%rip)
2:
  pushq $276
  .cfi_adjust_cfa_offset 8
  call _libcuda_so_save_regs_and_resolve
  addq $8, %rsp
  .cfi_adjust_cfa_offset -8
  jmp *%rax
  .cfi_endproc

/*
 * Copyright 2018-2025 Yury Gribov
 *
 * The MIT License (MIT)
 *
 * Use of this source code is governed by MIT license that can be
 * found in the LICENSE.txt file.
 */

  .globl cuKernelGetAttribute
  .p2align 4
  .type cuKernelGetAttribute, %function
#ifndef IMPLIB_EXPORT_SHIMS
  .hidden cuKernelGetAttribute
#endif
cuKernelGetAttribute:
  .cfi_startproc
  .cfi_def_cfa_offset 8  // Return address
  // Intel opt. manual says to
  // "make the fall-through code following a conditional branch be the likely target for a branch with a forward target"
  // to hint static predictor.
  cmpq $0, _libcuda_so_tramp_table+2216(%rip)
  je 2f
1:
  jmp *_libcuda_so_tramp_table+2216(%rip)
2:
  pushq $277
  .cfi_adjust_cfa_offset 8
  call _libcuda_so_save_regs_and_resolve
  addq $8, %rsp
  .cfi_adjust_cfa_offset -8
  jmp *%rax
  .cfi_endproc

/*
 * Copyright 2018-2025 Yury Gribov
 *
 * The MIT License (MIT)
 *
 * Use of this source code is governed by MIT license that can be
 * found in the LICENSE.txt file.
 */

  .globl cuKernelGetFunction
  .p2align 4
  .type cuKernelGetFunction, %function
#ifndef IMPLIB_EXPORT_SHIMS
  .hidden cuKernelGetFunction
#endif
cuKernelGetFunction:
  .cfi_startproc
  .cfi_def_cfa_offset 8  // Return address
  // Intel opt. manual says to
  // "make the fall-through code following a conditional branch be the likely target for a branch with a forward target"
  // to hint static predictor.
  cmpq $0, _libcuda_so_tramp_table+2224(%rip)
  je 2f
1:
  jmp *_libcuda_so_tramp_table+2224(%rip)
2:
  pushq $278
  .cfi_adjust_cfa_offset 8
  call _libcuda_so_save_regs_and_resolve
  addq $8, %rsp
  .cfi_adjust_cfa_offset -8
  jmp *%rax
  .cfi_endproc

/*
 * Copyright 2018-2025 Yury Gribov
 *
 * The MIT License (MIT)
 *
 * Use of this source code is governed by MIT license that can be
 * found in the LICENSE.txt file.
 */

  .globl cuKernelGetLibrary
  .p2align 4
  .type cuKernelGetLibrary, %function
#ifndef IMPLIB_EXPORT_SHIMS
  .hidden cuKernelGetLibrary
#endif
cuKernelGetLibrary:
  .cfi_startproc
  .cfi_def_cfa_offset 8  // Return address
  // Intel opt. manual says to
  // "make the fall-through code following a conditional branch be the likely target for a branch with a forward target"
  // to hint static predictor.
  cmpq $0, _libcuda_so_tramp_table+2232(%rip)
  je 2f
1:
  jmp *_libcuda_so_tramp_table+2232(%rip)
2:
  pushq $279
  .cfi_adjust_cfa_offset 8
  call _libcuda_so_save_regs_and_resolve
  addq $8, %rsp
  .cfi_adjust_cfa_offset -8
  jmp *%rax
  .cfi_endproc

/*
 * Copyright 2018-2025 Yury Gribov
 *
 * The MIT License (MIT)
 *
 * Use of this source code is governed by MIT license that can be
 * found in the LICENSE.txt file.
 */

  .globl cuKernelGetName
  .p2align 4
  .type cuKernelGetName, %function
#ifndef IMPLIB_EXPORT_SHIMS
  .hidden cuKernelGetName
#endif
cuKernelGetName:
  .cfi_startproc
  .cfi_def_cfa_offset 8  // Return address
  // Intel opt. manual says to
  // "make the fall-through code following a conditional branch be the likely target for a branch with a forward target"
  // to hint static predictor.
  cmpq $0, _libcuda_so_tramp_table+2240(%rip)
  je 2f
1:
  jmp *_libcuda_so_tramp_table+2240(%rip)
2:
  pushq $280
  .cfi_adjust_cfa_offset 8
  call _libcuda_so_save_regs_and_resolve
  addq $8, %rsp
  .cfi_adjust_cfa_offset -8
  jmp *%rax
  .cfi_endproc

/*
 * Copyright 2018-2025 Yury Gribov
 *
 * The MIT License (MIT)
 *
 * Use of this source code is governed by MIT license that can be
 * found in the LICENSE.txt file.
 */

  .globl cuKernelGetParamInfo
  .p2align 4
  .type cuKernelGetParamInfo, %function
#ifndef IMPLIB_EXPORT_SHIMS
  .hidden cuKernelGetParamInfo
#endif
cuKernelGetParamInfo:
  .cfi_startproc
  .cfi_def_cfa_offset 8  // Return address
  // Intel opt. manual says to
  // "make the fall-through code following a conditional branch be the likely target for a branch with a forward target"
  // to hint static predictor.
  cmpq $0, _libcuda_so_tramp_table+2248(%rip)
  je 2f
1:
  jmp *_libcuda_so_tramp_table+2248(%rip)
2:
  pushq $281
  .cfi_adjust_cfa_offset 8
  call _libcuda_so_save_regs_and_resolve
  addq $8, %rsp
  .cfi_adjust_cfa_offset -8
  jmp *%rax
  .cfi_endproc

/*
 * Copyright 2018-2025 Yury Gribov
 *
 * The MIT License (MIT)
 *
 * Use of this source code is governed by MIT license that can be
 * found in the LICENSE.txt file.
 */

  .globl cuKernelSetAttribute
  .p2align 4
  .type cuKernelSetAttribute, %function
#ifndef IMPLIB_EXPORT_SHIMS
  .hidden cuKernelSetAttribute
#endif
cuKernelSetAttribute:
  .cfi_startproc
  .cfi_def_cfa_offset 8  // Return address
  // Intel opt. manual says to
  // "make the fall-through code following a conditional branch be the likely target for a branch with a forward target"
  // to hint static predictor.
  cmpq $0, _libcuda_so_tramp_table+2256(%rip)
  je 2f
1:
  jmp *_libcuda_so_tramp_table+2256(%rip)
2:
  pushq $282
  .cfi_adjust_cfa_offset 8
  call _libcuda_so_save_regs_and_resolve
  addq $8, %rsp
  .cfi_adjust_cfa_offset -8
  jmp *%rax
  .cfi_endproc

/*
 * Copyright 2018-2025 Yury Gribov
 *
 * The MIT License (MIT)
 *
 * Use of this source code is governed by MIT license that can be
 * found in the LICENSE.txt file.
 */

  .globl cuKernelSetCacheConfig
  .p2align 4
  .type cuKernelSetCacheConfig, %function
#ifndef IMPLIB_EXPORT_SHIMS
  .hidden cuKernelSetCacheConfig
#endif
cuKernelSetCacheConfig:
  .cfi_startproc
  .cfi_def_cfa_offset 8  // Return address
  // Intel opt. manual says to
  // "make the fall-through code following a conditional branch be the likely target for a branch with a forward target"
  // to hint static predictor.
  cmpq $0, _libcuda_so_tramp_table+2264(%rip)
  je 2f
1:
  jmp *_libcuda_so_tramp_table+2264(%rip)
2:
  pushq $283
  .cfi_adjust_cfa_offset 8
  call _libcuda_so_save_regs_and_resolve
  addq $8, %rsp
  .cfi_adjust_cfa_offset -8
  jmp *%rax
  .cfi_endproc

/*
 * Copyright 2018-2025 Yury Gribov
 *
 * The MIT License (MIT)
 *
 * Use of this source code is governed by MIT license that can be
 * found in the LICENSE.txt file.
 */

  .globl cuLaunch
  .p2align 4
  .type cuLaunch, %function
#ifndef IMPLIB_EXPORT_SHIMS
  .hidden cuLaunch
#endif
cuLaunch:
  .cfi_startproc
  .cfi_def_cfa_offset 8  // Return address
  // Intel opt. manual says to
  // "make the fall-through code following a conditional branch be the likely target for a branch with a forward target"
  // to hint static predictor.
  cmpq $0, _libcuda_so_tramp_table+2272(%rip)
  je 2f
1:
  jmp *_libcuda_so_tramp_table+2272(%rip)
2:
  pushq $284
  .cfi_adjust_cfa_offset 8
  call _libcuda_so_save_regs_and_resolve
  addq $8, %rsp
  .cfi_adjust_cfa_offset -8
  jmp *%rax
  .cfi_endproc

/*
 * Copyright 2018-2025 Yury Gribov
 *
 * The MIT License (MIT)
 *
 * Use of this source code is governed by MIT license that can be
 * found in the LICENSE.txt file.
 */

  .globl cuLaunchCooperativeKernel
  .p2align 4
  .type cuLaunchCooperativeKernel, %function
#ifndef IMPLIB_EXPORT_SHIMS
  .hidden cuLaunchCooperativeKernel
#endif
cuLaunchCooperativeKernel:
  .cfi_startproc
  .cfi_def_cfa_offset 8  // Return address
  // Intel opt. manual says to
  // "make the fall-through code following a conditional branch be the likely target for a branch with a forward target"
  // to hint static predictor.
  cmpq $0, _libcuda_so_tramp_table+2280(%rip)
  je 2f
1:
  jmp *_libcuda_so_tramp_table+2280(%rip)
2:
  pushq $285
  .cfi_adjust_cfa_offset 8
  call _libcuda_so_save_regs_and_resolve
  addq $8, %rsp
  .cfi_adjust_cfa_offset -8
  jmp *%rax
  .cfi_endproc

/*
 * Copyright 2018-2025 Yury Gribov
 *
 * The MIT License (MIT)
 *
 * Use of this source code is governed by MIT license that can be
 * found in the LICENSE.txt file.
 */

  .globl cuLaunchCooperativeKernelMultiDevice
  .p2align 4
  .type cuLaunchCooperativeKernelMultiDevice, %function
#ifndef IMPLIB_EXPORT_SHIMS
  .hidden cuLaunchCooperativeKernelMultiDevice
#endif
cuLaunchCooperativeKernelMultiDevice:
  .cfi_startproc
  .cfi_def_cfa_offset 8  // Return address
  // Intel opt. manual says to
  // "make the fall-through code following a conditional branch be the likely target for a branch with a forward target"
  // to hint static predictor.
  cmpq $0, _libcuda_so_tramp_table+2288(%rip)
  je 2f
1:
  jmp *_libcuda_so_tramp_table+2288(%rip)
2:
  pushq $286
  .cfi_adjust_cfa_offset 8
  call _libcuda_so_save_regs_and_resolve
  addq $8, %rsp
  .cfi_adjust_cfa_offset -8
  jmp *%rax
  .cfi_endproc

/*
 * Copyright 2018-2025 Yury Gribov
 *
 * The MIT License (MIT)
 *
 * Use of this source code is governed by MIT license that can be
 * found in the LICENSE.txt file.
 */

  .globl cuLaunchCooperativeKernel_ptsz
  .p2align 4
  .type cuLaunchCooperativeKernel_ptsz, %function
#ifndef IMPLIB_EXPORT_SHIMS
  .hidden cuLaunchCooperativeKernel_ptsz
#endif
cuLaunchCooperativeKernel_ptsz:
  .cfi_startproc
  .cfi_def_cfa_offset 8  // Return address
  // Intel opt. manual says to
  // "make the fall-through code following a conditional branch be the likely target for a branch with a forward target"
  // to hint static predictor.
  cmpq $0, _libcuda_so_tramp_table+2296(%rip)
  je 2f
1:
  jmp *_libcuda_so_tramp_table+2296(%rip)
2:
  pushq $287
  .cfi_adjust_cfa_offset 8
  call _libcuda_so_save_regs_and_resolve
  addq $8, %rsp
  .cfi_adjust_cfa_offset -8
  jmp *%rax
  .cfi_endproc

/*
 * Copyright 2018-2025 Yury Gribov
 *
 * The MIT License (MIT)
 *
 * Use of this source code is governed by MIT license that can be
 * found in the LICENSE.txt file.
 */

  .globl cuLaunchGrid
  .p2align 4
  .type cuLaunchGrid, %function
#ifndef IMPLIB_EXPORT_SHIMS
  .hidden cuLaunchGrid
#endif
cuLaunchGrid:
  .cfi_startproc
  .cfi_def_cfa_offset 8  // Return address
  // Intel opt. manual says to
