/*
 * Copyright 2018-2025 Yury Gribov
 *
 * The MIT License (MIT)
 *
 * Use of this source code is governed by MIT license that can be
 * found in the LICENSE.txt file.
 */

#define lr x30
#define ip0 x16

  .section .note.GNU-stack,"",@progbits

  .data

  .globl _libcuda_so_tramp_table
  .hidden _libcuda_so_tramp_table
  .align 8
_libcuda_so_tramp_table:
  .zero 5280

  .text

  .globl _libcuda_so_tramp_resolve
  .hidden _libcuda_so_tramp_resolve

  .globl _libcuda_so_save_regs_and_resolve
  .hidden _libcuda_so_save_regs_and_resolve
  .type _libcuda_so_save_regs_and_resolve, %function
_libcuda_so_save_regs_and_resolve:
  .cfi_startproc

  // Slow path which calls dlsym, taken only on first call.
  // Registers are saved according to "Procedure Call Standard for the Arm® 64-bit Architecture".
  // For DWARF directives, read https://www.imperialviolet.org/2017/01/18/cfi.html.

  // Stack is aligned at 16 bytes

#define PUSH_PAIR(reg1, reg2) stp reg1, reg2, [sp, #-16]!; .cfi_adjust_cfa_offset 16; .cfi_rel_offset reg1, 0; .cfi_rel_offset reg2, 8
#define POP_PAIR(reg1, reg2) ldp reg1, reg2, [sp], #16; .cfi_adjust_cfa_offset -16; .cfi_restore reg2; .cfi_restore reg1

#define PUSH_WIDE_PAIR(reg1, reg2) stp reg1, reg2, [sp, #-32]!; .cfi_adjust_cfa_offset 32; .cfi_rel_offset reg1, 0; .cfi_rel_offset reg2, 16
#define POP_WIDE_PAIR(reg1, reg2) ldp reg1, reg2, [sp], #32; .cfi_adjust_cfa_offset -32; .cfi_restore reg2; .cfi_restore reg1

  // Save only arguments (and lr)
  PUSH_PAIR(x0, x1)
  PUSH_PAIR(x2, x3)
  PUSH_PAIR(x4, x5)
  PUSH_PAIR(x6, x7)
  PUSH_PAIR(x8, lr)

  ldr x0, [sp, #80]  // 16*5

  PUSH_WIDE_PAIR(q0, q1)
  PUSH_WIDE_PAIR(q2, q3)
  PUSH_WIDE_PAIR(q4, q5)
  PUSH_WIDE_PAIR(q6, q7)

  // Stack is aligned at 16 bytes

  bl _libcuda_so_tramp_resolve
  mov ip0, x0

  // TODO: pop pc?

  POP_WIDE_PAIR(q6, q7)
  POP_WIDE_PAIR(q4, q5)
  POP_WIDE_PAIR(q2, q3)
  POP_WIDE_PAIR(q0, q1)

  POP_PAIR(x8, lr)
  POP_PAIR(x6, x7)
  POP_PAIR(x4, x5)
  POP_PAIR(x2, x3)
  POP_PAIR(x0, x1)

  br lr

  .cfi_endproc

/*
 * Copyright 2018-2025 Yury Gribov
 *
 * The MIT License (MIT)
 *
 * Use of this source code is governed by MIT license that can be
 * found in the LICENSE.txt file.
 */

  .globl cuArray3DCreate
  .p2align 4
  .type cuArray3DCreate, %function
#ifndef IMPLIB_EXPORT_SHIMS
  .hidden cuArray3DCreate
#endif
cuArray3DCreate:
  .cfi_startproc

1:
  // Load address
  // TODO: can we do this faster on newer ARMs?
  adrp ip0, _libcuda_so_tramp_table+0
  ldr ip0, [ip0, #:lo12:_libcuda_so_tramp_table+0]
 
  cbz ip0, 2f

  // Fast path
  br ip0

2:
  // Slow path
  mov ip0, 0 & 0xffff
#if 0 > 0xffff
  movk ip0, 0 >> 16, lsl #16
#endif
  stp ip0, lr, [sp, #-16]!; .cfi_adjust_cfa_offset 16; .cfi_rel_offset lr, 8
  bl _libcuda_so_save_regs_and_resolve
  ldp xzr, lr, [sp], #16; .cfi_adjust_cfa_offset -16; .cfi_restore lr
  br ip0
  .cfi_endproc

/*
 * Copyright 2018-2025 Yury Gribov
 *
 * The MIT License (MIT)
 *
 * Use of this source code is governed by MIT license that can be
 * found in the LICENSE.txt file.
 */

  .globl cuArray3DCreate_v2
  .p2align 4
  .type cuArray3DCreate_v2, %function
#ifndef IMPLIB_EXPORT_SHIMS
  .hidden cuArray3DCreate_v2
#endif
cuArray3DCreate_v2:
  .cfi_startproc

1:
  // Load address
  // TODO: can we do this faster on newer ARMs?
  adrp ip0, _libcuda_so_tramp_table+8
  ldr ip0, [ip0, #:lo12:_libcuda_so_tramp_table+8]
 
  cbz ip0, 2f

  // Fast path
  br ip0

2:
  // Slow path
  mov ip0, 1 & 0xffff
#if 1 > 0xffff
  movk ip0, 1 >> 16, lsl #16
#endif
  stp ip0, lr, [sp, #-16]!; .cfi_adjust_cfa_offset 16; .cfi_rel_offset lr, 8
  bl _libcuda_so_save_regs_and_resolve
  ldp xzr, lr, [sp], #16; .cfi_adjust_cfa_offset -16; .cfi_restore lr
  br ip0
  .cfi_endproc

/*
 * Copyright 2018-2025 Yury Gribov
 *
 * The MIT License (MIT)
 *
 * Use of this source code is governed by MIT license that can be
 * found in the LICENSE.txt file.
 */

  .globl cuArray3DGetDescriptor
  .p2align 4
  .type cuArray3DGetDescriptor, %function
#ifndef IMPLIB_EXPORT_SHIMS
  .hidden cuArray3DGetDescriptor
#endif
cuArray3DGetDescriptor:
  .cfi_startproc

1:
  // Load address
  // TODO: can we do this faster on newer ARMs?
  adrp ip0, _libcuda_so_tramp_table+16
  ldr ip0, [ip0, #:lo12:_libcuda_so_tramp_table+16]
 
  cbz ip0, 2f

  // Fast path
  br ip0

2:
  // Slow path
  mov ip0, 2 & 0xffff
#if 2 > 0xffff
  movk ip0, 2 >> 16, lsl #16
#endif
  stp ip0, lr, [sp, #-16]!; .cfi_adjust_cfa_offset 16; .cfi_rel_offset lr, 8
  bl _libcuda_so_save_regs_and_resolve
  ldp xzr, lr, [sp], #16; .cfi_adjust_cfa_offset -16; .cfi_restore lr
  br ip0
  .cfi_endproc

/*
 * Copyright 2018-2025 Yury Gribov
 *
 * The MIT License (MIT)
 *
 * Use of this source code is governed by MIT license that can be
 * found in the LICENSE.txt file.
 */

  .globl cuArray3DGetDescriptor_v2
  .p2align 4
  .type cuArray3DGetDescriptor_v2, %function
#ifndef IMPLIB_EXPORT_SHIMS
  .hidden cuArray3DGetDescriptor_v2
#endif
cuArray3DGetDescriptor_v2:
  .cfi_startproc

1:
  // Load address
  // TODO: can we do this faster on newer ARMs?
  adrp ip0, _libcuda_so_tramp_table+24
  ldr ip0, [ip0, #:lo12:_libcuda_so_tramp_table+24]
 
  cbz ip0, 2f

  // Fast path
  br ip0

2:
  // Slow path
  mov ip0, 3 & 0xffff
#if 3 > 0xffff
  movk ip0, 3 >> 16, lsl #16
#endif
  stp ip0, lr, [sp, #-16]!; .cfi_adjust_cfa_offset 16; .cfi_rel_offset lr, 8
  bl _libcuda_so_save_regs_and_resolve
  ldp xzr, lr, [sp], #16; .cfi_adjust_cfa_offset -16; .cfi_restore lr
  br ip0
  .cfi_endproc

/*
 * Copyright 2018-2025 Yury Gribov
 *
 * The MIT License (MIT)
 *
 * Use of this source code is governed by MIT license that can be
 * found in the LICENSE.txt file.
 */

  .globl cuArrayCreate
  .p2align 4
  .type cuArrayCreate, %function
#ifndef IMPLIB_EXPORT_SHIMS
  .hidden cuArrayCreate
#endif
cuArrayCreate:
  .cfi_startproc

1:
  // Load address
  // TODO: can we do this faster on newer ARMs?
  adrp ip0, _libcuda_so_tramp_table+32
  ldr ip0, [ip0, #:lo12:_libcuda_so_tramp_table+32]
 
  cbz ip0, 2f

  // Fast path
  br ip0

2:
  // Slow path
  mov ip0, 4 & 0xffff
#if 4 > 0xffff
  movk ip0, 4 >> 16, lsl #16
#endif
  stp ip0, lr, [sp, #-16]!; .cfi_adjust_cfa_offset 16; .cfi_rel_offset lr, 8
  bl _libcuda_so_save_regs_and_resolve
  ldp xzr, lr, [sp], #16; .cfi_adjust_cfa_offset -16; .cfi_restore lr
  br ip0
  .cfi_endproc

/*
 * Copyright 2018-2025 Yury Gribov
 *
 * The MIT License (MIT)
 *
 * Use of this source code is governed by MIT license that can be
 * found in the LICENSE.txt file.
 */

  .globl cuArrayCreate_v2
  .p2align 4
  .type cuArrayCreate_v2, %function
#ifndef IMPLIB_EXPORT_SHIMS
  .hidden cuArrayCreate_v2
#endif
cuArrayCreate_v2:
  .cfi_startproc

1:
  // Load address
  // TODO: can we do this faster on newer ARMs?
  adrp ip0, _libcuda_so_tramp_table+40
  ldr ip0, [ip0, #:lo12:_libcuda_so_tramp_table+40]
 
  cbz ip0, 2f

  // Fast path
  br ip0

2:
  // Slow path
  mov ip0, 5 & 0xffff
#if 5 > 0xffff
  movk ip0, 5 >> 16, lsl #16
#endif
  stp ip0, lr, [sp, #-16]!; .cfi_adjust_cfa_offset 16; .cfi_rel_offset lr, 8
  bl _libcuda_so_save_regs_and_resolve
  ldp xzr, lr, [sp], #16; .cfi_adjust_cfa_offset -16; .cfi_restore lr
  br ip0
  .cfi_endproc

/*
 * Copyright 2018-2025 Yury Gribov
 *
 * The MIT License (MIT)
 *
 * Use of this source code is governed by MIT license that can be
 * found in the LICENSE.txt file.
 */

  .globl cuArrayDestroy
  .p2align 4
  .type cuArrayDestroy, %function
#ifndef IMPLIB_EXPORT_SHIMS
  .hidden cuArrayDestroy
#endif
cuArrayDestroy:
  .cfi_startproc

1:
  // Load address
  // TODO: can we do this faster on newer ARMs?
  adrp ip0, _libcuda_so_tramp_table+48
  ldr ip0, [ip0, #:lo12:_libcuda_so_tramp_table+48]
 
  cbz ip0, 2f

  // Fast path
  br ip0

2:
  // Slow path
  mov ip0, 6 & 0xffff
#if 6 > 0xffff
  movk ip0, 6 >> 16, lsl #16
#endif
  stp ip0, lr, [sp, #-16]!; .cfi_adjust_cfa_offset 16; .cfi_rel_offset lr, 8
  bl _libcuda_so_save_regs_and_resolve
  ldp xzr, lr, [sp], #16; .cfi_adjust_cfa_offset -16; .cfi_restore lr
  br ip0
  .cfi_endproc

/*
 * Copyright 2018-2025 Yury Gribov
 *
 * The MIT License (MIT)
 *
 * Use of this source code is governed by MIT license that can be
 * found in the LICENSE.txt file.
 */

  .globl cuArrayGetDescriptor
  .p2align 4
  .type cuArrayGetDescriptor, %function
#ifndef IMPLIB_EXPORT_SHIMS
  .hidden cuArrayGetDescriptor
#endif
cuArrayGetDescriptor:
  .cfi_startproc

1:
  // Load address
  // TODO: can we do this faster on newer ARMs?
  adrp ip0, _libcuda_so_tramp_table+56
  ldr ip0, [ip0, #:lo12:_libcuda_so_tramp_table+56]
 
  cbz ip0, 2f

  // Fast path
  br ip0

2:
  // Slow path
  mov ip0, 7 & 0xffff
#if 7 > 0xffff
  movk ip0, 7 >> 16, lsl #16
#endif
  stp ip0, lr, [sp, #-16]!; .cfi_adjust_cfa_offset 16; .cfi_rel_offset lr, 8
  bl _libcuda_so_save_regs_and_resolve
  ldp xzr, lr, [sp], #16; .cfi_adjust_cfa_offset -16; .cfi_restore lr
  br ip0
  .cfi_endproc

/*
 * Copyright 2018-2025 Yury Gribov
 *
 * The MIT License (MIT)
 *
 * Use of this source code is governed by MIT license that can be
 * found in the LICENSE.txt file.
 */

  .globl cuArrayGetDescriptor_v2
  .p2align 4
  .type cuArrayGetDescriptor_v2, %function
#ifndef IMPLIB_EXPORT_SHIMS
  .hidden cuArrayGetDescriptor_v2
#endif
cuArrayGetDescriptor_v2:
  .cfi_startproc

1:
  // Load address
  // TODO: can we do this faster on newer ARMs?
  adrp ip0, _libcuda_so_tramp_table+64
  ldr ip0, [ip0, #:lo12:_libcuda_so_tramp_table+64]
 
  cbz ip0, 2f

  // Fast path
  br ip0

2:
  // Slow path
  mov ip0, 8 & 0xffff
#if 8 > 0xffff
  movk ip0, 8 >> 16, lsl #16
#endif
  stp ip0, lr, [sp, #-16]!; .cfi_adjust_cfa_offset 16; .cfi_rel_offset lr, 8
  bl _libcuda_so_save_regs_and_resolve
  ldp xzr, lr, [sp], #16; .cfi_adjust_cfa_offset -16; .cfi_restore lr
  br ip0
  .cfi_endproc

/*
 * Copyright 2018-2025 Yury Gribov
 *
 * The MIT License (MIT)
 *
 * Use of this source code is governed by MIT license that can be
 * found in the LICENSE.txt file.
 */

  .globl cuArrayGetMemoryRequirements
  .p2align 4
  .type cuArrayGetMemoryRequirements, %function
#ifndef IMPLIB_EXPORT_SHIMS
  .hidden cuArrayGetMemoryRequirements
#endif
cuArrayGetMemoryRequirements:
  .cfi_startproc

1:
  // Load address
  // TODO: can we do this faster on newer ARMs?
  adrp ip0, _libcuda_so_tramp_table+72
  ldr ip0, [ip0, #:lo12:_libcuda_so_tramp_table+72]
 
  cbz ip0, 2f

  // Fast path
  br ip0

2:
  // Slow path
  mov ip0, 9 & 0xffff
#if 9 > 0xffff
  movk ip0, 9 >> 16, lsl #16
#endif
  stp ip0, lr, [sp, #-16]!; .cfi_adjust_cfa_offset 16; .cfi_rel_offset lr, 8
  bl _libcuda_so_save_regs_and_resolve
  ldp xzr, lr, [sp], #16; .cfi_adjust_cfa_offset -16; .cfi_restore lr
  br ip0
  .cfi_endproc

/*
 * Copyright 2018-2025 Yury Gribov
 *
 * The MIT License (MIT)
 *
 * Use of this source code is governed by MIT license that can be
 * found in the LICENSE.txt file.
 */

  .globl cuArrayGetPlane
  .p2align 4
  .type cuArrayGetPlane, %function
#ifndef IMPLIB_EXPORT_SHIMS
  .hidden cuArrayGetPlane
#endif
cuArrayGetPlane:
  .cfi_startproc

1:
  // Load address
  // TODO: can we do this faster on newer ARMs?
  adrp ip0, _libcuda_so_tramp_table+80
  ldr ip0, [ip0, #:lo12:_libcuda_so_tramp_table+80]
 
  cbz ip0, 2f

  // Fast path
  br ip0

2:
  // Slow path
  mov ip0, 10 & 0xffff
#if 10 > 0xffff
  movk ip0, 10 >> 16, lsl #16
#endif
  stp ip0, lr, [sp, #-16]!; .cfi_adjust_cfa_offset 16; .cfi_rel_offset lr, 8
  bl _libcuda_so_save_regs_and_resolve
  ldp xzr, lr, [sp], #16; .cfi_adjust_cfa_offset -16; .cfi_restore lr
  br ip0
  .cfi_endproc

/*
 * Copyright 2018-2025 Yury Gribov
 *
 * The MIT License (MIT)
 *
 * Use of this source code is governed by MIT license that can be
 * found in the LICENSE.txt file.
 */

  .globl cuArrayGetSparseProperties
  .p2align 4
  .type cuArrayGetSparseProperties, %function
#ifndef IMPLIB_EXPORT_SHIMS
  .hidden cuArrayGetSparseProperties
#endif
cuArrayGetSparseProperties:
  .cfi_startproc

1:
  // Load address
  // TODO: can we do this faster on newer ARMs?
  adrp ip0, _libcuda_so_tramp_table+88
  ldr ip0, [ip0, #:lo12:_libcuda_so_tramp_table+88]
 
  cbz ip0, 2f

  // Fast path
  br ip0

2:
  // Slow path
  mov ip0, 11 & 0xffff
#if 11 > 0xffff
  movk ip0, 11 >> 16, lsl #16
#endif
  stp ip0, lr, [sp, #-16]!; .cfi_adjust_cfa_offset 16; .cfi_rel_offset lr, 8
  bl _libcuda_so_save_regs_and_resolve
  ldp xzr, lr, [sp], #16; .cfi_adjust_cfa_offset -16; .cfi_restore lr
  br ip0
  .cfi_endproc

/*
 * Copyright 2018-2025 Yury Gribov
 *
 * The MIT License (MIT)
 *
 * Use of this source code is governed by MIT license that can be
 * found in the LICENSE.txt file.
 */

  .globl cuCheckpointProcessCheckpoint
  .p2align 4
  .type cuCheckpointProcessCheckpoint, %function
#ifndef IMPLIB_EXPORT_SHIMS
  .hidden cuCheckpointProcessCheckpoint
#endif
cuCheckpointProcessCheckpoint:
  .cfi_startproc

1:
  // Load address
  // TODO: can we do this faster on newer ARMs?
  adrp ip0, _libcuda_so_tramp_table+96
  ldr ip0, [ip0, #:lo12:_libcuda_so_tramp_table+96]
 
  cbz ip0, 2f

  // Fast path
  br ip0

2:
  // Slow path
  mov ip0, 12 & 0xffff
#if 12 > 0xffff
  movk ip0, 12 >> 16, lsl #16
#endif
  stp ip0, lr, [sp, #-16]!; .cfi_adjust_cfa_offset 16; .cfi_rel_offset lr, 8
  bl _libcuda_so_save_regs_and_resolve
  ldp xzr, lr, [sp], #16; .cfi_adjust_cfa_offset -16; .cfi_restore lr
  br ip0
  .cfi_endproc

/*
 * Copyright 2018-2025 Yury Gribov
 *
 * The MIT License (MIT)
 *
 * Use of this source code is governed by MIT license that can be
 * found in the LICENSE.txt file.
 */

  .globl cuCheckpointProcessGetRestoreThreadId
  .p2align 4
  .type cuCheckpointProcessGetRestoreThreadId, %function
#ifndef IMPLIB_EXPORT_SHIMS
  .hidden cuCheckpointProcessGetRestoreThreadId
#endif
cuCheckpointProcessGetRestoreThreadId:
  .cfi_startproc

1:
  // Load address
  // TODO: can we do this faster on newer ARMs?
  adrp ip0, _libcuda_so_tramp_table+104
  ldr ip0, [ip0, #:lo12:_libcuda_so_tramp_table+104]
 
  cbz ip0, 2f

  // Fast path
  br ip0

2:
  // Slow path
  mov ip0, 13 & 0xffff
#if 13 > 0xffff
  movk ip0, 13 >> 16, lsl #16
#endif
  stp ip0, lr, [sp, #-16]!; .cfi_adjust_cfa_offset 16; .cfi_rel_offset lr, 8
  bl _libcuda_so_save_regs_and_resolve
  ldp xzr, lr, [sp], #16; .cfi_adjust_cfa_offset -16; .cfi_restore lr
  br ip0
  .cfi_endproc

/*
 * Copyright 2018-2025 Yury Gribov
 *
 * The MIT License (MIT)
 *
 * Use of this source code is governed by MIT license that can be
 * found in the LICENSE.txt file.
 */

  .globl cuCheckpointProcessGetState
  .p2align 4
  .type cuCheckpointProcessGetState, %function
#ifndef IMPLIB_EXPORT_SHIMS
  .hidden cuCheckpointProcessGetState
#endif
cuCheckpointProcessGetState:
  .cfi_startproc

1:
  // Load address
  // TODO: can we do this faster on newer ARMs?
  adrp ip0, _libcuda_so_tramp_table+112
  ldr ip0, [ip0, #:lo12:_libcuda_so_tramp_table+112]
 
  cbz ip0, 2f

  // Fast path
  br ip0

2:
  // Slow path
  mov ip0, 14 & 0xffff
#if 14 > 0xffff
  movk ip0, 14 >> 16, lsl #16
#endif
  stp ip0, lr, [sp, #-16]!; .cfi_adjust_cfa_offset 16; .cfi_rel_offset lr, 8
  bl _libcuda_so_save_regs_and_resolve
  ldp xzr, lr, [sp], #16; .cfi_adjust_cfa_offset -16; .cfi_restore lr
  br ip0
  .cfi_endproc

/*
 * Copyright 2018-2025 Yury Gribov
 *
 * The MIT License (MIT)
 *
 * Use of this source code is governed by MIT license that can be
 * found in the LICENSE.txt file.
 */

  .globl cuCheckpointProcessLock
  .p2align 4
  .type cuCheckpointProcessLock, %function
#ifndef IMPLIB_EXPORT_SHIMS
  .hidden cuCheckpointProcessLock
#endif
cuCheckpointProcessLock:
  .cfi_startproc

1:
  // Load address
  // TODO: can we do this faster on newer ARMs?
  adrp ip0, _libcuda_so_tramp_table+120
  ldr ip0, [ip0, #:lo12:_libcuda_so_tramp_table+120]
 
  cbz ip0, 2f

  // Fast path
  br ip0

2:
  // Slow path
  mov ip0, 15 & 0xffff
#if 15 > 0xffff
  movk ip0, 15 >> 16, lsl #16
#endif
  stp ip0, lr, [sp, #-16]!; .cfi_adjust_cfa_offset 16; .cfi_rel_offset lr, 8
  bl _libcuda_so_save_regs_and_resolve
  ldp xzr, lr, [sp], #16; .cfi_adjust_cfa_offset -16; .cfi_restore lr
  br ip0
  .cfi_endproc

/*
 * Copyright 2018-2025 Yury Gribov
 *
 * The MIT License (MIT)
 *
 * Use of this source code is governed by MIT license that can be
 * found in the LICENSE.txt file.
 */

  .globl cuCheckpointProcessRestore
  .p2align 4
  .type cuCheckpointProcessRestore, %function
#ifndef IMPLIB_EXPORT_SHIMS
  .hidden cuCheckpointProcessRestore
#endif
cuCheckpointProcessRestore:
  .cfi_startproc

1:
  // Load address
  // TODO: can we do this faster on newer ARMs?
  adrp ip0, _libcuda_so_tramp_table+128
  ldr ip0, [ip0, #:lo12:_libcuda_so_tramp_table+128]
 
  cbz ip0, 2f

  // Fast path
  br ip0

2:
  // Slow path
  mov ip0, 16 & 0xffff
#if 16 > 0xffff
  movk ip0, 16 >> 16, lsl #16
#endif
  stp ip0, lr, [sp, #-16]!; .cfi_adjust_cfa_offset 16; .cfi_rel_offset lr, 8
  bl _libcuda_so_save_regs_and_resolve
  ldp xzr, lr, [sp], #16; .cfi_adjust_cfa_offset -16; .cfi_restore lr
  br ip0
  .cfi_endproc

/*
 * Copyright 2018-2025 Yury Gribov
 *
 * The MIT License (MIT)
 *
 * Use of this source code is governed by MIT license that can be
 * found in the LICENSE.txt file.
 */

  .globl cuCheckpointProcessUnlock
  .p2align 4
  .type cuCheckpointProcessUnlock, %function
#ifndef IMPLIB_EXPORT_SHIMS
  .hidden cuCheckpointProcessUnlock
#endif
cuCheckpointProcessUnlock:
  .cfi_startproc

1:
  // Load address
  // TODO: can we do this faster on newer ARMs?
  adrp ip0, _libcuda_so_tramp_table+136
  ldr ip0, [ip0, #:lo12:_libcuda_so_tramp_table+136]
 
  cbz ip0, 2f

  // Fast path
  br ip0

2:
  // Slow path
  mov ip0, 17 & 0xffff
#if 17 > 0xffff
  movk ip0, 17 >> 16, lsl #16
#endif
  stp ip0, lr, [sp, #-16]!; .cfi_adjust_cfa_offset 16; .cfi_rel_offset lr, 8
  bl _libcuda_so_save_regs_and_resolve
  ldp xzr, lr, [sp], #16; .cfi_adjust_cfa_offset -16; .cfi_restore lr
  br ip0
  .cfi_endproc

/*
 * Copyright 2018-2025 Yury Gribov
 *
 * The MIT License (MIT)
 *
 * Use of this source code is governed by MIT license that can be
 * found in the LICENSE.txt file.
 */

  .globl cuCoredumpGetAttribute
  .p2align 4
  .type cuCoredumpGetAttribute, %function
#ifndef IMPLIB_EXPORT_SHIMS
  .hidden cuCoredumpGetAttribute
#endif
cuCoredumpGetAttribute:
  .cfi_startproc

1:
  // Load address
  // TODO: can we do this faster on newer ARMs?
  adrp ip0, _libcuda_so_tramp_table+144
  ldr ip0, [ip0, #:lo12:_libcuda_so_tramp_table+144]
 
  cbz ip0, 2f

  // Fast path
  br ip0

2:
  // Slow path
  mov ip0, 18 & 0xffff
#if 18 > 0xffff
  movk ip0, 18 >> 16, lsl #16
#endif
  stp ip0, lr, [sp, #-16]!; .cfi_adjust_cfa_offset 16; .cfi_rel_offset lr, 8
  bl _libcuda_so_save_regs_and_resolve
  ldp xzr, lr, [sp], #16; .cfi_adjust_cfa_offset -16; .cfi_restore lr
  br ip0
  .cfi_endproc

/*
 * Copyright 2018-2025 Yury Gribov
 *
 * The MIT License (MIT)
 *
 * Use of this source code is governed by MIT license that can be
 * found in the LICENSE.txt file.
 */

  .globl cuCoredumpGetAttributeGlobal
  .p2align 4
  .type cuCoredumpGetAttributeGlobal, %function
#ifndef IMPLIB_EXPORT_SHIMS
  .hidden cuCoredumpGetAttributeGlobal
#endif
cuCoredumpGetAttributeGlobal:
  .cfi_startproc

1:
  // Load address
  // TODO: can we do this faster on newer ARMs?
  adrp ip0, _libcuda_so_tramp_table+152
  ldr ip0, [ip0, #:lo12:_libcuda_so_tramp_table+152]
 
  cbz ip0, 2f

  // Fast path
  br ip0

2:
  // Slow path
  mov ip0, 19 & 0xffff
#if 19 > 0xffff
  movk ip0, 19 >> 16, lsl #16
#endif
  stp ip0, lr, [sp, #-16]!; .cfi_adjust_cfa_offset 16; .cfi_rel_offset lr, 8
  bl _libcuda_so_save_regs_and_resolve
  ldp xzr, lr, [sp], #16; .cfi_adjust_cfa_offset -16; .cfi_restore lr
  br ip0
  .cfi_endproc

/*
 * Copyright 2018-2025 Yury Gribov
 *
 * The MIT License (MIT)
 *
 * Use of this source code is governed by MIT license that can be
 * found in the LICENSE.txt file.
 */

  .globl cuCoredumpSetAttribute
  .p2align 4
  .type cuCoredumpSetAttribute, %function
#ifndef IMPLIB_EXPORT_SHIMS
  .hidden cuCoredumpSetAttribute
#endif
cuCoredumpSetAttribute:
  .cfi_startproc

1:
  // Load address
  // TODO: can we do this faster on newer ARMs?
  adrp ip0, _libcuda_so_tramp_table+160
  ldr ip0, [ip0, #:lo12:_libcuda_so_tramp_table+160]
 
  cbz ip0, 2f

  // Fast path
  br ip0

2:
  // Slow path
  mov ip0, 20 & 0xffff
#if 20 > 0xffff
  movk ip0, 20 >> 16, lsl #16
#endif
  stp ip0, lr, [sp, #-16]!; .cfi_adjust_cfa_offset 16; .cfi_rel_offset lr, 8
  bl _libcuda_so_save_regs_and_resolve
  ldp xzr, lr, [sp], #16; .cfi_adjust_cfa_offset -16; .cfi_restore lr
  br ip0
  .cfi_endproc

/*
 * Copyright 2018-2025 Yury Gribov
 *
 * The MIT License (MIT)
 *
 * Use of this source code is governed by MIT license that can be
 * found in the LICENSE.txt file.
 */

  .globl cuCoredumpSetAttributeGlobal
  .p2align 4
  .type cuCoredumpSetAttributeGlobal, %function
#ifndef IMPLIB_EXPORT_SHIMS
  .hidden cuCoredumpSetAttributeGlobal
#endif
cuCoredumpSetAttributeGlobal:
  .cfi_startproc

1:
  // Load address
  // TODO: can we do this faster on newer ARMs?
  adrp ip0, _libcuda_so_tramp_table+168
  ldr ip0, [ip0, #:lo12:_libcuda_so_tramp_table+168]
 
  cbz ip0, 2f

  // Fast path
  br ip0

2:
  // Slow path
  mov ip0, 21 & 0xffff
#if 21 > 0xffff
  movk ip0, 21 >> 16, lsl #16
#endif
  stp ip0, lr, [sp, #-16]!; .cfi_adjust_cfa_offset 16; .cfi_rel_offset lr, 8
  bl _libcuda_so_save_regs_and_resolve
  ldp xzr, lr, [sp], #16; .cfi_adjust_cfa_offset -16; .cfi_restore lr
  br ip0
  .cfi_endproc

/*
 * Copyright 2018-2025 Yury Gribov
 *
 * The MIT License (MIT)
 *
 * Use of this source code is governed by MIT license that can be
 * found in the LICENSE.txt file.
 */

  .globl cuCtxAttach
  .p2align 4
  .type cuCtxAttach, %function
#ifndef IMPLIB_EXPORT_SHIMS
  .hidden cuCtxAttach
#endif
cuCtxAttach:
  .cfi_startproc

1:
  // Load address
  // TODO: can we do this faster on newer ARMs?
  adrp ip0, _libcuda_so_tramp_table+176
  ldr ip0, [ip0, #:lo12:_libcuda_so_tramp_table+176]
 
  cbz ip0, 2f

  // Fast path
  br ip0

2:
  // Slow path
  mov ip0, 22 & 0xffff
#if 22 > 0xffff
  movk ip0, 22 >> 16, lsl #16
#endif
  stp ip0, lr, [sp, #-16]!; .cfi_adjust_cfa_offset 16; .cfi_rel_offset lr, 8
  bl _libcuda_so_save_regs_and_resolve
  ldp xzr, lr, [sp], #16; .cfi_adjust_cfa_offset -16; .cfi_restore lr
  br ip0
  .cfi_endproc

/*
 * Copyright 2018-2025 Yury Gribov
 *
 * The MIT License (MIT)
 *
 * Use of this source code is governed by MIT license that can be
 * found in the LICENSE.txt file.
 */

  .globl cuCtxCreate
  .p2align 4
  .type cuCtxCreate, %function
#ifndef IMPLIB_EXPORT_SHIMS
  .hidden cuCtxCreate
#endif
cuCtxCreate:
  .cfi_startproc

1:
  // Load address
  // TODO: can we do this faster on newer ARMs?
  adrp ip0, _libcuda_so_tramp_table+184
  ldr ip0, [ip0, #:lo12:_libcuda_so_tramp_table+184]
 
  cbz ip0, 2f

  // Fast path
  br ip0

2:
  // Slow path
  mov ip0, 23 & 0xffff
#if 23 > 0xffff
  movk ip0, 23 >> 16, lsl #16
#endif
  stp ip0, lr, [sp, #-16]!; .cfi_adjust_cfa_offset 16; .cfi_rel_offset lr, 8
  bl _libcuda_so_save_regs_and_resolve
  ldp xzr, lr, [sp], #16; .cfi_adjust_cfa_offset -16; .cfi_restore lr
  br ip0
  .cfi_endproc

/*
 * Copyright 2018-2025 Yury Gribov
 *
 * The MIT License (MIT)
 *
 * Use of this source code is governed by MIT license that can be
 * found in the LICENSE.txt file.
 */

  .globl cuCtxCreate_v2
  .p2align 4
  .type cuCtxCreate_v2, %function
#ifndef IMPLIB_EXPORT_SHIMS
  .hidden cuCtxCreate_v2
#endif
cuCtxCreate_v2:
  .cfi_startproc

1:
  // Load address
  // TODO: can we do this faster on newer ARMs?
  adrp ip0, _libcuda_so_tramp_table+192
  ldr ip0, [ip0, #:lo12:_libcuda_so_tramp_table+192]
 
  cbz ip0, 2f

  // Fast path
  br ip0

2:
  // Slow path
  mov ip0, 24 & 0xffff
#if 24 > 0xffff
  movk ip0, 24 >> 16, lsl #16
#endif
  stp ip0, lr, [sp, #-16]!; .cfi_adjust_cfa_offset 16; .cfi_rel_offset lr, 8
  bl _libcuda_so_save_regs_and_resolve
  ldp xzr, lr, [sp], #16; .cfi_adjust_cfa_offset -16; .cfi_restore lr
  br ip0
  .cfi_endproc

/*
 * Copyright 2018-2025 Yury Gribov
 *
 * The MIT License (MIT)
 *
 * Use of this source code is governed by MIT license that can be
 * found in the LICENSE.txt file.
 */

  .globl cuCtxCreate_v3
  .p2align 4
  .type cuCtxCreate_v3, %function
#ifndef IMPLIB_EXPORT_SHIMS
  .hidden cuCtxCreate_v3
#endif
cuCtxCreate_v3:
  .cfi_startproc

1:
  // Load address
  // TODO: can we do this faster on newer ARMs?
  adrp ip0, _libcuda_so_tramp_table+200
  ldr ip0, [ip0, #:lo12:_libcuda_so_tramp_table+200]
 
  cbz ip0, 2f

  // Fast path
  br ip0

2:
  // Slow path
  mov ip0, 25 & 0xffff
#if 25 > 0xffff
  movk ip0, 25 >> 16, lsl #16
#endif
  stp ip0, lr, [sp, #-16]!; .cfi_adjust_cfa_offset 16; .cfi_rel_offset lr, 8
  bl _libcuda_so_save_regs_and_resolve
  ldp xzr, lr, [sp], #16; .cfi_adjust_cfa_offset -16; .cfi_restore lr
  br ip0
  .cfi_endproc

/*
 * Copyright 2018-2025 Yury Gribov
 *
 * The MIT License (MIT)
 *
 * Use of this source code is governed by MIT license that can be
 * found in the LICENSE.txt file.
 */

  .globl cuCtxCreate_v4
  .p2align 4
  .type cuCtxCreate_v4, %function
#ifndef IMPLIB_EXPORT_SHIMS
  .hidden cuCtxCreate_v4
#endif
cuCtxCreate_v4:
  .cfi_startproc

1:
  // Load address
  // TODO: can we do this faster on newer ARMs?
  adrp ip0, _libcuda_so_tramp_table+208
  ldr ip0, [ip0, #:lo12:_libcuda_so_tramp_table+208]
 
  cbz ip0, 2f

  // Fast path
  br ip0

2:
  // Slow path
  mov ip0, 26 & 0xffff
#if 26 > 0xffff
  movk ip0, 26 >> 16, lsl #16
#endif
  stp ip0, lr, [sp, #-16]!; .cfi_adjust_cfa_offset 16; .cfi_rel_offset lr, 8
  bl _libcuda_so_save_regs_and_resolve
  ldp xzr, lr, [sp], #16; .cfi_adjust_cfa_offset -16; .cfi_restore lr
  br ip0
  .cfi_endproc

/*
 * Copyright 2018-2025 Yury Gribov
 *
 * The MIT License (MIT)
 *
 * Use of this source code is governed by MIT license that can be
 * found in the LICENSE.txt file.
 */

  .globl cuCtxDestroy
  .p2align 4
  .type cuCtxDestroy, %function
#ifndef IMPLIB_EXPORT_SHIMS
  .hidden cuCtxDestroy
#endif
cuCtxDestroy:
  .cfi_startproc

1:
  // Load address
  // TODO: can we do this faster on newer ARMs?
  adrp ip0, _libcuda_so_tramp_table+216
  ldr ip0, [ip0, #:lo12:_libcuda_so_tramp_table+216]
 
  cbz ip0, 2f

  // Fast path
  br ip0

2:
  // Slow path
  mov ip0, 27 & 0xffff
#if 27 > 0xffff
  movk ip0, 27 >> 16, lsl #16
#endif
  stp ip0, lr, [sp, #-16]!; .cfi_adjust_cfa_offset 16; .cfi_rel_offset lr, 8
  bl _libcuda_so_save_regs_and_resolve
  ldp xzr, lr, [sp], #16; .cfi_adjust_cfa_offset -16; .cfi_restore lr
  br ip0
  .cfi_endproc

/*
 * Copyright 2018-2025 Yury Gribov
 *
 * The MIT License (MIT)
 *
 * Use of this source code is governed by MIT license that can be
 * found in the LICENSE.txt file.
 */

  .globl cuCtxDestroy_v2
  .p2align 4
  .type cuCtxDestroy_v2, %function
#ifndef IMPLIB_EXPORT_SHIMS
  .hidden cuCtxDestroy_v2
#endif
cuCtxDestroy_v2:
  .cfi_startproc

1:
  // Load address
  // TODO: can we do this faster on newer ARMs?
  adrp ip0, _libcuda_so_tramp_table+224
  ldr ip0, [ip0, #:lo12:_libcuda_so_tramp_table+224]
 
  cbz ip0, 2f

  // Fast path
  br ip0

2:
  // Slow path
  mov ip0, 28 & 0xffff
#if 28 > 0xffff
  movk ip0, 28 >> 16, lsl #16
#endif
  stp ip0, lr, [sp, #-16]!; .cfi_adjust_cfa_offset 16; .cfi_rel_offset lr, 8
  bl _libcuda_so_save_regs_and_resolve
  ldp xzr, lr, [sp], #16; .cfi_adjust_cfa_offset -16; .cfi_restore lr
  br ip0
  .cfi_endproc

/*
 * Copyright 2018-2025 Yury Gribov
 *
 * The MIT License (MIT)
 *
 * Use of this source code is governed by MIT license that can be
 * found in the LICENSE.txt file.
 */

  .globl cuCtxDetach
  .p2align 4
  .type cuCtxDetach, %function
#ifndef IMPLIB_EXPORT_SHIMS
  .hidden cuCtxDetach
#endif
cuCtxDetach:
  .cfi_startproc

1:
  // Load address
  // TODO: can we do this faster on newer ARMs?
  adrp ip0, _libcuda_so_tramp_table+232
  ldr ip0, [ip0, #:lo12:_libcuda_so_tramp_table+232]
 
  cbz ip0, 2f

  // Fast path
  br ip0

2:
  // Slow path
  mov ip0, 29 & 0xffff
#if 29 > 0xffff
  movk ip0, 29 >> 16, lsl #16
#endif
  stp ip0, lr, [sp, #-16]!; .cfi_adjust_cfa_offset 16; .cfi_rel_offset lr, 8
  bl _libcuda_so_save_regs_and_resolve
  ldp xzr, lr, [sp], #16; .cfi_adjust_cfa_offset -16; .cfi_restore lr
  br ip0
  .cfi_endproc

/*
 * Copyright 2018-2025 Yury Gribov
 *
 * The MIT License (MIT)
 *
 * Use of this source code is governed by MIT license that can be
 * found in the LICENSE.txt file.
 */

  .globl cuCtxDisablePeerAccess
  .p2align 4
  .type cuCtxDisablePeerAccess, %function
#ifndef IMPLIB_EXPORT_SHIMS
  .hidden cuCtxDisablePeerAccess
#endif
cuCtxDisablePeerAccess:
  .cfi_startproc

1:
  // Load address
  // TODO: can we do this faster on newer ARMs?
  adrp ip0, _libcuda_so_tramp_table+240
  ldr ip0, [ip0, #:lo12:_libcuda_so_tramp_table+240]
 
  cbz ip0, 2f

  // Fast path
  br ip0

2:
  // Slow path
  mov ip0, 30 & 0xffff
#if 30 > 0xffff
  movk ip0, 30 >> 16, lsl #16
#endif
  stp ip0, lr, [sp, #-16]!; .cfi_adjust_cfa_offset 16; .cfi_rel_offset lr, 8
  bl _libcuda_so_save_regs_and_resolve
  ldp xzr, lr, [sp], #16; .cfi_adjust_cfa_offset -16; .cfi_restore lr
  br ip0
  .cfi_endproc

/*
 * Copyright 2018-2025 Yury Gribov
 *
 * The MIT License (MIT)
 *
 * Use of this source code is governed by MIT license that can be
 * found in the LICENSE.txt file.
 */

  .globl cuCtxEnablePeerAccess
  .p2align 4
  .type cuCtxEnablePeerAccess, %function
#ifndef IMPLIB_EXPORT_SHIMS
  .hidden cuCtxEnablePeerAccess
#endif
cuCtxEnablePeerAccess:
  .cfi_startproc

1:
  // Load address
  // TODO: can we do this faster on newer ARMs?
  adrp ip0, _libcuda_so_tramp_table+248
  ldr ip0, [ip0, #:lo12:_libcuda_so_tramp_table+248]
 
  cbz ip0, 2f

  // Fast path
  br ip0

2:
  // Slow path
  mov ip0, 31 & 0xffff
#if 31 > 0xffff
  movk ip0, 31 >> 16, lsl #16
#endif
  stp ip0, lr, [sp, #-16]!; .cfi_adjust_cfa_offset 16; .cfi_rel_offset lr, 8
  bl _libcuda_so_save_regs_and_resolve
  ldp xzr, lr, [sp], #16; .cfi_adjust_cfa_offset -16; .cfi_restore lr
  br ip0
  .cfi_endproc

/*
 * Copyright 2018-2025 Yury Gribov
 *
 * The MIT License (MIT)
 *
 * Use of this source code is governed by MIT license that can be
 * found in the LICENSE.txt file.
 */

  .globl cuCtxFromGreenCtx
  .p2align 4
  .type cuCtxFromGreenCtx, %function
#ifndef IMPLIB_EXPORT_SHIMS
  .hidden cuCtxFromGreenCtx
#endif
cuCtxFromGreenCtx:
  .cfi_startproc

1:
  // Load address
  // TODO: can we do this faster on newer ARMs?
  adrp ip0, _libcuda_so_tramp_table+256
  ldr ip0, [ip0, #:lo12:_libcuda_so_tramp_table+256]
 
  cbz ip0, 2f

  // Fast path
  br ip0

2:
  // Slow path
  mov ip0, 32 & 0xffff
#if 32 > 0xffff
  movk ip0, 32 >> 16, lsl #16
#endif
  stp ip0, lr, [sp, #-16]!; .cfi_adjust_cfa_offset 16; .cfi_rel_offset lr, 8
  bl _libcuda_so_save_regs_and_resolve
  ldp xzr, lr, [sp], #16; .cfi_adjust_cfa_offset -16; .cfi_restore lr
  br ip0
  .cfi_endproc

/*
 * Copyright 2018-2025 Yury Gribov
 *
 * The MIT License (MIT)
 *
 * Use of this source code is governed by MIT license that can be
 * found in the LICENSE.txt file.
 */

  .globl cuCtxGetApiVersion
  .p2align 4
  .type cuCtxGetApiVersion, %function
#ifndef IMPLIB_EXPORT_SHIMS
  .hidden cuCtxGetApiVersion
#endif
cuCtxGetApiVersion:
  .cfi_startproc

1:
  // Load address
  // TODO: can we do this faster on newer ARMs?
  adrp ip0, _libcuda_so_tramp_table+264
  ldr ip0, [ip0, #:lo12:_libcuda_so_tramp_table+264]
 
  cbz ip0, 2f

  // Fast path
  br ip0

2:
  // Slow path
  mov ip0, 33 & 0xffff
#if 33 > 0xffff
  movk ip0, 33 >> 16, lsl #16
#endif
  stp ip0, lr, [sp, #-16]!; .cfi_adjust_cfa_offset 16; .cfi_rel_offset lr, 8
  bl _libcuda_so_save_regs_and_resolve
  ldp xzr, lr, [sp], #16; .cfi_adjust_cfa_offset -16; .cfi_restore lr
  br ip0
  .cfi_endproc

/*
 * Copyright 2018-2025 Yury Gribov
 *
 * The MIT License (MIT)
 *
 * Use of this source code is governed by MIT license that can be
 * found in the LICENSE.txt file.
 */

  .globl cuCtxGetCacheConfig
  .p2align 4
  .type cuCtxGetCacheConfig, %function
#ifndef IMPLIB_EXPORT_SHIMS
  .hidden cuCtxGetCacheConfig
#endif
cuCtxGetCacheConfig:
  .cfi_startproc

1:
  // Load address
  // TODO: can we do this faster on newer ARMs?
  adrp ip0, _libcuda_so_tramp_table+272
  ldr ip0, [ip0, #:lo12:_libcuda_so_tramp_table+272]
 
  cbz ip0, 2f

  // Fast path
  br ip0

2:
  // Slow path
  mov ip0, 34 & 0xffff
#if 34 > 0xffff
  movk ip0, 34 >> 16, lsl #16
#endif
  stp ip0, lr, [sp, #-16]!; .cfi_adjust_cfa_offset 16; .cfi_rel_offset lr, 8
  bl _libcuda_so_save_regs_and_resolve
  ldp xzr, lr, [sp], #16; .cfi_adjust_cfa_offset -16; .cfi_restore lr
  br ip0
  .cfi_endproc

/*
 * Copyright 2018-2025 Yury Gribov
 *
 * The MIT License (MIT)
 *
 * Use of this source code is governed by MIT license that can be
 * found in the LICENSE.txt file.
 */

  .globl cuCtxGetCurrent
  .p2align 4
  .type cuCtxGetCurrent, %function
#ifndef IMPLIB_EXPORT_SHIMS
  .hidden cuCtxGetCurrent
#endif
cuCtxGetCurrent:
  .cfi_startproc

1:
  // Load address
  // TODO: can we do this faster on newer ARMs?
  adrp ip0, _libcuda_so_tramp_table+280
  ldr ip0, [ip0, #:lo12:_libcuda_so_tramp_table+280]
 
  cbz ip0, 2f

  // Fast path
  br ip0

2:
  // Slow path
  mov ip0, 35 & 0xffff
#if 35 > 0xffff
  movk ip0, 35 >> 16, lsl #16
#endif
  stp ip0, lr, [sp, #-16]!; .cfi_adjust_cfa_offset 16; .cfi_rel_offset lr, 8
  bl _libcuda_so_save_regs_and_resolve
  ldp xzr, lr, [sp], #16; .cfi_adjust_cfa_offset -16; .cfi_restore lr
  br ip0
  .cfi_endproc

/*
 * Copyright 2018-2025 Yury Gribov
 *
 * The MIT License (MIT)
 *
 * Use of this source code is governed by MIT license that can be
 * found in the LICENSE.txt file.
 */

  .globl cuCtxGetDevResource
  .p2align 4
  .type cuCtxGetDevResource, %function
#ifndef IMPLIB_EXPORT_SHIMS
  .hidden cuCtxGetDevResource
#endif
cuCtxGetDevResource:
  .cfi_startproc

1:
  // Load address
  // TODO: can we do this faster on newer ARMs?
  adrp ip0, _libcuda_so_tramp_table+288
  ldr ip0, [ip0, #:lo12:_libcuda_so_tramp_table+288]
 
  cbz ip0, 2f

  // Fast path
  br ip0

2:
  // Slow path
  mov ip0, 36 & 0xffff
#if 36 > 0xffff
  movk ip0, 36 >> 16, lsl #16
#endif
  stp ip0, lr, [sp, #-16]!; .cfi_adjust_cfa_offset 16; .cfi_rel_offset lr, 8
  bl _libcuda_so_save_regs_and_resolve
  ldp xzr, lr, [sp], #16; .cfi_adjust_cfa_offset -16; .cfi_restore lr
  br ip0
  .cfi_endproc

/*
 * Copyright 2018-2025 Yury Gribov
 *
 * The MIT License (MIT)
 *
 * Use of this source code is governed by MIT license that can be
 * found in the LICENSE.txt file.
 */

  .globl cuCtxGetDevice
  .p2align 4
  .type cuCtxGetDevice, %function
#ifndef IMPLIB_EXPORT_SHIMS
  .hidden cuCtxGetDevice
#endif
cuCtxGetDevice:
  .cfi_startproc

1:
  // Load address
  // TODO: can we do this faster on newer ARMs?
  adrp ip0, _libcuda_so_tramp_table+296
  ldr ip0, [ip0, #:lo12:_libcuda_so_tramp_table+296]
 
  cbz ip0, 2f

  // Fast path
  br ip0

2:
  // Slow path
  mov ip0, 37 & 0xffff
#if 37 > 0xffff
  movk ip0, 37 >> 16, lsl #16
#endif
  stp ip0, lr, [sp, #-16]!; .cfi_adjust_cfa_offset 16; .cfi_rel_offset lr, 8
  bl _libcuda_so_save_regs_and_resolve
  ldp xzr, lr, [sp], #16; .cfi_adjust_cfa_offset -16; .cfi_restore lr
  br ip0
  .cfi_endproc

/*
 * Copyright 2018-2025 Yury Gribov
 *
 * The MIT License (MIT)
 *
 * Use of this source code is governed by MIT license that can be
 * found in the LICENSE.txt file.
 */

  .globl cuCtxGetExecAffinity
  .p2align 4
  .type cuCtxGetExecAffinity, %function
#ifndef IMPLIB_EXPORT_SHIMS
  .hidden cuCtxGetExecAffinity
#endif
cuCtxGetExecAffinity:
  .cfi_startproc

1:
  // Load address
  // TODO: can we do this faster on newer ARMs?
  adrp ip0, _libcuda_so_tramp_table+304
  ldr ip0, [ip0, #:lo12:_libcuda_so_tramp_table+304]
 
  cbz ip0, 2f

  // Fast path
  br ip0

2:
  // Slow path
  mov ip0, 38 & 0xffff
#if 38 > 0xffff
  movk ip0, 38 >> 16, lsl #16
#endif
  stp ip0, lr, [sp, #-16]!; .cfi_adjust_cfa_offset 16; .cfi_rel_offset lr, 8
  bl _libcuda_so_save_regs_and_resolve
  ldp xzr, lr, [sp], #16; .cfi_adjust_cfa_offset -16; .cfi_restore lr
  br ip0
  .cfi_endproc

/*
 * Copyright 2018-2025 Yury Gribov
 *
 * The MIT License (MIT)
 *
 * Use of this source code is governed by MIT license that can be
 * found in the LICENSE.txt file.
 */

  .globl cuCtxGetFlags
  .p2align 4
  .type cuCtxGetFlags, %function
#ifndef IMPLIB_EXPORT_SHIMS
  .hidden cuCtxGetFlags
#endif
cuCtxGetFlags:
  .cfi_startproc

1:
  // Load address
  // TODO: can we do this faster on newer ARMs?
  adrp ip0, _libcuda_so_tramp_table+312
  ldr ip0, [ip0, #:lo12:_libcuda_so_tramp_table+312]
 
  cbz ip0, 2f

  // Fast path
  br ip0

2:
  // Slow path
  mov ip0, 39 & 0xffff
#if 39 > 0xffff
  movk ip0, 39 >> 16, lsl #16
#endif
  stp ip0, lr, [sp, #-16]!; .cfi_adjust_cfa_offset 16; .cfi_rel_offset lr, 8
  bl _libcuda_so_save_regs_and_resolve
  ldp xzr, lr, [sp], #16; .cfi_adjust_cfa_offset -16; .cfi_restore lr
  br ip0
  .cfi_endproc

/*
 * Copyright 2018-2025 Yury Gribov
 *
 * The MIT License (MIT)
 *
 * Use of this source code is governed by MIT license that can be
 * found in the LICENSE.txt file.
 */

  .globl cuCtxGetId
  .p2align 4
  .type cuCtxGetId, %function
#ifndef IMPLIB_EXPORT_SHIMS
  .hidden cuCtxGetId
#endif
cuCtxGetId:
  .cfi_startproc

1:
  // Load address
  // TODO: can we do this faster on newer ARMs?
  adrp ip0, _libcuda_so_tramp_table+320
  ldr ip0, [ip0, #:lo12:_libcuda_so_tramp_table+320]
 
  cbz ip0, 2f

  // Fast path
  br ip0

2:
  // Slow path
  mov ip0, 40 & 0xffff
#if 40 > 0xffff
  movk ip0, 40 >> 16, lsl #16
#endif
  stp ip0, lr, [sp, #-16]!; .cfi_adjust_cfa_offset 16; .cfi_rel_offset lr, 8
  bl _libcuda_so_save_regs_and_resolve
  ldp xzr, lr, [sp], #16; .cfi_adjust_cfa_offset -16; .cfi_restore lr
  br ip0
  .cfi_endproc

/*
 * Copyright 2018-2025 Yury Gribov
 *
 * The MIT License (MIT)
 *
 * Use of this source code is governed by MIT license that can be
 * found in the LICENSE.txt file.
 */

  .globl cuCtxGetLimit
  .p2align 4
  .type cuCtxGetLimit, %function
#ifndef IMPLIB_EXPORT_SHIMS
  .hidden cuCtxGetLimit
#endif
cuCtxGetLimit:
  .cfi_startproc

1:
  // Load address
  // TODO: can we do this faster on newer ARMs?
  adrp ip0, _libcuda_so_tramp_table+328
  ldr ip0, [ip0, #:lo12:_libcuda_so_tramp_table+328]
 
  cbz ip0, 2f

  // Fast path
  br ip0

2:
  // Slow path
  mov ip0, 41 & 0xffff
#if 41 > 0xffff
  movk ip0, 41 >> 16, lsl #16
#endif
  stp ip0, lr, [sp, #-16]!; .cfi_adjust_cfa_offset 16; .cfi_rel_offset lr, 8
  bl _libcuda_so_save_regs_and_resolve
  ldp xzr, lr, [sp], #16; .cfi_adjust_cfa_offset -16; .cfi_restore lr
  br ip0
  .cfi_endproc

/*
 * Copyright 2018-2025 Yury Gribov
 *
 * The MIT License (MIT)
 *
 * Use of this source code is governed by MIT license that can be
 * found in the LICENSE.txt file.
 */

  .globl cuCtxGetSharedMemConfig
  .p2align 4
  .type cuCtxGetSharedMemConfig, %function
#ifndef IMPLIB_EXPORT_SHIMS
  .hidden cuCtxGetSharedMemConfig
#endif
cuCtxGetSharedMemConfig:
  .cfi_startproc

1:
  // Load address
  // TODO: can we do this faster on newer ARMs?
  adrp ip0, _libcuda_so_tramp_table+336
  ldr ip0, [ip0, #:lo12:_libcuda_so_tramp_table+336]
 
  cbz ip0, 2f

  // Fast path
  br ip0

2:
  // Slow path
  mov ip0, 42 & 0xffff
#if 42 > 0xffff
  movk ip0, 42 >> 16, lsl #16
#endif
  stp ip0, lr, [sp, #-16]!; .cfi_adjust_cfa_offset 16; .cfi_rel_offset lr, 8
  bl _libcuda_so_save_regs_and_resolve
  ldp xzr, lr, [sp], #16; .cfi_adjust_cfa_offset -16; .cfi_restore lr
  br ip0
  .cfi_endproc

/*
 * Copyright 2018-2025 Yury Gribov
 *
 * The MIT License (MIT)
 *
 * Use of this source code is governed by MIT license that can be
 * found in the LICENSE.txt file.
 */

  .globl cuCtxGetStreamPriorityRange
  .p2align 4
  .type cuCtxGetStreamPriorityRange, %function
#ifndef IMPLIB_EXPORT_SHIMS
  .hidden cuCtxGetStreamPriorityRange
#endif
cuCtxGetStreamPriorityRange:
  .cfi_startproc

1:
  // Load address
  // TODO: can we do this faster on newer ARMs?
  adrp ip0, _libcuda_so_tramp_table+344
  ldr ip0, [ip0, #:lo12:_libcuda_so_tramp_table+344]
 
  cbz ip0, 2f

  // Fast path
  br ip0

2:
  // Slow path
  mov ip0, 43 & 0xffff
#if 43 > 0xffff
  movk ip0, 43 >> 16, lsl #16
#endif
  stp ip0, lr, [sp, #-16]!; .cfi_adjust_cfa_offset 16; .cfi_rel_offset lr, 8
  bl _libcuda_so_save_regs_and_resolve
  ldp xzr, lr, [sp], #16; .cfi_adjust_cfa_offset -16; .cfi_restore lr
  br ip0
  .cfi_endproc

/*
 * Copyright 2018-2025 Yury Gribov
 *
 * The MIT License (MIT)
 *
 * Use of this source code is governed by MIT license that can be
 * found in the LICENSE.txt file.
 */

  .globl cuCtxPopCurrent
  .p2align 4
  .type cuCtxPopCurrent, %function
#ifndef IMPLIB_EXPORT_SHIMS
  .hidden cuCtxPopCurrent
#endif
cuCtxPopCurrent:
  .cfi_startproc

1:
  // Load address
  // TODO: can we do this faster on newer ARMs?
  adrp ip0, _libcuda_so_tramp_table+352
  ldr ip0, [ip0, #:lo12:_libcuda_so_tramp_table+352]
 
  cbz ip0, 2f

  // Fast path
  br ip0

2:
  // Slow path
  mov ip0, 44 & 0xffff
#if 44 > 0xffff
  movk ip0, 44 >> 16, lsl #16
#endif
  stp ip0, lr, [sp, #-16]!; .cfi_adjust_cfa_offset 16; .cfi_rel_offset lr, 8
  bl _libcuda_so_save_regs_and_resolve
  ldp xzr, lr, [sp], #16; .cfi_adjust_cfa_offset -16; .cfi_restore lr
  br ip0
  .cfi_endproc

/*
 * Copyright 2018-2025 Yury Gribov
 *
 * The MIT License (MIT)
 *
 * Use of this source code is governed by MIT license that can be
 * found in the LICENSE.txt file.
 */

  .globl cuCtxPopCurrent_v2
  .p2align 4
  .type cuCtxPopCurrent_v2, %function
#ifndef IMPLIB_EXPORT_SHIMS
  .hidden cuCtxPopCurrent_v2
#endif
cuCtxPopCurrent_v2:
  .cfi_startproc

1:
  // Load address
  // TODO: can we do this faster on newer ARMs?
  adrp ip0, _libcuda_so_tramp_table+360
  ldr ip0, [ip0, #:lo12:_libcuda_so_tramp_table+360]
 
  cbz ip0, 2f

  // Fast path
  br ip0

2:
  // Slow path
  mov ip0, 45 & 0xffff
#if 45 > 0xffff
  movk ip0, 45 >> 16, lsl #16
#endif
  stp ip0, lr, [sp, #-16]!; .cfi_adjust_cfa_offset 16; .cfi_rel_offset lr, 8
  bl _libcuda_so_save_regs_and_resolve
  ldp xzr, lr, [sp], #16; .cfi_adjust_cfa_offset -16; .cfi_restore lr
  br ip0
  .cfi_endproc

/*
 * Copyright 2018-2025 Yury Gribov
 *
 * The MIT License (MIT)
 *
 * Use of this source code is governed by MIT license that can be
 * found in the LICENSE.txt file.
 */

  .globl cuCtxPushCurrent
  .p2align 4
  .type cuCtxPushCurrent, %function
#ifndef IMPLIB_EXPORT_SHIMS
  .hidden cuCtxPushCurrent
#endif
cuCtxPushCurrent:
  .cfi_startproc

1:
  // Load address
  // TODO: can we do this faster on newer ARMs?
  adrp ip0, _libcuda_so_tramp_table+368
  ldr ip0, [ip0, #:lo12:_libcuda_so_tramp_table+368]
 
  cbz ip0, 2f

  // Fast path
  br ip0

2:
  // Slow path
  mov ip0, 46 & 0xffff
#if 46 > 0xffff
  movk ip0, 46 >> 16, lsl #16
#endif
  stp ip0, lr, [sp, #-16]!; .cfi_adjust_cfa_offset 16; .cfi_rel_offset lr, 8
  bl _libcuda_so_save_regs_and_resolve
  ldp xzr, lr, [sp], #16; .cfi_adjust_cfa_offset -16; .cfi_restore lr
  br ip0
  .cfi_endproc

/*
 * Copyright 2018-2025 Yury Gribov
 *
 * The MIT License (MIT)
 *
 * Use of this source code is governed by MIT license that can be
 * found in the LICENSE.txt file.
 */

  .globl cuCtxPushCurrent_v2
  .p2align 4
  .type cuCtxPushCurrent_v2, %function
#ifndef IMPLIB_EXPORT_SHIMS
  .hidden cuCtxPushCurrent_v2
#endif
cuCtxPushCurrent_v2:
  .cfi_startproc

1:
  // Load address
  // TODO: can we do this faster on newer ARMs?
  adrp ip0, _libcuda_so_tramp_table+376
  ldr ip0, [ip0, #:lo12:_libcuda_so_tramp_table+376]
 
  cbz ip0, 2f

  // Fast path
  br ip0

2:
  // Slow path
  mov ip0, 47 & 0xffff
#if 47 > 0xffff
  movk ip0, 47 >> 16, lsl #16
#endif
  stp ip0, lr, [sp, #-16]!; .cfi_adjust_cfa_offset 16; .cfi_rel_offset lr, 8
  bl _libcuda_so_save_regs_and_resolve
  ldp xzr, lr, [sp], #16; .cfi_adjust_cfa_offset -16; .cfi_restore lr
  br ip0
  .cfi_endproc

/*
 * Copyright 2018-2025 Yury Gribov
 *
 * The MIT License (MIT)
 *
 * Use of this source code is governed by MIT license that can be
 * found in the LICENSE.txt file.
 */

  .globl cuCtxRecordEvent
  .p2align 4
  .type cuCtxRecordEvent, %function
#ifndef IMPLIB_EXPORT_SHIMS
  .hidden cuCtxRecordEvent
#endif
cuCtxRecordEvent:
  .cfi_startproc

1:
  // Load address
  // TODO: can we do this faster on newer ARMs?
  adrp ip0, _libcuda_so_tramp_table+384
  ldr ip0, [ip0, #:lo12:_libcuda_so_tramp_table+384]
 
  cbz ip0, 2f

  // Fast path
  br ip0

2:
  // Slow path
  mov ip0, 48 & 0xffff
#if 48 > 0xffff
  movk ip0, 48 >> 16, lsl #16
#endif
  stp ip0, lr, [sp, #-16]!; .cfi_adjust_cfa_offset 16; .cfi_rel_offset lr, 8
  bl _libcuda_so_save_regs_and_resolve
  ldp xzr, lr, [sp], #16; .cfi_adjust_cfa_offset -16; .cfi_restore lr
  br ip0
  .cfi_endproc

/*
 * Copyright 2018-2025 Yury Gribov
 *
 * The MIT License (MIT)
 *
 * Use of this source code is governed by MIT license that can be
 * found in the LICENSE.txt file.
 */

  .globl cuCtxResetPersistingL2Cache
  .p2align 4
  .type cuCtxResetPersistingL2Cache, %function
#ifndef IMPLIB_EXPORT_SHIMS
  .hidden cuCtxResetPersistingL2Cache
#endif
cuCtxResetPersistingL2Cache:
  .cfi_startproc

1:
  // Load address
  // TODO: can we do this faster on newer ARMs?
  adrp ip0, _libcuda_so_tramp_table+392
  ldr ip0, [ip0, #:lo12:_libcuda_so_tramp_table+392]
 
  cbz ip0, 2f

  // Fast path
  br ip0

2:
  // Slow path
  mov ip0, 49 & 0xffff
#if 49 > 0xffff
  movk ip0, 49 >> 16, lsl #16
#endif
  stp ip0, lr, [sp, #-16]!; .cfi_adjust_cfa_offset 16; .cfi_rel_offset lr, 8
  bl _libcuda_so_save_regs_and_resolve
  ldp xzr, lr, [sp], #16; .cfi_adjust_cfa_offset -16; .cfi_restore lr
  br ip0
  .cfi_endproc

/*
 * Copyright 2018-2025 Yury Gribov
 *
 * The MIT License (MIT)
 *
 * Use of this source code is governed by MIT license that can be
 * found in the LICENSE.txt file.
 */

  .globl cuCtxSetCacheConfig
  .p2align 4
  .type cuCtxSetCacheConfig, %function
#ifndef IMPLIB_EXPORT_SHIMS
  .hidden cuCtxSetCacheConfig
#endif
cuCtxSetCacheConfig:
  .cfi_startproc

1:
  // Load address
  // TODO: can we do this faster on newer ARMs?
  adrp ip0, _libcuda_so_tramp_table+400
  ldr ip0, [ip0, #:lo12:_libcuda_so_tramp_table+400]
 
  cbz ip0, 2f

  // Fast path
  br ip0

2:
  // Slow path
  mov ip0, 50 & 0xffff
#if 50 > 0xffff
  movk ip0, 50 >> 16, lsl #16
#endif
  stp ip0, lr, [sp, #-16]!; .cfi_adjust_cfa_offset 16; .cfi_rel_offset lr, 8
  bl _libcuda_so_save_regs_and_resolve
  ldp xzr, lr, [sp], #16; .cfi_adjust_cfa_offset -16; .cfi_restore lr
  br ip0
  .cfi_endproc

/*
 * Copyright 2018-2025 Yury Gribov
 *
 * The MIT License (MIT)
 *
 * Use of this source code is governed by MIT license that can be
 * found in the LICENSE.txt file.
 */

  .globl cuCtxSetCurrent
  .p2align 4
  .type cuCtxSetCurrent, %function
#ifndef IMPLIB_EXPORT_SHIMS
  .hidden cuCtxSetCurrent
#endif
cuCtxSetCurrent:
  .cfi_startproc

1:
  // Load address
  // TODO: can we do this faster on newer ARMs?
  adrp ip0, _libcuda_so_tramp_table+408
  ldr ip0, [ip0, #:lo12:_libcuda_so_tramp_table+408]
 
  cbz ip0, 2f

  // Fast path
  br ip0

2:
  // Slow path
  mov ip0, 51 & 0xffff
#if 51 > 0xffff
  movk ip0, 51 >> 16, lsl #16
#endif
  stp ip0, lr, [sp, #-16]!; .cfi_adjust_cfa_offset 16; .cfi_rel_offset lr, 8
  bl _libcuda_so_save_regs_and_resolve
  ldp xzr, lr, [sp], #16; .cfi_adjust_cfa_offset -16; .cfi_restore lr
  br ip0
  .cfi_endproc

/*
 * Copyright 2018-2025 Yury Gribov
 *
 * The MIT License (MIT)
 *
 * Use of this source code is governed by MIT license that can be
 * found in the LICENSE.txt file.
 */

  .globl cuCtxSetFlags
  .p2align 4
  .type cuCtxSetFlags, %function
#ifndef IMPLIB_EXPORT_SHIMS
  .hidden cuCtxSetFlags
#endif
cuCtxSetFlags:
  .cfi_startproc

1:
  // Load address
  // TODO: can we do this faster on newer ARMs?
  adrp ip0, _libcuda_so_tramp_table+416
  ldr ip0, [ip0, #:lo12:_libcuda_so_tramp_table+416]
 
  cbz ip0, 2f

  // Fast path
  br ip0

2:
  // Slow path
  mov ip0, 52 & 0xffff
#if 52 > 0xffff
  movk ip0, 52 >> 16, lsl #16
#endif
  stp ip0, lr, [sp, #-16]!; .cfi_adjust_cfa_offset 16; .cfi_rel_offset lr, 8
  bl _libcuda_so_save_regs_and_resolve
  ldp xzr, lr, [sp], #16; .cfi_adjust_cfa_offset -16; .cfi_restore lr
  br ip0
  .cfi_endproc

/*
 * Copyright 2018-2025 Yury Gribov
 *
 * The MIT License (MIT)
 *
 * Use of this source code is governed by MIT license that can be
 * found in the LICENSE.txt file.
 */

  .globl cuCtxSetLimit
  .p2align 4
  .type cuCtxSetLimit, %function
#ifndef IMPLIB_EXPORT_SHIMS
  .hidden cuCtxSetLimit
#endif
cuCtxSetLimit:
  .cfi_startproc

1:
  // Load address
  // TODO: can we do this faster on newer ARMs?
  adrp ip0, _libcuda_so_tramp_table+424
  ldr ip0, [ip0, #:lo12:_libcuda_so_tramp_table+424]
 
  cbz ip0, 2f

  // Fast path
  br ip0

2:
  // Slow path
  mov ip0, 53 & 0xffff
#if 53 > 0xffff
  movk ip0, 53 >> 16, lsl #16
#endif
  stp ip0, lr, [sp, #-16]!; .cfi_adjust_cfa_offset 16; .cfi_rel_offset lr, 8
  bl _libcuda_so_save_regs_and_resolve
  ldp xzr, lr, [sp], #16; .cfi_adjust_cfa_offset -16; .cfi_restore lr
  br ip0
  .cfi_endproc

/*
 * Copyright 2018-2025 Yury Gribov
 *
 * The MIT License (MIT)
 *
 * Use of this source code is governed by MIT license that can be
 * found in the LICENSE.txt file.
 */

  .globl cuCtxSetSharedMemConfig
  .p2align 4
  .type cuCtxSetSharedMemConfig, %function
#ifndef IMPLIB_EXPORT_SHIMS
  .hidden cuCtxSetSharedMemConfig
#endif
cuCtxSetSharedMemConfig:
  .cfi_startproc

1:
  // Load address
  // TODO: can we do this faster on newer ARMs?
  adrp ip0, _libcuda_so_tramp_table+432
  ldr ip0, [ip0, #:lo12:_libcuda_so_tramp_table+432]
 
  cbz ip0, 2f

  // Fast path
  br ip0

2:
  // Slow path
  mov ip0, 54 & 0xffff
#if 54 > 0xffff
  movk ip0, 54 >> 16, lsl #16
#endif
  stp ip0, lr, [sp, #-16]!; .cfi_adjust_cfa_offset 16; .cfi_rel_offset lr, 8
  bl _libcuda_so_save_regs_and_resolve
  ldp xzr, lr, [sp], #16; .cfi_adjust_cfa_offset -16; .cfi_restore lr
  br ip0
  .cfi_endproc

/*
 * Copyright 2018-2025 Yury Gribov
 *
 * The MIT License (MIT)
 *
 * Use of this source code is governed by MIT license that can be
 * found in the LICENSE.txt file.
 */

  .globl cuCtxSynchronize
  .p2align 4
  .type cuCtxSynchronize, %function
#ifndef IMPLIB_EXPORT_SHIMS
  .hidden cuCtxSynchronize
#endif
cuCtxSynchronize:
  .cfi_startproc

1:
  // Load address
  // TODO: can we do this faster on newer ARMs?
  adrp ip0, _libcuda_so_tramp_table+440
  ldr ip0, [ip0, #:lo12:_libcuda_so_tramp_table+440]
 
  cbz ip0, 2f

  // Fast path
  br ip0

2:
  // Slow path
  mov ip0, 55 & 0xffff
#if 55 > 0xffff
  movk ip0, 55 >> 16, lsl #16
#endif
  stp ip0, lr, [sp, #-16]!; .cfi_adjust_cfa_offset 16; .cfi_rel_offset lr, 8
  bl _libcuda_so_save_regs_and_resolve
  ldp xzr, lr, [sp], #16; .cfi_adjust_cfa_offset -16; .cfi_restore lr
  br ip0
  .cfi_endproc

/*
 * Copyright 2018-2025 Yury Gribov
 *
 * The MIT License (MIT)
 *
 * Use of this source code is governed by MIT license that can be
 * found in the LICENSE.txt file.
 */

  .globl cuCtxWaitEvent
  .p2align 4
  .type cuCtxWaitEvent, %function
#ifndef IMPLIB_EXPORT_SHIMS
  .hidden cuCtxWaitEvent
#endif
cuCtxWaitEvent:
  .cfi_startproc

1:
  // Load address
  // TODO: can we do this faster on newer ARMs?
  adrp ip0, _libcuda_so_tramp_table+448
  ldr ip0, [ip0, #:lo12:_libcuda_so_tramp_table+448]
 
  cbz ip0, 2f

  // Fast path
  br ip0

2:
  // Slow path
  mov ip0, 56 & 0xffff
#if 56 > 0xffff
  movk ip0, 56 >> 16, lsl #16
#endif
  stp ip0, lr, [sp, #-16]!; .cfi_adjust_cfa_offset 16; .cfi_rel_offset lr, 8
  bl _libcuda_so_save_regs_and_resolve
  ldp xzr, lr, [sp], #16; .cfi_adjust_cfa_offset -16; .cfi_restore lr
  br ip0
  .cfi_endproc

/*
 * Copyright 2018-2025 Yury Gribov
 *
 * The MIT License (MIT)
 *
 * Use of this source code is governed by MIT license that can be
 * found in the LICENSE.txt file.
 */

  .globl cuDestroyExternalMemory
  .p2align 4
  .type cuDestroyExternalMemory, %function
#ifndef IMPLIB_EXPORT_SHIMS
  .hidden cuDestroyExternalMemory
#endif
cuDestroyExternalMemory:
  .cfi_startproc

1:
  // Load address
  // TODO: can we do this faster on newer ARMs?
  adrp ip0, _libcuda_so_tramp_table+456
  ldr ip0, [ip0, #:lo12:_libcuda_so_tramp_table+456]
 
  cbz ip0, 2f

  // Fast path
  br ip0

2:
  // Slow path
  mov ip0, 57 & 0xffff
#if 57 > 0xffff
  movk ip0, 57 >> 16, lsl #16
#endif
  stp ip0, lr, [sp, #-16]!; .cfi_adjust_cfa_offset 16; .cfi_rel_offset lr, 8
  bl _libcuda_so_save_regs_and_resolve
  ldp xzr, lr, [sp], #16; .cfi_adjust_cfa_offset -16; .cfi_restore lr
  br ip0
  .cfi_endproc

/*
 * Copyright 2018-2025 Yury Gribov
 *
 * The MIT License (MIT)
 *
 * Use of this source code is governed by MIT license that can be
 * found in the LICENSE.txt file.
 */

  .globl cuDestroyExternalSemaphore
  .p2align 4
  .type cuDestroyExternalSemaphore, %function
#ifndef IMPLIB_EXPORT_SHIMS
  .hidden cuDestroyExternalSemaphore
#endif
cuDestroyExternalSemaphore:
  .cfi_startproc

1:
  // Load address
  // TODO: can we do this faster on newer ARMs?
  adrp ip0, _libcuda_so_tramp_table+464
  ldr ip0, [ip0, #:lo12:_libcuda_so_tramp_table+464]
 
  cbz ip0, 2f

  // Fast path
  br ip0

2:
  // Slow path
  mov ip0, 58 & 0xffff
#if 58 > 0xffff
  movk ip0, 58 >> 16, lsl #16
#endif
  stp ip0, lr, [sp, #-16]!; .cfi_adjust_cfa_offset 16; .cfi_rel_offset lr, 8
  bl _libcuda_so_save_regs_and_resolve
  ldp xzr, lr, [sp], #16; .cfi_adjust_cfa_offset -16; .cfi_restore lr
  br ip0
  .cfi_endproc

/*
 * Copyright 2018-2025 Yury Gribov
 *
 * The MIT License (MIT)
 *
 * Use of this source code is governed by MIT license that can be
 * found in the LICENSE.txt file.
 */

  .globl cuDevResourceGenerateDesc
  .p2align 4
  .type cuDevResourceGenerateDesc, %function
#ifndef IMPLIB_EXPORT_SHIMS
  .hidden cuDevResourceGenerateDesc
#endif
cuDevResourceGenerateDesc:
  .cfi_startproc

1:
  // Load address
  // TODO: can we do this faster on newer ARMs?
  adrp ip0, _libcuda_so_tramp_table+472
  ldr ip0, [ip0, #:lo12:_libcuda_so_tramp_table+472]
 
  cbz ip0, 2f

  // Fast path
  br ip0

2:
  // Slow path
  mov ip0, 59 & 0xffff
#if 59 > 0xffff
  movk ip0, 59 >> 16, lsl #16
#endif
  stp ip0, lr, [sp, #-16]!; .cfi_adjust_cfa_offset 16; .cfi_rel_offset lr, 8
  bl _libcuda_so_save_regs_and_resolve
  ldp xzr, lr, [sp], #16; .cfi_adjust_cfa_offset -16; .cfi_restore lr
  br ip0
  .cfi_endproc

/*
 * Copyright 2018-2025 Yury Gribov
 *
 * The MIT License (MIT)
 *
 * Use of this source code is governed by MIT license that can be
 * found in the LICENSE.txt file.
 */

  .globl cuDevSmResourceSplitByCount
  .p2align 4
  .type cuDevSmResourceSplitByCount, %function
#ifndef IMPLIB_EXPORT_SHIMS
  .hidden cuDevSmResourceSplitByCount
#endif
cuDevSmResourceSplitByCount:
  .cfi_startproc

1:
  // Load address
  // TODO: can we do this faster on newer ARMs?
  adrp ip0, _libcuda_so_tramp_table+480
  ldr ip0, [ip0, #:lo12:_libcuda_so_tramp_table+480]
 
  cbz ip0, 2f

  // Fast path
  br ip0

2:
  // Slow path
  mov ip0, 60 & 0xffff
#if 60 > 0xffff
  movk ip0, 60 >> 16, lsl #16
#endif
  stp ip0, lr, [sp, #-16]!; .cfi_adjust_cfa_offset 16; .cfi_rel_offset lr, 8
  bl _libcuda_so_save_regs_and_resolve
  ldp xzr, lr, [sp], #16; .cfi_adjust_cfa_offset -16; .cfi_restore lr
  br ip0
  .cfi_endproc

/*
 * Copyright 2018-2025 Yury Gribov
 *
 * The MIT License (MIT)
 *
 * Use of this source code is governed by MIT license that can be
 * found in the LICENSE.txt file.
 */

  .globl cuDeviceCanAccessPeer
  .p2align 4
  .type cuDeviceCanAccessPeer, %function
#ifndef IMPLIB_EXPORT_SHIMS
  .hidden cuDeviceCanAccessPeer
#endif
cuDeviceCanAccessPeer:
  .cfi_startproc

1:
  // Load address
  // TODO: can we do this faster on newer ARMs?
  adrp ip0, _libcuda_so_tramp_table+488
  ldr ip0, [ip0, #:lo12:_libcuda_so_tramp_table+488]
 
  cbz ip0, 2f

  // Fast path
  br ip0

2:
  // Slow path
  mov ip0, 61 & 0xffff
#if 61 > 0xffff
  movk ip0, 61 >> 16, lsl #16
#endif
  stp ip0, lr, [sp, #-16]!; .cfi_adjust_cfa_offset 16; .cfi_rel_offset lr, 8
  bl _libcuda_so_save_regs_and_resolve
  ldp xzr, lr, [sp], #16; .cfi_adjust_cfa_offset -16; .cfi_restore lr
  br ip0
  .cfi_endproc

/*
 * Copyright 2018-2025 Yury Gribov
 *
 * The MIT License (MIT)
 *
 * Use of this source code is governed by MIT license that can be
 * found in the LICENSE.txt file.
 */

  .globl cuDeviceComputeCapability
  .p2align 4
  .type cuDeviceComputeCapability, %function
#ifndef IMPLIB_EXPORT_SHIMS
  .hidden cuDeviceComputeCapability
#endif
cuDeviceComputeCapability:
  .cfi_startproc

1:
  // Load address
  // TODO: can we do this faster on newer ARMs?
  adrp ip0, _libcuda_so_tramp_table+496
  ldr ip0, [ip0, #:lo12:_libcuda_so_tramp_table+496]
 
  cbz ip0, 2f

  // Fast path
  br ip0

2:
  // Slow path
  mov ip0, 62 & 0xffff
#if 62 > 0xffff
  movk ip0, 62 >> 16, lsl #16
#endif
  stp ip0, lr, [sp, #-16]!; .cfi_adjust_cfa_offset 16; .cfi_rel_offset lr, 8
  bl _libcuda_so_save_regs_and_resolve
  ldp xzr, lr, [sp], #16; .cfi_adjust_cfa_offset -16; .cfi_restore lr
  br ip0
  .cfi_endproc

/*
 * Copyright 2018-2025 Yury Gribov
 *
 * The MIT License (MIT)
 *
 * Use of this source code is governed by MIT license that can be
 * found in the LICENSE.txt file.
 */

  .globl cuDeviceGet
  .p2align 4
  .type cuDeviceGet, %function
#ifndef IMPLIB_EXPORT_SHIMS
  .hidden cuDeviceGet
#endif
cuDeviceGet:
  .cfi_startproc

1:
  // Load address
  // TODO: can we do this faster on newer ARMs?
  adrp ip0, _libcuda_so_tramp_table+504
  ldr ip0, [ip0, #:lo12:_libcuda_so_tramp_table+504]
 
  cbz ip0, 2f

  // Fast path
  br ip0

2:
  // Slow path
  mov ip0, 63 & 0xffff
#if 63 > 0xffff
  movk ip0, 63 >> 16, lsl #16
#endif
  stp ip0, lr, [sp, #-16]!; .cfi_adjust_cfa_offset 16; .cfi_rel_offset lr, 8
  bl _libcuda_so_save_regs_and_resolve
  ldp xzr, lr, [sp], #16; .cfi_adjust_cfa_offset -16; .cfi_restore lr
  br ip0
  .cfi_endproc

/*
 * Copyright 2018-2025 Yury Gribov
 *
 * The MIT License (MIT)
 *
 * Use of this source code is governed by MIT license that can be
 * found in the LICENSE.txt file.
 */

  .globl cuDeviceGetAttribute
  .p2align 4
  .type cuDeviceGetAttribute, %function
#ifndef IMPLIB_EXPORT_SHIMS
  .hidden cuDeviceGetAttribute
#endif
cuDeviceGetAttribute:
  .cfi_startproc

1:
  // Load address
  // TODO: can we do this faster on newer ARMs?
  adrp ip0, _libcuda_so_tramp_table+512
  ldr ip0, [ip0, #:lo12:_libcuda_so_tramp_table+512]
 
  cbz ip0, 2f

  // Fast path
  br ip0

2:
  // Slow path
  mov ip0, 64 & 0xffff
#if 64 > 0xffff
  movk ip0, 64 >> 16, lsl #16
#endif
  stp ip0, lr, [sp, #-16]!; .cfi_adjust_cfa_offset 16; .cfi_rel_offset lr, 8
  bl _libcuda_so_save_regs_and_resolve
  ldp xzr, lr, [sp], #16; .cfi_adjust_cfa_offset -16; .cfi_restore lr
  br ip0
  .cfi_endproc

/*
 * Copyright 2018-2025 Yury Gribov
 *
 * The MIT License (MIT)
 *
 * Use of this source code is governed by MIT license that can be
 * found in the LICENSE.txt file.
 */

  .globl cuDeviceGetByPCIBusId
  .p2align 4
  .type cuDeviceGetByPCIBusId, %function
#ifndef IMPLIB_EXPORT_SHIMS
  .hidden cuDeviceGetByPCIBusId
#endif
cuDeviceGetByPCIBusId:
  .cfi_startproc

1:
  // Load address
  // TODO: can we do this faster on newer ARMs?
  adrp ip0, _libcuda_so_tramp_table+520
  ldr ip0, [ip0, #:lo12:_libcuda_so_tramp_table+520]
 
  cbz ip0, 2f

  // Fast path
  br ip0

2:
  // Slow path
  mov ip0, 65 & 0xffff
#if 65 > 0xffff
  movk ip0, 65 >> 16, lsl #16
#endif
  stp ip0, lr, [sp, #-16]!; .cfi_adjust_cfa_offset 16; .cfi_rel_offset lr, 8
  bl _libcuda_so_save_regs_and_resolve
  ldp xzr, lr, [sp], #16; .cfi_adjust_cfa_offset -16; .cfi_restore lr
  br ip0
  .cfi_endproc

/*
 * Copyright 2018-2025 Yury Gribov
 *
 * The MIT License (MIT)
 *
 * Use of this source code is governed by MIT license that can be
 * found in the LICENSE.txt file.
 */

  .globl cuDeviceGetCount
  .p2align 4
  .type cuDeviceGetCount, %function
#ifndef IMPLIB_EXPORT_SHIMS
  .hidden cuDeviceGetCount
#endif
cuDeviceGetCount:
  .cfi_startproc

1:
  // Load address
  // TODO: can we do this faster on newer ARMs?
  adrp ip0, _libcuda_so_tramp_table+528
  ldr ip0, [ip0, #:lo12:_libcuda_so_tramp_table+528]
 
  cbz ip0, 2f

  // Fast path
  br ip0

2:
  // Slow path
  mov ip0, 66 & 0xffff
#if 66 > 0xffff
  movk ip0, 66 >> 16, lsl #16
#endif
  stp ip0, lr, [sp, #-16]!; .cfi_adjust_cfa_offset 16; .cfi_rel_offset lr, 8
  bl _libcuda_so_save_regs_and_resolve
  ldp xzr, lr, [sp], #16; .cfi_adjust_cfa_offset -16; .cfi_restore lr
  br ip0
  .cfi_endproc

/*
 * Copyright 2018-2025 Yury Gribov
 *
 * The MIT License (MIT)
 *
 * Use of this source code is governed by MIT license that can be
 * found in the LICENSE.txt file.
 */

  .globl cuDeviceGetDefaultMemPool
  .p2align 4
  .type cuDeviceGetDefaultMemPool, %function
#ifndef IMPLIB_EXPORT_SHIMS
  .hidden cuDeviceGetDefaultMemPool
#endif
cuDeviceGetDefaultMemPool:
  .cfi_startproc

1:
  // Load address
  // TODO: can we do this faster on newer ARMs?
  adrp ip0, _libcuda_so_tramp_table+536
  ldr ip0, [ip0, #:lo12:_libcuda_so_tramp_table+536]
 
  cbz ip0, 2f

  // Fast path
  br ip0

2:
  // Slow path
  mov ip0, 67 & 0xffff
#if 67 > 0xffff
  movk ip0, 67 >> 16, lsl #16
#endif
  stp ip0, lr, [sp, #-16]!; .cfi_adjust_cfa_offset 16; .cfi_rel_offset lr, 8
  bl _libcuda_so_save_regs_and_resolve
  ldp xzr, lr, [sp], #16; .cfi_adjust_cfa_offset -16; .cfi_restore lr
  br ip0
  .cfi_endproc

/*
 * Copyright 2018-2025 Yury Gribov
 *
 * The MIT License (MIT)
 *
 * Use of this source code is governed by MIT license that can be
 * found in the LICENSE.txt file.
 */

  .globl cuDeviceGetDevResource
  .p2align 4
  .type cuDeviceGetDevResource, %function
#ifndef IMPLIB_EXPORT_SHIMS
  .hidden cuDeviceGetDevResource
#endif
cuDeviceGetDevResource:
  .cfi_startproc

1:
  // Load address
  // TODO: can we do this faster on newer ARMs?
  adrp ip0, _libcuda_so_tramp_table+544
  ldr ip0, [ip0, #:lo12:_libcuda_so_tramp_table+544]
 
  cbz ip0, 2f

  // Fast path
  br ip0

2:
  // Slow path
  mov ip0, 68 & 0xffff
#if 68 > 0xffff
  movk ip0, 68 >> 16, lsl #16
#endif
  stp ip0, lr, [sp, #-16]!; .cfi_adjust_cfa_offset 16; .cfi_rel_offset lr, 8
  bl _libcuda_so_save_regs_and_resolve
  ldp xzr, lr, [sp], #16; .cfi_adjust_cfa_offset -16; .cfi_restore lr
  br ip0
  .cfi_endproc

/*
 * Copyright 2018-2025 Yury Gribov
 *
 * The MIT License (MIT)
 *
 * Use of this source code is governed by MIT license that can be
 * found in the LICENSE.txt file.
 */

  .globl cuDeviceGetExecAffinitySupport
  .p2align 4
  .type cuDeviceGetExecAffinitySupport, %function
#ifndef IMPLIB_EXPORT_SHIMS
  .hidden cuDeviceGetExecAffinitySupport
#endif
cuDeviceGetExecAffinitySupport:
  .cfi_startproc

1:
  // Load address
  // TODO: can we do this faster on newer ARMs?
  adrp ip0, _libcuda_so_tramp_table+552
  ldr ip0, [ip0, #:lo12:_libcuda_so_tramp_table+552]
 
  cbz ip0, 2f

  // Fast path
  br ip0

2:
  // Slow path
  mov ip0, 69 & 0xffff
#if 69 > 0xffff
  movk ip0, 69 >> 16, lsl #16
#endif
  stp ip0, lr, [sp, #-16]!; .cfi_adjust_cfa_offset 16; .cfi_rel_offset lr, 8
  bl _libcuda_so_save_regs_and_resolve
  ldp xzr, lr, [sp], #16; .cfi_adjust_cfa_offset -16; .cfi_restore lr
  br ip0
  .cfi_endproc

/*
 * Copyright 2018-2025 Yury Gribov
 *
 * The MIT License (MIT)
 *
 * Use of this source code is governed by MIT license that can be
 * found in the LICENSE.txt file.
 */

  .globl cuDeviceGetGraphMemAttribute
  .p2align 4
  .type cuDeviceGetGraphMemAttribute, %function
#ifndef IMPLIB_EXPORT_SHIMS
  .hidden cuDeviceGetGraphMemAttribute
#endif
cuDeviceGetGraphMemAttribute:
  .cfi_startproc

1:
  // Load address
  // TODO: can we do this faster on newer ARMs?
  adrp ip0, _libcuda_so_tramp_table+560
  ldr ip0, [ip0, #:lo12:_libcuda_so_tramp_table+560]
 
  cbz ip0, 2f

  // Fast path
  br ip0

2:
  // Slow path
  mov ip0, 70 & 0xffff
#if 70 > 0xffff
  movk ip0, 70 >> 16, lsl #16
#endif
  stp ip0, lr, [sp, #-16]!; .cfi_adjust_cfa_offset 16; .cfi_rel_offset lr, 8
  bl _libcuda_so_save_regs_and_resolve
  ldp xzr, lr, [sp], #16; .cfi_adjust_cfa_offset -16; .cfi_restore lr
  br ip0
  .cfi_endproc

/*
 * Copyright 2018-2025 Yury Gribov
 *
 * The MIT License (MIT)
 *
 * Use of this source code is governed by MIT license that can be
 * found in the LICENSE.txt file.
 */

  .globl cuDeviceGetLuid
  .p2align 4
  .type cuDeviceGetLuid, %function
#ifndef IMPLIB_EXPORT_SHIMS
  .hidden cuDeviceGetLuid
#endif
cuDeviceGetLuid:
  .cfi_startproc

1:
  // Load address
  // TODO: can we do this faster on newer ARMs?
  adrp ip0, _libcuda_so_tramp_table+568
  ldr ip0, [ip0, #:lo12:_libcuda_so_tramp_table+568]
 
  cbz ip0, 2f

  // Fast path
  br ip0

2:
  // Slow path
  mov ip0, 71 & 0xffff
#if 71 > 0xffff
  movk ip0, 71 >> 16, lsl #16
#endif
  stp ip0, lr, [sp, #-16]!; .cfi_adjust_cfa_offset 16; .cfi_rel_offset lr, 8
  bl _libcuda_so_save_regs_and_resolve
  ldp xzr, lr, [sp], #16; .cfi_adjust_cfa_offset -16; .cfi_restore lr
  br ip0
  .cfi_endproc

/*
 * Copyright 2018-2025 Yury Gribov
 *
 * The MIT License (MIT)
 *
 * Use of this source code is governed by MIT license that can be
 * found in the LICENSE.txt file.
 */

  .globl cuDeviceGetMemPool
  .p2align 4
  .type cuDeviceGetMemPool, %function
#ifndef IMPLIB_EXPORT_SHIMS
  .hidden cuDeviceGetMemPool
#endif
cuDeviceGetMemPool:
  .cfi_startproc

1:
  // Load address
  // TODO: can we do this faster on newer ARMs?
  adrp ip0, _libcuda_so_tramp_table+576
  ldr ip0, [ip0, #:lo12:_libcuda_so_tramp_table+576]
 
  cbz ip0, 2f

  // Fast path
  br ip0

2:
  // Slow path
  mov ip0, 72 & 0xffff
#if 72 > 0xffff
  movk ip0, 72 >> 16, lsl #16
#endif
  stp ip0, lr, [sp, #-16]!; .cfi_adjust_cfa_offset 16; .cfi_rel_offset lr, 8
  bl _libcuda_so_save_regs_and_resolve
  ldp xzr, lr, [sp], #16; .cfi_adjust_cfa_offset -16; .cfi_restore lr
  br ip0
  .cfi_endproc

/*
 * Copyright 2018-2025 Yury Gribov
 *
 * The MIT License (MIT)
 *
 * Use of this source code is governed by MIT license that can be
 * found in the LICENSE.txt file.
 */

  .globl cuDeviceGetName
  .p2align 4
  .type cuDeviceGetName, %function
#ifndef IMPLIB_EXPORT_SHIMS
  .hidden cuDeviceGetName
#endif
cuDeviceGetName:
  .cfi_startproc

1:
  // Load address
  // TODO: can we do this faster on newer ARMs?
  adrp ip0, _libcuda_so_tramp_table+584
  ldr ip0, [ip0, #:lo12:_libcuda_so_tramp_table+584]
 
  cbz ip0, 2f

  // Fast path
  br ip0

2:
  // Slow path
  mov ip0, 73 & 0xffff
#if 73 > 0xffff
  movk ip0, 73 >> 16, lsl #16
#endif
  stp ip0, lr, [sp, #-16]!; .cfi_adjust_cfa_offset 16; .cfi_rel_offset lr, 8
  bl _libcuda_so_save_regs_and_resolve
  ldp xzr, lr, [sp], #16; .cfi_adjust_cfa_offset -16; .cfi_restore lr
  br ip0
  .cfi_endproc

/*
 * Copyright 2018-2025 Yury Gribov
 *
 * The MIT License (MIT)
 *
 * Use of this source code is governed by MIT license that can be
 * found in the LICENSE.txt file.
 */

  .globl cuDeviceGetNvSciSyncAttributes
  .p2align 4
  .type cuDeviceGetNvSciSyncAttributes, %function
#ifndef IMPLIB_EXPORT_SHIMS
  .hidden cuDeviceGetNvSciSyncAttributes
#endif
cuDeviceGetNvSciSyncAttributes:
  .cfi_startproc

1:
  // Load address
  // TODO: can we do this faster on newer ARMs?
  adrp ip0, _libcuda_so_tramp_table+592
  ldr ip0, [ip0, #:lo12:_libcuda_so_tramp_table+592]
 
  cbz ip0, 2f

  // Fast path
  br ip0

2:
  // Slow path
  mov ip0, 74 & 0xffff
#if 74 > 0xffff
  movk ip0, 74 >> 16, lsl #16
#endif
  stp ip0, lr, [sp, #-16]!; .cfi_adjust_cfa_offset 16; .cfi_rel_offset lr, 8
  bl _libcuda_so_save_regs_and_resolve
  ldp xzr, lr, [sp], #16; .cfi_adjust_cfa_offset -16; .cfi_restore lr
  br ip0
  .cfi_endproc

/*
 * Copyright 2018-2025 Yury Gribov
 *
 * The MIT License (MIT)
 *
 * Use of this source code is governed by MIT license that can be
 * found in the LICENSE.txt file.
 */

  .globl cuDeviceGetP2PAttribute
  .p2align 4
  .type cuDeviceGetP2PAttribute, %function
#ifndef IMPLIB_EXPORT_SHIMS
  .hidden cuDeviceGetP2PAttribute
#endif
cuDeviceGetP2PAttribute:
  .cfi_startproc

1:
  // Load address
  // TODO: can we do this faster on newer ARMs?
  adrp ip0, _libcuda_so_tramp_table+600
  ldr ip0, [ip0, #:lo12:_libcuda_so_tramp_table+600]
 
  cbz ip0, 2f

  // Fast path
  br ip0

2:
  // Slow path
  mov ip0, 75 & 0xffff
#if 75 > 0xffff
  movk ip0, 75 >> 16, lsl #16
#endif
  stp ip0, lr, [sp, #-16]!; .cfi_adjust_cfa_offset 16; .cfi_rel_offset lr, 8
  bl _libcuda_so_save_regs_and_resolve
  ldp xzr, lr, [sp], #16; .cfi_adjust_cfa_offset -16; .cfi_restore lr
  br ip0
  .cfi_endproc

/*
 * Copyright 2018-2025 Yury Gribov
 *
 * The MIT License (MIT)
 *
 * Use of this source code is governed by MIT license that can be
 * found in the LICENSE.txt file.
 */

  .globl cuDeviceGetPCIBusId
  .p2align 4
  .type cuDeviceGetPCIBusId, %function
#ifndef IMPLIB_EXPORT_SHIMS
  .hidden cuDeviceGetPCIBusId
#endif
cuDeviceGetPCIBusId:
  .cfi_startproc

1:
  // Load address
  // TODO: can we do this faster on newer ARMs?
  adrp ip0, _libcuda_so_tramp_table+608
  ldr ip0, [ip0, #:lo12:_libcuda_so_tramp_table+608]
 
  cbz ip0, 2f

  // Fast path
  br ip0

2:
  // Slow path
  mov ip0, 76 & 0xffff
#if 76 > 0xffff
  movk ip0, 76 >> 16, lsl #16
#endif
  stp ip0, lr, [sp, #-16]!; .cfi_adjust_cfa_offset 16; .cfi_rel_offset lr, 8
  bl _libcuda_so_save_regs_and_resolve
  ldp xzr, lr, [sp], #16; .cfi_adjust_cfa_offset -16; .cfi_restore lr
  br ip0
  .cfi_endproc

/*
 * Copyright 2018-2025 Yury Gribov
 *
 * The MIT License (MIT)
 *
 * Use of this source code is governed by MIT license that can be
 * found in the LICENSE.txt file.
 */

  .globl cuDeviceGetProperties
  .p2align 4
  .type cuDeviceGetProperties, %function
#ifndef IMPLIB_EXPORT_SHIMS
  .hidden cuDeviceGetProperties
#endif
cuDeviceGetProperties:
  .cfi_startproc

1:
  // Load address
  // TODO: can we do this faster on newer ARMs?
  adrp ip0, _libcuda_so_tramp_table+616
  ldr ip0, [ip0, #:lo12:_libcuda_so_tramp_table+616]
 
  cbz ip0, 2f

  // Fast path
  br ip0

2:
  // Slow path
  mov ip0, 77 & 0xffff
#if 77 > 0xffff
  movk ip0, 77 >> 16, lsl #16
#endif
  stp ip0, lr, [sp, #-16]!; .cfi_adjust_cfa_offset 16; .cfi_rel_offset lr, 8
  bl _libcuda_so_save_regs_and_resolve
  ldp xzr, lr, [sp], #16; .cfi_adjust_cfa_offset -16; .cfi_restore lr
  br ip0
  .cfi_endproc

/*
 * Copyright 2018-2025 Yury Gribov
 *
 * The MIT License (MIT)
 *
 * Use of this source code is governed by MIT license that can be
 * found in the LICENSE.txt file.
 */

  .globl cuDeviceGetTexture1DLinearMaxWidth
  .p2align 4
  .type cuDeviceGetTexture1DLinearMaxWidth, %function
#ifndef IMPLIB_EXPORT_SHIMS
  .hidden cuDeviceGetTexture1DLinearMaxWidth
#endif
cuDeviceGetTexture1DLinearMaxWidth:
  .cfi_startproc

1:
  // Load address
  // TODO: can we do this faster on newer ARMs?
  adrp ip0, _libcuda_so_tramp_table+624
  ldr ip0, [ip0, #:lo12:_libcuda_so_tramp_table+624]
 
  cbz ip0, 2f

  // Fast path
  br ip0

2:
  // Slow path
  mov ip0, 78 & 0xffff
#if 78 > 0xffff
  movk ip0, 78 >> 16, lsl #16
#endif
  stp ip0, lr, [sp, #-16]!; .cfi_adjust_cfa_offset 16; .cfi_rel_offset lr, 8
  bl _libcuda_so_save_regs_and_resolve
  ldp xzr, lr, [sp], #16; .cfi_adjust_cfa_offset -16; .cfi_restore lr
  br ip0
  .cfi_endproc

/*
 * Copyright 2018-2025 Yury Gribov
 *
 * The MIT License (MIT)
 *
 * Use of this source code is governed by MIT license that can be
 * found in the LICENSE.txt file.
 */

  .globl cuDeviceGetUuid
  .p2align 4
  .type cuDeviceGetUuid, %function
#ifndef IMPLIB_EXPORT_SHIMS
  .hidden cuDeviceGetUuid
#endif
cuDeviceGetUuid:
  .cfi_startproc

1:
  // Load address
  // TODO: can we do this faster on newer ARMs?
  adrp ip0, _libcuda_so_tramp_table+632
  ldr ip0, [ip0, #:lo12:_libcuda_so_tramp_table+632]
 
  cbz ip0, 2f

  // Fast path
  br ip0

2:
  // Slow path
  mov ip0, 79 & 0xffff
#if 79 > 0xffff
  movk ip0, 79 >> 16, lsl #16
#endif
  stp ip0, lr, [sp, #-16]!; .cfi_adjust_cfa_offset 16; .cfi_rel_offset lr, 8
  bl _libcuda_so_save_regs_and_resolve
  ldp xzr, lr, [sp], #16; .cfi_adjust_cfa_offset -16; .cfi_restore lr
  br ip0
  .cfi_endproc

/*
 * Copyright 2018-2025 Yury Gribov
 *
 * The MIT License (MIT)
 *
 * Use of this source code is governed by MIT license that can be
 * found in the LICENSE.txt file.
 */

  .globl cuDeviceGetUuid_v2
  .p2align 4
  .type cuDeviceGetUuid_v2, %function
#ifndef IMPLIB_EXPORT_SHIMS
  .hidden cuDeviceGetUuid_v2
#endif
cuDeviceGetUuid_v2:
  .cfi_startproc

1:
  // Load address
  // TODO: can we do this faster on newer ARMs?
  adrp ip0, _libcuda_so_tramp_table+640
  ldr ip0, [ip0, #:lo12:_libcuda_so_tramp_table+640]
 
  cbz ip0, 2f

  // Fast path
  br ip0

2:
  // Slow path
  mov ip0, 80 & 0xffff
#if 80 > 0xffff
  movk ip0, 80 >> 16, lsl #16
#endif
  stp ip0, lr, [sp, #-16]!; .cfi_adjust_cfa_offset 16; .cfi_rel_offset lr, 8
  bl _libcuda_so_save_regs_and_resolve
  ldp xzr, lr, [sp], #16; .cfi_adjust_cfa_offset -16; .cfi_restore lr
  br ip0
  .cfi_endproc

/*
 * Copyright 2018-2025 Yury Gribov
 *
 * The MIT License (MIT)
 *
 * Use of this source code is governed by MIT license that can be
 * found in the LICENSE.txt file.
 */

  .globl cuDeviceGraphMemTrim
  .p2align 4
  .type cuDeviceGraphMemTrim, %function
#ifndef IMPLIB_EXPORT_SHIMS
  .hidden cuDeviceGraphMemTrim
#endif
cuDeviceGraphMemTrim:
  .cfi_startproc

1:
  // Load address
  // TODO: can we do this faster on newer ARMs?
  adrp ip0, _libcuda_so_tramp_table+648
  ldr ip0, [ip0, #:lo12:_libcuda_so_tramp_table+648]
 
  cbz ip0, 2f

  // Fast path
  br ip0

2:
  // Slow path
  mov ip0, 81 & 0xffff
#if 81 > 0xffff
  movk ip0, 81 >> 16, lsl #16
#endif
  stp ip0, lr, [sp, #-16]!; .cfi_adjust_cfa_offset 16; .cfi_rel_offset lr, 8
  bl _libcuda_so_save_regs_and_resolve
  ldp xzr, lr, [sp], #16; .cfi_adjust_cfa_offset -16; .cfi_restore lr
  br ip0
  .cfi_endproc

/*
 * Copyright 2018-2025 Yury Gribov
 *
 * The MIT License (MIT)
 *
 * Use of this source code is governed by MIT license that can be
 * found in the LICENSE.txt file.
 */

  .globl cuDevicePrimaryCtxGetState
  .p2align 4
  .type cuDevicePrimaryCtxGetState, %function
#ifndef IMPLIB_EXPORT_SHIMS
  .hidden cuDevicePrimaryCtxGetState
#endif
cuDevicePrimaryCtxGetState:
  .cfi_startproc

1:
  // Load address
  // TODO: can we do this faster on newer ARMs?
  adrp ip0, _libcuda_so_tramp_table+656
  ldr ip0, [ip0, #:lo12:_libcuda_so_tramp_table+656]
 
  cbz ip0, 2f

  // Fast path
  br ip0

2:
  // Slow path
  mov ip0, 82 & 0xffff
#if 82 > 0xffff
  movk ip0, 82 >> 16, lsl #16
#endif
  stp ip0, lr, [sp, #-16]!; .cfi_adjust_cfa_offset 16; .cfi_rel_offset lr, 8
  bl _libcuda_so_save_regs_and_resolve
  ldp xzr, lr, [sp], #16; .cfi_adjust_cfa_offset -16; .cfi_restore lr
  br ip0
  .cfi_endproc

/*
 * Copyright 2018-2025 Yury Gribov
 *
 * The MIT License (MIT)
 *
 * Use of this source code is governed by MIT license that can be
 * found in the LICENSE.txt file.
 */

  .globl cuDevicePrimaryCtxRelease
  .p2align 4
  .type cuDevicePrimaryCtxRelease, %function
#ifndef IMPLIB_EXPORT_SHIMS
  .hidden cuDevicePrimaryCtxRelease
#endif
cuDevicePrimaryCtxRelease:
  .cfi_startproc

1:
  // Load address
  // TODO: can we do this faster on newer ARMs?
  adrp ip0, _libcuda_so_tramp_table+664
  ldr ip0, [ip0, #:lo12:_libcuda_so_tramp_table+664]
 
  cbz ip0, 2f

  // Fast path
  br ip0

2:
  // Slow path
  mov ip0, 83 & 0xffff
#if 83 > 0xffff
  movk ip0, 83 >> 16, lsl #16
#endif
  stp ip0, lr, [sp, #-16]!; .cfi_adjust_cfa_offset 16; .cfi_rel_offset lr, 8
  bl _libcuda_so_save_regs_and_resolve
  ldp xzr, lr, [sp], #16; .cfi_adjust_cfa_offset -16; .cfi_restore lr
  br ip0
  .cfi_endproc

/*
 * Copyright 2018-2025 Yury Gribov
 *
 * The MIT License (MIT)
 *
 * Use of this source code is governed by MIT license that can be
 * found in the LICENSE.txt file.
 */

  .globl cuDevicePrimaryCtxRelease_v2
  .p2align 4
  .type cuDevicePrimaryCtxRelease_v2, %function
#ifndef IMPLIB_EXPORT_SHIMS
  .hidden cuDevicePrimaryCtxRelease_v2
#endif
cuDevicePrimaryCtxRelease_v2:
  .cfi_startproc

1:
  // Load address
  // TODO: can we do this faster on newer ARMs?
  adrp ip0, _libcuda_so_tramp_table+672
  ldr ip0, [ip0, #:lo12:_libcuda_so_tramp_table+672]
 
  cbz ip0, 2f

  // Fast path
  br ip0

2:
  // Slow path
  mov ip0, 84 & 0xffff
#if 84 > 0xffff
  movk ip0, 84 >> 16, lsl #16
#endif
  stp ip0, lr, [sp, #-16]!; .cfi_adjust_cfa_offset 16; .cfi_rel_offset lr, 8
  bl _libcuda_so_save_regs_and_resolve
  ldp xzr, lr, [sp], #16; .cfi_adjust_cfa_offset -16; .cfi_restore lr
  br ip0
  .cfi_endproc

/*
 * Copyright 2018-2025 Yury Gribov
 *
 * The MIT License (MIT)
 *
 * Use of this source code is governed by MIT license that can be
 * found in the LICENSE.txt file.
 */

  .globl cuDevicePrimaryCtxReset
  .p2align 4
  .type cuDevicePrimaryCtxReset, %function
#ifndef IMPLIB_EXPORT_SHIMS
  .hidden cuDevicePrimaryCtxReset
#endif
cuDevicePrimaryCtxReset:
  .cfi_startproc

1:
  // Load address
  // TODO: can we do this faster on newer ARMs?
  adrp ip0, _libcuda_so_tramp_table+680
  ldr ip0, [ip0, #:lo12:_libcuda_so_tramp_table+680]
 
  cbz ip0, 2f

  // Fast path
  br ip0

2:
  // Slow path
  mov ip0, 85 & 0xffff
#if 85 > 0xffff
  movk ip0, 85 >> 16, lsl #16
#endif
  stp ip0, lr, [sp, #-16]!; .cfi_adjust_cfa_offset 16; .cfi_rel_offset lr, 8
  bl _libcuda_so_save_regs_and_resolve
  ldp xzr, lr, [sp], #16; .cfi_adjust_cfa_offset -16; .cfi_restore lr
  br ip0
  .cfi_endproc

/*
 * Copyright 2018-2025 Yury Gribov
 *
 * The MIT License (MIT)
 *
 * Use of this source code is governed by MIT license that can be
 * found in the LICENSE.txt file.
 */

  .globl cuDevicePrimaryCtxReset_v2
  .p2align 4
  .type cuDevicePrimaryCtxReset_v2, %function
#ifndef IMPLIB_EXPORT_SHIMS
  .hidden cuDevicePrimaryCtxReset_v2
#endif
cuDevicePrimaryCtxReset_v2:
  .cfi_startproc

1:
  // Load address
  // TODO: can we do this faster on newer ARMs?
  adrp ip0, _libcuda_so_tramp_table+688
  ldr ip0, [ip0, #:lo12:_libcuda_so_tramp_table+688]
 
  cbz ip0, 2f

  // Fast path
  br ip0

2:
  // Slow path
  mov ip0, 86 & 0xffff
#if 86 > 0xffff
  movk ip0, 86 >> 16, lsl #16
#endif
  stp ip0, lr, [sp, #-16]!; .cfi_adjust_cfa_offset 16; .cfi_rel_offset lr, 8
  bl _libcuda_so_save_regs_and_resolve
  ldp xzr, lr, [sp], #16; .cfi_adjust_cfa_offset -16; .cfi_restore lr
  br ip0
  .cfi_endproc

/*
 * Copyright 2018-2025 Yury Gribov
 *
 * The MIT License (MIT)
 *
 * Use of this source code is governed by MIT license that can be
 * found in the LICENSE.txt file.
 */

  .globl cuDevicePrimaryCtxRetain
  .p2align 4
  .type cuDevicePrimaryCtxRetain, %function
#ifndef IMPLIB_EXPORT_SHIMS
  .hidden cuDevicePrimaryCtxRetain
#endif
cuDevicePrimaryCtxRetain:
  .cfi_startproc

1:
  // Load address
  // TODO: can we do this faster on newer ARMs?
  adrp ip0, _libcuda_so_tramp_table+696
  ldr ip0, [ip0, #:lo12:_libcuda_so_tramp_table+696]
 
  cbz ip0, 2f

  // Fast path
  br ip0

2:
  // Slow path
  mov ip0, 87 & 0xffff
#if 87 > 0xffff
  movk ip0, 87 >> 16, lsl #16
#endif
  stp ip0, lr, [sp, #-16]!; .cfi_adjust_cfa_offset 16; .cfi_rel_offset lr, 8
  bl _libcuda_so_save_regs_and_resolve
  ldp xzr, lr, [sp], #16; .cfi_adjust_cfa_offset -16; .cfi_restore lr
  br ip0
  .cfi_endproc

/*
 * Copyright 2018-2025 Yury Gribov
 *
 * The MIT License (MIT)
 *
 * Use of this source code is governed by MIT license that can be
 * found in the LICENSE.txt file.
 */

  .globl cuDevicePrimaryCtxSetFlags
  .p2align 4
  .type cuDevicePrimaryCtxSetFlags, %function
#ifndef IMPLIB_EXPORT_SHIMS
  .hidden cuDevicePrimaryCtxSetFlags
#endif
cuDevicePrimaryCtxSetFlags:
  .cfi_startproc

1:
  // Load address
  // TODO: can we do this faster on newer ARMs?
  adrp ip0, _libcuda_so_tramp_table+704
  ldr ip0, [ip0, #:lo12:_libcuda_so_tramp_table+704]
 
  cbz ip0, 2f

  // Fast path
  br ip0

2:
  // Slow path
  mov ip0, 88 & 0xffff
#if 88 > 0xffff
  movk ip0, 88 >> 16, lsl #16
#endif
  stp ip0, lr, [sp, #-16]!; .cfi_adjust_cfa_offset 16; .cfi_rel_offset lr, 8
  bl _libcuda_so_save_regs_and_resolve
  ldp xzr, lr, [sp], #16; .cfi_adjust_cfa_offset -16; .cfi_restore lr
  br ip0
  .cfi_endproc

/*
 * Copyright 2018-2025 Yury Gribov
 *
 * The MIT License (MIT)
 *
 * Use of this source code is governed by MIT license that can be
 * found in the LICENSE.txt file.
 */

  .globl cuDevicePrimaryCtxSetFlags_v2
  .p2align 4
  .type cuDevicePrimaryCtxSetFlags_v2, %function
#ifndef IMPLIB_EXPORT_SHIMS
  .hidden cuDevicePrimaryCtxSetFlags_v2
#endif
cuDevicePrimaryCtxSetFlags_v2:
  .cfi_startproc

1:
  // Load address
  // TODO: can we do this faster on newer ARMs?
  adrp ip0, _libcuda_so_tramp_table+712
  ldr ip0, [ip0, #:lo12:_libcuda_so_tramp_table+712]
 
  cbz ip0, 2f

  // Fast path
  br ip0

2:
  // Slow path
  mov ip0, 89 & 0xffff
#if 89 > 0xffff
  movk ip0, 89 >> 16, lsl #16
#endif
  stp ip0, lr, [sp, #-16]!; .cfi_adjust_cfa_offset 16; .cfi_rel_offset lr, 8
  bl _libcuda_so_save_regs_and_resolve
  ldp xzr, lr, [sp], #16; .cfi_adjust_cfa_offset -16; .cfi_restore lr
  br ip0
  .cfi_endproc

/*
 * Copyright 2018-2025 Yury Gribov
 *
 * The MIT License (MIT)
 *
 * Use of this source code is governed by MIT license that can be
 * found in the LICENSE.txt file.
 */

  .globl cuDeviceRegisterAsyncNotification
  .p2align 4
  .type cuDeviceRegisterAsyncNotification, %function
#ifndef IMPLIB_EXPORT_SHIMS
  .hidden cuDeviceRegisterAsyncNotification
#endif
cuDeviceRegisterAsyncNotification:
  .cfi_startproc

1:
  // Load address
  // TODO: can we do this faster on newer ARMs?
  adrp ip0, _libcuda_so_tramp_table+720
  ldr ip0, [ip0, #:lo12:_libcuda_so_tramp_table+720]
 
  cbz ip0, 2f

  // Fast path
  br ip0

2:
  // Slow path
  mov ip0, 90 & 0xffff
#if 90 > 0xffff
  movk ip0, 90 >> 16, lsl #16
#endif
  stp ip0, lr, [sp, #-16]!; .cfi_adjust_cfa_offset 16; .cfi_rel_offset lr, 8
  bl _libcuda_so_save_regs_and_resolve
  ldp xzr, lr, [sp], #16; .cfi_adjust_cfa_offset -16; .cfi_restore lr
  br ip0
  .cfi_endproc

/*
 * Copyright 2018-2025 Yury Gribov
 *
 * The MIT License (MIT)
 *
 * Use of this source code is governed by MIT license that can be
 * found in the LICENSE.txt file.
 */

  .globl cuDeviceSetGraphMemAttribute
  .p2align 4
  .type cuDeviceSetGraphMemAttribute, %function
#ifndef IMPLIB_EXPORT_SHIMS
  .hidden cuDeviceSetGraphMemAttribute
#endif
cuDeviceSetGraphMemAttribute:
  .cfi_startproc

1:
  // Load address
  // TODO: can we do this faster on newer ARMs?
  adrp ip0, _libcuda_so_tramp_table+728
  ldr ip0, [ip0, #:lo12:_libcuda_so_tramp_table+728]
 
  cbz ip0, 2f

  // Fast path
  br ip0

2:
  // Slow path
  mov ip0, 91 & 0xffff
#if 91 > 0xffff
  movk ip0, 91 >> 16, lsl #16
#endif
  stp ip0, lr, [sp, #-16]!; .cfi_adjust_cfa_offset 16; .cfi_rel_offset lr, 8
  bl _libcuda_so_save_regs_and_resolve
  ldp xzr, lr, [sp], #16; .cfi_adjust_cfa_offset -16; .cfi_restore lr
  br ip0
  .cfi_endproc

/*
 * Copyright 2018-2025 Yury Gribov
 *
 * The MIT License (MIT)
 *
 * Use of this source code is governed by MIT license that can be
 * found in the LICENSE.txt file.
 */

  .globl cuDeviceSetMemPool
  .p2align 4
  .type cuDeviceSetMemPool, %function
#ifndef IMPLIB_EXPORT_SHIMS
  .hidden cuDeviceSetMemPool
#endif
cuDeviceSetMemPool:
  .cfi_startproc

1:
  // Load address
  // TODO: can we do this faster on newer ARMs?
  adrp ip0, _libcuda_so_tramp_table+736
  ldr ip0, [ip0, #:lo12:_libcuda_so_tramp_table+736]
 
  cbz ip0, 2f

  // Fast path
  br ip0

2:
  // Slow path
  mov ip0, 92 & 0xffff
#if 92 > 0xffff
  movk ip0, 92 >> 16, lsl #16
#endif
  stp ip0, lr, [sp, #-16]!; .cfi_adjust_cfa_offset 16; .cfi_rel_offset lr, 8
  bl _libcuda_so_save_regs_and_resolve
  ldp xzr, lr, [sp], #16; .cfi_adjust_cfa_offset -16; .cfi_restore lr
  br ip0
  .cfi_endproc

/*
 * Copyright 2018-2025 Yury Gribov
 *
 * The MIT License (MIT)
 *
 * Use of this source code is governed by MIT license that can be
 * found in the LICENSE.txt file.
 */

  .globl cuDeviceTotalMem
  .p2align 4
  .type cuDeviceTotalMem, %function
#ifndef IMPLIB_EXPORT_SHIMS
  .hidden cuDeviceTotalMem
#endif
cuDeviceTotalMem:
  .cfi_startproc

1:
  // Load address
  // TODO: can we do this faster on newer ARMs?
  adrp ip0, _libcuda_so_tramp_table+744
  ldr ip0, [ip0, #:lo12:_libcuda_so_tramp_table+744]
 
  cbz ip0, 2f

  // Fast path
  br ip0

2:
  // Slow path
  mov ip0, 93 & 0xffff
#if 93 > 0xffff
  movk ip0, 93 >> 16, lsl #16
#endif
  stp ip0, lr, [sp, #-16]!; .cfi_adjust_cfa_offset 16; .cfi_rel_offset lr, 8
  bl _libcuda_so_save_regs_and_resolve
  ldp xzr, lr, [sp], #16; .cfi_adjust_cfa_offset -16; .cfi_restore lr
  br ip0
  .cfi_endproc

/*
 * Copyright 2018-2025 Yury Gribov
 *
 * The MIT License (MIT)
 *
 * Use of this source code is governed by MIT license that can be
 * found in the LICENSE.txt file.
 */

  .globl cuDeviceTotalMem_v2
  .p2align 4
  .type cuDeviceTotalMem_v2, %function
#ifndef IMPLIB_EXPORT_SHIMS
  .hidden cuDeviceTotalMem_v2
#endif
cuDeviceTotalMem_v2:
  .cfi_startproc

1:
  // Load address
  // TODO: can we do this faster on newer ARMs?
  adrp ip0, _libcuda_so_tramp_table+752
  ldr ip0, [ip0, #:lo12:_libcuda_so_tramp_table+752]
 
  cbz ip0, 2f

  // Fast path
  br ip0

2:
  // Slow path
  mov ip0, 94 & 0xffff
#if 94 > 0xffff
  movk ip0, 94 >> 16, lsl #16
#endif
  stp ip0, lr, [sp, #-16]!; .cfi_adjust_cfa_offset 16; .cfi_rel_offset lr, 8
  bl _libcuda_so_save_regs_and_resolve
  ldp xzr, lr, [sp], #16; .cfi_adjust_cfa_offset -16; .cfi_restore lr
  br ip0
  .cfi_endproc

/*
 * Copyright 2018-2025 Yury Gribov
 *
 * The MIT License (MIT)
 *
 * Use of this source code is governed by MIT license that can be
 * found in the LICENSE.txt file.
 */

  .globl cuDeviceUnregisterAsyncNotification
  .p2align 4
  .type cuDeviceUnregisterAsyncNotification, %function
#ifndef IMPLIB_EXPORT_SHIMS
  .hidden cuDeviceUnregisterAsyncNotification
#endif
cuDeviceUnregisterAsyncNotification:
  .cfi_startproc

1:
  // Load address
  // TODO: can we do this faster on newer ARMs?
  adrp ip0, _libcuda_so_tramp_table+760
  ldr ip0, [ip0, #:lo12:_libcuda_so_tramp_table+760]
 
  cbz ip0, 2f

  // Fast path
  br ip0

2:
  // Slow path
  mov ip0, 95 & 0xffff
#if 95 > 0xffff
  movk ip0, 95 >> 16, lsl #16
#endif
  stp ip0, lr, [sp, #-16]!; .cfi_adjust_cfa_offset 16; .cfi_rel_offset lr, 8
  bl _libcuda_so_save_regs_and_resolve
  ldp xzr, lr, [sp], #16; .cfi_adjust_cfa_offset -16; .cfi_restore lr
  br ip0
  .cfi_endproc

/*
 * Copyright 2018-2025 Yury Gribov
 *
 * The MIT License (MIT)
 *
 * Use of this source code is governed by MIT license that can be
 * found in the LICENSE.txt file.
 */

  .globl cuDriverGetVersion
  .p2align 4
  .type cuDriverGetVersion, %function
#ifndef IMPLIB_EXPORT_SHIMS
  .hidden cuDriverGetVersion
#endif
cuDriverGetVersion:
  .cfi_startproc

1:
  // Load address
  // TODO: can we do this faster on newer ARMs?
  adrp ip0, _libcuda_so_tramp_table+768
  ldr ip0, [ip0, #:lo12:_libcuda_so_tramp_table+768]
 
  cbz ip0, 2f

  // Fast path
  br ip0

2:
  // Slow path
  mov ip0, 96 & 0xffff
#if 96 > 0xffff
  movk ip0, 96 >> 16, lsl #16
#endif
  stp ip0, lr, [sp, #-16]!; .cfi_adjust_cfa_offset 16; .cfi_rel_offset lr, 8
  bl _libcuda_so_save_regs_and_resolve
  ldp xzr, lr, [sp], #16; .cfi_adjust_cfa_offset -16; .cfi_restore lr
  br ip0
  .cfi_endproc

/*
 * Copyright 2018-2025 Yury Gribov
 *
 * The MIT License (MIT)
 *
 * Use of this source code is governed by MIT license that can be
 * found in the LICENSE.txt file.
 */

  .globl cuEGLApiInit
  .p2align 4
  .type cuEGLApiInit, %function
#ifndef IMPLIB_EXPORT_SHIMS
  .hidden cuEGLApiInit
#endif
cuEGLApiInit:
  .cfi_startproc

1:
  // Load address
  // TODO: can we do this faster on newer ARMs?
  adrp ip0, _libcuda_so_tramp_table+776
  ldr ip0, [ip0, #:lo12:_libcuda_so_tramp_table+776]
 
  cbz ip0, 2f

  // Fast path
  br ip0

2:
  // Slow path
  mov ip0, 97 & 0xffff
#if 97 > 0xffff
  movk ip0, 97 >> 16, lsl #16
#endif
  stp ip0, lr, [sp, #-16]!; .cfi_adjust_cfa_offset 16; .cfi_rel_offset lr, 8
  bl _libcuda_so_save_regs_and_resolve
  ldp xzr, lr, [sp], #16; .cfi_adjust_cfa_offset -16; .cfi_restore lr
  br ip0
  .cfi_endproc

/*
 * Copyright 2018-2025 Yury Gribov
 *
 * The MIT License (MIT)
 *
 * Use of this source code is governed by MIT license that can be
 * found in the LICENSE.txt file.
 */

  .globl cuEGLStreamConsumerAcquireFrame
  .p2align 4
  .type cuEGLStreamConsumerAcquireFrame, %function
#ifndef IMPLIB_EXPORT_SHIMS
  .hidden cuEGLStreamConsumerAcquireFrame
#endif
cuEGLStreamConsumerAcquireFrame:
  .cfi_startproc

1:
  // Load address
  // TODO: can we do this faster on newer ARMs?
  adrp ip0, _libcuda_so_tramp_table+784
  ldr ip0, [ip0, #:lo12:_libcuda_so_tramp_table+784]
 
  cbz ip0, 2f

  // Fast path
  br ip0

2:
  // Slow path
  mov ip0, 98 & 0xffff
#if 98 > 0xffff
  movk ip0, 98 >> 16, lsl #16
#endif
  stp ip0, lr, [sp, #-16]!; .cfi_adjust_cfa_offset 16; .cfi_rel_offset lr, 8
  bl _libcuda_so_save_regs_and_resolve
  ldp xzr, lr, [sp], #16; .cfi_adjust_cfa_offset -16; .cfi_restore lr
  br ip0
  .cfi_endproc

/*
 * Copyright 2018-2025 Yury Gribov
 *
 * The MIT License (MIT)
 *
 * Use of this source code is governed by MIT license that can be
 * found in the LICENSE.txt file.
 */

  .globl cuEGLStreamConsumerConnect
  .p2align 4
  .type cuEGLStreamConsumerConnect, %function
#ifndef IMPLIB_EXPORT_SHIMS
  .hidden cuEGLStreamConsumerConnect
#endif
cuEGLStreamConsumerConnect:
  .cfi_startproc

1:
  // Load address
  // TODO: can we do this faster on newer ARMs?
  adrp ip0, _libcuda_so_tramp_table+792
  ldr ip0, [ip0, #:lo12:_libcuda_so_tramp_table+792]
 
  cbz ip0, 2f

  // Fast path
  br ip0

2:
  // Slow path
  mov ip0, 99 & 0xffff
#if 99 > 0xffff
  movk ip0, 99 >> 16, lsl #16
#endif
  stp ip0, lr, [sp, #-16]!; .cfi_adjust_cfa_offset 16; .cfi_rel_offset lr, 8
  bl _libcuda_so_save_regs_and_resolve
  ldp xzr, lr, [sp], #16; .cfi_adjust_cfa_offset -16; .cfi_restore lr
  br ip0
  .cfi_endproc

/*
 * Copyright 2018-2025 Yury Gribov
 *
 * The MIT License (MIT)
 *
 * Use of this source code is governed by MIT license that can be
 * found in the LICENSE.txt file.
 */

  .globl cuEGLStreamConsumerConnectWithFlags
  .p2align 4
  .type cuEGLStreamConsumerConnectWithFlags, %function
#ifndef IMPLIB_EXPORT_SHIMS
  .hidden cuEGLStreamConsumerConnectWithFlags
#endif
cuEGLStreamConsumerConnectWithFlags:
  .cfi_startproc

1:
  // Load address
  // TODO: can we do this faster on newer ARMs?
  adrp ip0, _libcuda_so_tramp_table+800
  ldr ip0, [ip0, #:lo12:_libcuda_so_tramp_table+800]
 
  cbz ip0, 2f

  // Fast path
  br ip0

2:
  // Slow path
  mov ip0, 100 & 0xffff
#if 100 > 0xffff
  movk ip0, 100 >> 16, lsl #16
#endif
  stp ip0, lr, [sp, #-16]!; .cfi_adjust_cfa_offset 16; .cfi_rel_offset lr, 8
  bl _libcuda_so_save_regs_and_resolve
  ldp xzr, lr, [sp], #16; .cfi_adjust_cfa_offset -16; .cfi_restore lr
  br ip0
  .cfi_endproc

/*
 * Copyright 2018-2025 Yury Gribov
 *
 * The MIT License (MIT)
 *
 * Use of this source code is governed by MIT license that can be
 * found in the LICENSE.txt file.
 */

  .globl cuEGLStreamConsumerDisconnect
  .p2align 4
  .type cuEGLStreamConsumerDisconnect, %function
#ifndef IMPLIB_EXPORT_SHIMS
  .hidden cuEGLStreamConsumerDisconnect
#endif
cuEGLStreamConsumerDisconnect:
  .cfi_startproc

1:
  // Load address
  // TODO: can we do this faster on newer ARMs?
  adrp ip0, _libcuda_so_tramp_table+808
  ldr ip0, [ip0, #:lo12:_libcuda_so_tramp_table+808]
 
  cbz ip0, 2f

  // Fast path
  br ip0

2:
  // Slow path
  mov ip0, 101 & 0xffff
#if 101 > 0xffff
  movk ip0, 101 >> 16, lsl #16
#endif
  stp ip0, lr, [sp, #-16]!; .cfi_adjust_cfa_offset 16; .cfi_rel_offset lr, 8
  bl _libcuda_so_save_regs_and_resolve
  ldp xzr, lr, [sp], #16; .cfi_adjust_cfa_offset -16; .cfi_restore lr
  br ip0
  .cfi_endproc

/*
 * Copyright 2018-2025 Yury Gribov
 *
 * The MIT License (MIT)
 *
 * Use of this source code is governed by MIT license that can be
 * found in the LICENSE.txt file.
 */

  .globl cuEGLStreamConsumerReleaseFrame
  .p2align 4
  .type cuEGLStreamConsumerReleaseFrame, %function
#ifndef IMPLIB_EXPORT_SHIMS
  .hidden cuEGLStreamConsumerReleaseFrame
#endif
cuEGLStreamConsumerReleaseFrame:
  .cfi_startproc

1:
  // Load address
  // TODO: can we do this faster on newer ARMs?
  adrp ip0, _libcuda_so_tramp_table+816
  ldr ip0, [ip0, #:lo12:_libcuda_so_tramp_table+816]
 
  cbz ip0, 2f

  // Fast path
  br ip0

2:
  // Slow path
  mov ip0, 102 & 0xffff
#if 102 > 0xffff
  movk ip0, 102 >> 16, lsl #16
#endif
  stp ip0, lr, [sp, #-16]!; .cfi_adjust_cfa_offset 16; .cfi_rel_offset lr, 8
  bl _libcuda_so_save_regs_and_resolve
  ldp xzr, lr, [sp], #16; .cfi_adjust_cfa_offset -16; .cfi_restore lr
  br ip0
  .cfi_endproc

/*
 * Copyright 2018-2025 Yury Gribov
 *
 * The MIT License (MIT)
 *
 * Use of this source code is governed by MIT license that can be
 * found in the LICENSE.txt file.
 */

  .globl cuEGLStreamProducerConnect
  .p2align 4
  .type cuEGLStreamProducerConnect, %function
#ifndef IMPLIB_EXPORT_SHIMS
  .hidden cuEGLStreamProducerConnect
#endif
cuEGLStreamProducerConnect:
  .cfi_startproc

1:
  // Load address
  // TODO: can we do this faster on newer ARMs?
  adrp ip0, _libcuda_so_tramp_table+824
  ldr ip0, [ip0, #:lo12:_libcuda_so_tramp_table+824]
 
  cbz ip0, 2f

  // Fast path
  br ip0

2:
  // Slow path
  mov ip0, 103 & 0xffff
#if 103 > 0xffff
  movk ip0, 103 >> 16, lsl #16
#endif
  stp ip0, lr, [sp, #-16]!; .cfi_adjust_cfa_offset 16; .cfi_rel_offset lr, 8
  bl _libcuda_so_save_regs_and_resolve
  ldp xzr, lr, [sp], #16; .cfi_adjust_cfa_offset -16; .cfi_restore lr
  br ip0
  .cfi_endproc

/*
 * Copyright 2018-2025 Yury Gribov
 *
 * The MIT License (MIT)
 *
 * Use of this source code is governed by MIT license that can be
 * found in the LICENSE.txt file.
 */

  .globl cuEGLStreamProducerDisconnect
  .p2align 4
  .type cuEGLStreamProducerDisconnect, %function
#ifndef IMPLIB_EXPORT_SHIMS
  .hidden cuEGLStreamProducerDisconnect
#endif
cuEGLStreamProducerDisconnect:
  .cfi_startproc

1:
  // Load address
  // TODO: can we do this faster on newer ARMs?
  adrp ip0, _libcuda_so_tramp_table+832
  ldr ip0, [ip0, #:lo12:_libcuda_so_tramp_table+832]
 
  cbz ip0, 2f

  // Fast path
  br ip0

2:
  // Slow path
  mov ip0, 104 & 0xffff
#if 104 > 0xffff
  movk ip0, 104 >> 16, lsl #16
#endif
  stp ip0, lr, [sp, #-16]!; .cfi_adjust_cfa_offset 16; .cfi_rel_offset lr, 8
  bl _libcuda_so_save_regs_and_resolve
  ldp xzr, lr, [sp], #16; .cfi_adjust_cfa_offset -16; .cfi_restore lr
  br ip0
  .cfi_endproc

/*
 * Copyright 2018-2025 Yury Gribov
 *
 * The MIT License (MIT)
 *
 * Use of this source code is governed by MIT license that can be
 * found in the LICENSE.txt file.
 */

  .globl cuEGLStreamProducerPresentFrame
  .p2align 4
  .type cuEGLStreamProducerPresentFrame, %function
#ifndef IMPLIB_EXPORT_SHIMS
  .hidden cuEGLStreamProducerPresentFrame
#endif
cuEGLStreamProducerPresentFrame:
  .cfi_startproc

1:
  // Load address
  // TODO: can we do this faster on newer ARMs?
  adrp ip0, _libcuda_so_tramp_table+840
  ldr ip0, [ip0, #:lo12:_libcuda_so_tramp_table+840]
 
  cbz ip0, 2f

  // Fast path
  br ip0

2:
  // Slow path
  mov ip0, 105 & 0xffff
#if 105 > 0xffff
  movk ip0, 105 >> 16, lsl #16
#endif
  stp ip0, lr, [sp, #-16]!; .cfi_adjust_cfa_offset 16; .cfi_rel_offset lr, 8
  bl _libcuda_so_save_regs_and_resolve
  ldp xzr, lr, [sp], #16; .cfi_adjust_cfa_offset -16; .cfi_restore lr
  br ip0
  .cfi_endproc

/*
 * Copyright 2018-2025 Yury Gribov
 *
 * The MIT License (MIT)
 *
 * Use of this source code is governed by MIT license that can be
 * found in the LICENSE.txt file.
 */

  .globl cuEGLStreamProducerReturnFrame
  .p2align 4
  .type cuEGLStreamProducerReturnFrame, %function
#ifndef IMPLIB_EXPORT_SHIMS
  .hidden cuEGLStreamProducerReturnFrame
#endif
cuEGLStreamProducerReturnFrame:
  .cfi_startproc

1:
  // Load address
  // TODO: can we do this faster on newer ARMs?
  adrp ip0, _libcuda_so_tramp_table+848
  ldr ip0, [ip0, #:lo12:_libcuda_so_tramp_table+848]
 
  cbz ip0, 2f

  // Fast path
  br ip0

2:
  // Slow path
  mov ip0, 106 & 0xffff
#if 106 > 0xffff
  movk ip0, 106 >> 16, lsl #16
#endif
  stp ip0, lr, [sp, #-16]!; .cfi_adjust_cfa_offset 16; .cfi_rel_offset lr, 8
  bl _libcuda_so_save_regs_and_resolve
  ldp xzr, lr, [sp], #16; .cfi_adjust_cfa_offset -16; .cfi_restore lr
  br ip0
  .cfi_endproc

/*
 * Copyright 2018-2025 Yury Gribov
 *
 * The MIT License (MIT)
 *
 * Use of this source code is governed by MIT license that can be
 * found in the LICENSE.txt file.
 */

  .globl cuEventCreate
  .p2align 4
  .type cuEventCreate, %function
#ifndef IMPLIB_EXPORT_SHIMS
  .hidden cuEventCreate
#endif
cuEventCreate:
  .cfi_startproc

1:
  // Load address
  // TODO: can we do this faster on newer ARMs?
  adrp ip0, _libcuda_so_tramp_table+856
  ldr ip0, [ip0, #:lo12:_libcuda_so_tramp_table+856]
 
  cbz ip0, 2f

  // Fast path
  br ip0

2:
  // Slow path
  mov ip0, 107 & 0xffff
#if 107 > 0xffff
  movk ip0, 107 >> 16, lsl #16
#endif
  stp ip0, lr, [sp, #-16]!; .cfi_adjust_cfa_offset 16; .cfi_rel_offset lr, 8
  bl _libcuda_so_save_regs_and_resolve
  ldp xzr, lr, [sp], #16; .cfi_adjust_cfa_offset -16; .cfi_restore lr
  br ip0
  .cfi_endproc

/*
 * Copyright 2018-2025 Yury Gribov
 *
 * The MIT License (MIT)
 *
 * Use of this source code is governed by MIT license that can be
 * found in the LICENSE.txt file.
 */

  .globl cuEventDestroy
  .p2align 4
  .type cuEventDestroy, %function
#ifndef IMPLIB_EXPORT_SHIMS
  .hidden cuEventDestroy
#endif
cuEventDestroy:
  .cfi_startproc

1:
  // Load address
  // TODO: can we do this faster on newer ARMs?
  adrp ip0, _libcuda_so_tramp_table+864
  ldr ip0, [ip0, #:lo12:_libcuda_so_tramp_table+864]
 
  cbz ip0, 2f

  // Fast path
  br ip0

2:
  // Slow path
  mov ip0, 108 & 0xffff
#if 108 > 0xffff
  movk ip0, 108 >> 16, lsl #16
#endif
  stp ip0, lr, [sp, #-16]!; .cfi_adjust_cfa_offset 16; .cfi_rel_offset lr, 8
  bl _libcuda_so_save_regs_and_resolve
  ldp xzr, lr, [sp], #16; .cfi_adjust_cfa_offset -16; .cfi_restore lr
  br ip0
  .cfi_endproc

/*
 * Copyright 2018-2025 Yury Gribov
 *
 * The MIT License (MIT)
 *
 * Use of this source code is governed by MIT license that can be
 * found in the LICENSE.txt file.
 */

  .globl cuEventDestroy_v2
  .p2align 4
  .type cuEventDestroy_v2, %function
#ifndef IMPLIB_EXPORT_SHIMS
  .hidden cuEventDestroy_v2
#endif
cuEventDestroy_v2:
  .cfi_startproc

1:
  // Load address
  // TODO: can we do this faster on newer ARMs?
  adrp ip0, _libcuda_so_tramp_table+872
  ldr ip0, [ip0, #:lo12:_libcuda_so_tramp_table+872]
 
  cbz ip0, 2f

  // Fast path
  br ip0

2:
  // Slow path
  mov ip0, 109 & 0xffff
#if 109 > 0xffff
  movk ip0, 109 >> 16, lsl #16
#endif
  stp ip0, lr, [sp, #-16]!; .cfi_adjust_cfa_offset 16; .cfi_rel_offset lr, 8
  bl _libcuda_so_save_regs_and_resolve
  ldp xzr, lr, [sp], #16; .cfi_adjust_cfa_offset -16; .cfi_restore lr
  br ip0
  .cfi_endproc

/*
 * Copyright 2018-2025 Yury Gribov
 *
 * The MIT License (MIT)
 *
 * Use of this source code is governed by MIT license that can be
 * found in the LICENSE.txt file.
 */

  .globl cuEventElapsedTime
  .p2align 4
  .type cuEventElapsedTime, %function
#ifndef IMPLIB_EXPORT_SHIMS
  .hidden cuEventElapsedTime
#endif
cuEventElapsedTime:
  .cfi_startproc

1:
  // Load address
  // TODO: can we do this faster on newer ARMs?
  adrp ip0, _libcuda_so_tramp_table+880
  ldr ip0, [ip0, #:lo12:_libcuda_so_tramp_table+880]
 
  cbz ip0, 2f

  // Fast path
  br ip0

2:
  // Slow path
  mov ip0, 110 & 0xffff
#if 110 > 0xffff
  movk ip0, 110 >> 16, lsl #16
#endif
  stp ip0, lr, [sp, #-16]!; .cfi_adjust_cfa_offset 16; .cfi_rel_offset lr, 8
  bl _libcuda_so_save_regs_and_resolve
  ldp xzr, lr, [sp], #16; .cfi_adjust_cfa_offset -16; .cfi_restore lr
  br ip0
  .cfi_endproc

/*
 * Copyright 2018-2025 Yury Gribov
 *
 * The MIT License (MIT)
 *
 * Use of this source code is governed by MIT license that can be
 * found in the LICENSE.txt file.
 */

  .globl cuEventElapsedTime_v2
  .p2align 4
  .type cuEventElapsedTime_v2, %function
#ifndef IMPLIB_EXPORT_SHIMS
  .hidden cuEventElapsedTime_v2
#endif
cuEventElapsedTime_v2:
  .cfi_startproc

1:
  // Load address
  // TODO: can we do this faster on newer ARMs?
  adrp ip0, _libcuda_so_tramp_table+888
  ldr ip0, [ip0, #:lo12:_libcuda_so_tramp_table+888]
 
  cbz ip0, 2f

  // Fast path
  br ip0

2:
  // Slow path
  mov ip0, 111 & 0xffff
#if 111 > 0xffff
  movk ip0, 111 >> 16, lsl #16
#endif
  stp ip0, lr, [sp, #-16]!; .cfi_adjust_cfa_offset 16; .cfi_rel_offset lr, 8
  bl _libcuda_so_save_regs_and_resolve
  ldp xzr, lr, [sp], #16; .cfi_adjust_cfa_offset -16; .cfi_restore lr
  br ip0
  .cfi_endproc

/*
 * Copyright 2018-2025 Yury Gribov
 *
 * The MIT License (MIT)
 *
 * Use of this source code is governed by MIT license that can be
 * found in the LICENSE.txt file.
 */

  .globl cuEventQuery
  .p2align 4
  .type cuEventQuery, %function
#ifndef IMPLIB_EXPORT_SHIMS
  .hidden cuEventQuery
#endif
cuEventQuery:
  .cfi_startproc

1:
  // Load address
  // TODO: can we do this faster on newer ARMs?
  adrp ip0, _libcuda_so_tramp_table+896
  ldr ip0, [ip0, #:lo12:_libcuda_so_tramp_table+896]
 
  cbz ip0, 2f

  // Fast path
  br ip0

2:
  // Slow path
  mov ip0, 112 & 0xffff
#if 112 > 0xffff
  movk ip0, 112 >> 16, lsl #16
#endif
  stp ip0, lr, [sp, #-16]!; .cfi_adjust_cfa_offset 16; .cfi_rel_offset lr, 8
  bl _libcuda_so_save_regs_and_resolve
  ldp xzr, lr, [sp], #16; .cfi_adjust_cfa_offset -16; .cfi_restore lr
  br ip0
  .cfi_endproc

/*
 * Copyright 2018-2025 Yury Gribov
 *
 * The MIT License (MIT)
 *
 * Use of this source code is governed by MIT license that can be
 * found in the LICENSE.txt file.
 */

  .globl cuEventRecord
  .p2align 4
  .type cuEventRecord, %function
#ifndef IMPLIB_EXPORT_SHIMS
  .hidden cuEventRecord
#endif
cuEventRecord:
  .cfi_startproc

1:
  // Load address
  // TODO: can we do this faster on newer ARMs?
  adrp ip0, _libcuda_so_tramp_table+904
  ldr ip0, [ip0, #:lo12:_libcuda_so_tramp_table+904]
 
  cbz ip0, 2f

  // Fast path
  br ip0

2:
  // Slow path
  mov ip0, 113 & 0xffff
#if 113 > 0xffff
  movk ip0, 113 >> 16, lsl #16
#endif
  stp ip0, lr, [sp, #-16]!; .cfi_adjust_cfa_offset 16; .cfi_rel_offset lr, 8
  bl _libcuda_so_save_regs_and_resolve
  ldp xzr, lr, [sp], #16; .cfi_adjust_cfa_offset -16; .cfi_restore lr
  br ip0
  .cfi_endproc

/*
 * Copyright 2018-2025 Yury Gribov
 *
 * The MIT License (MIT)
 *
 * Use of this source code is governed by MIT license that can be
 * found in the LICENSE.txt file.
 */

  .globl cuEventRecordWithFlags
  .p2align 4
  .type cuEventRecordWithFlags, %function
#ifndef IMPLIB_EXPORT_SHIMS
  .hidden cuEventRecordWithFlags
#endif
cuEventRecordWithFlags:
  .cfi_startproc

1:
  // Load address
  // TODO: can we do this faster on newer ARMs?
  adrp ip0, _libcuda_so_tramp_table+912
  ldr ip0, [ip0, #:lo12:_libcuda_so_tramp_table+912]
 
  cbz ip0, 2f

  // Fast path
  br ip0

2:
  // Slow path
  mov ip0, 114 & 0xffff
#if 114 > 0xffff
  movk ip0, 114 >> 16, lsl #16
#endif
  stp ip0, lr, [sp, #-16]!; .cfi_adjust_cfa_offset 16; .cfi_rel_offset lr, 8
  bl _libcuda_so_save_regs_and_resolve
  ldp xzr, lr, [sp], #16; .cfi_adjust_cfa_offset -16; .cfi_restore lr
  br ip0
  .cfi_endproc

/*
 * Copyright 2018-2025 Yury Gribov
 *
 * The MIT License (MIT)
 *
 * Use of this source code is governed by MIT license that can be
 * found in the LICENSE.txt file.
 */

  .globl cuEventRecordWithFlags_ptsz
  .p2align 4
  .type cuEventRecordWithFlags_ptsz, %function
#ifndef IMPLIB_EXPORT_SHIMS
  .hidden cuEventRecordWithFlags_ptsz
#endif
cuEventRecordWithFlags_ptsz:
  .cfi_startproc

1:
  // Load address
  // TODO: can we do this faster on newer ARMs?
  adrp ip0, _libcuda_so_tramp_table+920
  ldr ip0, [ip0, #:lo12:_libcuda_so_tramp_table+920]
 
  cbz ip0, 2f

  // Fast path
  br ip0

2:
  // Slow path
  mov ip0, 115 & 0xffff
#if 115 > 0xffff
  movk ip0, 115 >> 16, lsl #16
#endif
  stp ip0, lr, [sp, #-16]!; .cfi_adjust_cfa_offset 16; .cfi_rel_offset lr, 8
  bl _libcuda_so_save_regs_and_resolve
  ldp xzr, lr, [sp], #16; .cfi_adjust_cfa_offset -16; .cfi_restore lr
  br ip0
  .cfi_endproc

/*
 * Copyright 2018-2025 Yury Gribov
 *
 * The MIT License (MIT)
 *
 * Use of this source code is governed by MIT license that can be
 * found in the LICENSE.txt file.
 */

  .globl cuEventRecord_ptsz
  .p2align 4
  .type cuEventRecord_ptsz, %function
#ifndef IMPLIB_EXPORT_SHIMS
  .hidden cuEventRecord_ptsz
#endif
cuEventRecord_ptsz:
  .cfi_startproc

1:
  // Load address
  // TODO: can we do this faster on newer ARMs?
  adrp ip0, _libcuda_so_tramp_table+928
  ldr ip0, [ip0, #:lo12:_libcuda_so_tramp_table+928]
 
  cbz ip0, 2f

  // Fast path
  br ip0

2:
  // Slow path
  mov ip0, 116 & 0xffff
#if 116 > 0xffff
  movk ip0, 116 >> 16, lsl #16
#endif
  stp ip0, lr, [sp, #-16]!; .cfi_adjust_cfa_offset 16; .cfi_rel_offset lr, 8
  bl _libcuda_so_save_regs_and_resolve
  ldp xzr, lr, [sp], #16; .cfi_adjust_cfa_offset -16; .cfi_restore lr
  br ip0
  .cfi_endproc

/*
 * Copyright 2018-2025 Yury Gribov
 *
 * The MIT License (MIT)
 *
 * Use of this source code is governed by MIT license that can be
 * found in the LICENSE.txt file.
 */

  .globl cuEventSynchronize
  .p2align 4
  .type cuEventSynchronize, %function
#ifndef IMPLIB_EXPORT_SHIMS
  .hidden cuEventSynchronize
#endif
cuEventSynchronize:
  .cfi_startproc

1:
  // Load address
  // TODO: can we do this faster on newer ARMs?
  adrp ip0, _libcuda_so_tramp_table+936
  ldr ip0, [ip0, #:lo12:_libcuda_so_tramp_table+936]
 
  cbz ip0, 2f

  // Fast path
  br ip0

2:
  // Slow path
  mov ip0, 117 & 0xffff
#if 117 > 0xffff
  movk ip0, 117 >> 16, lsl #16
#endif
  stp ip0, lr, [sp, #-16]!; .cfi_adjust_cfa_offset 16; .cfi_rel_offset lr, 8
  bl _libcuda_so_save_regs_and_resolve
  ldp xzr, lr, [sp], #16; .cfi_adjust_cfa_offset -16; .cfi_restore lr
  br ip0
  .cfi_endproc

/*
 * Copyright 2018-2025 Yury Gribov
 *
 * The MIT License (MIT)
 *
 * Use of this source code is governed by MIT license that can be
 * found in the LICENSE.txt file.
 */

  .globl cuExternalMemoryGetMappedBuffer
  .p2align 4
  .type cuExternalMemoryGetMappedBuffer, %function
#ifndef IMPLIB_EXPORT_SHIMS
  .hidden cuExternalMemoryGetMappedBuffer
#endif
cuExternalMemoryGetMappedBuffer:
  .cfi_startproc

1:
  // Load address
  // TODO: can we do this faster on newer ARMs?
  adrp ip0, _libcuda_so_tramp_table+944
  ldr ip0, [ip0, #:lo12:_libcuda_so_tramp_table+944]
 
  cbz ip0, 2f

  // Fast path
  br ip0

2:
  // Slow path
  mov ip0, 118 & 0xffff
#if 118 > 0xffff
  movk ip0, 118 >> 16, lsl #16
#endif
  stp ip0, lr, [sp, #-16]!; .cfi_adjust_cfa_offset 16; .cfi_rel_offset lr, 8
  bl _libcuda_so_save_regs_and_resolve
  ldp xzr, lr, [sp], #16; .cfi_adjust_cfa_offset -16; .cfi_restore lr
  br ip0
  .cfi_endproc

/*
 * Copyright 2018-2025 Yury Gribov
 *
 * The MIT License (MIT)
 *
 * Use of this source code is governed by MIT license that can be
 * found in the LICENSE.txt file.
 */

  .globl cuExternalMemoryGetMappedMipmappedArray
  .p2align 4
  .type cuExternalMemoryGetMappedMipmappedArray, %function
#ifndef IMPLIB_EXPORT_SHIMS
  .hidden cuExternalMemoryGetMappedMipmappedArray
#endif
cuExternalMemoryGetMappedMipmappedArray:
  .cfi_startproc

1:
  // Load address
  // TODO: can we do this faster on newer ARMs?
  adrp ip0, _libcuda_so_tramp_table+952
  ldr ip0, [ip0, #:lo12:_libcuda_so_tramp_table+952]
 
  cbz ip0, 2f

  // Fast path
  br ip0

2:
  // Slow path
  mov ip0, 119 & 0xffff
#if 119 > 0xffff
  movk ip0, 119 >> 16, lsl #16
#endif
  stp ip0, lr, [sp, #-16]!; .cfi_adjust_cfa_offset 16; .cfi_rel_offset lr, 8
  bl _libcuda_so_save_regs_and_resolve
  ldp xzr, lr, [sp], #16; .cfi_adjust_cfa_offset -16; .cfi_restore lr
  br ip0
  .cfi_endproc

/*
 * Copyright 2018-2025 Yury Gribov
 *
 * The MIT License (MIT)
 *
 * Use of this source code is governed by MIT license that can be
 * found in the LICENSE.txt file.
 */

  .globl cuFlushGPUDirectRDMAWrites
  .p2align 4
  .type cuFlushGPUDirectRDMAWrites, %function
#ifndef IMPLIB_EXPORT_SHIMS
  .hidden cuFlushGPUDirectRDMAWrites
#endif
cuFlushGPUDirectRDMAWrites:
  .cfi_startproc

1:
  // Load address
  // TODO: can we do this faster on newer ARMs?
  adrp ip0, _libcuda_so_tramp_table+960
  ldr ip0, [ip0, #:lo12:_libcuda_so_tramp_table+960]
 
  cbz ip0, 2f

  // Fast path
  br ip0

2:
  // Slow path
  mov ip0, 120 & 0xffff
#if 120 > 0xffff
  movk ip0, 120 >> 16, lsl #16
#endif
  stp ip0, lr, [sp, #-16]!; .cfi_adjust_cfa_offset 16; .cfi_rel_offset lr, 8
  bl _libcuda_so_save_regs_and_resolve
  ldp xzr, lr, [sp], #16; .cfi_adjust_cfa_offset -16; .cfi_restore lr
  br ip0
  .cfi_endproc

/*
 * Copyright 2018-2025 Yury Gribov
 *
 * The MIT License (MIT)
 *
 * Use of this source code is governed by MIT license that can be
 * found in the LICENSE.txt file.
 */

  .globl cuFuncGetAttribute
  .p2align 4
  .type cuFuncGetAttribute, %function
#ifndef IMPLIB_EXPORT_SHIMS
  .hidden cuFuncGetAttribute
#endif
cuFuncGetAttribute:
  .cfi_startproc

1:
  // Load address
  // TODO: can we do this faster on newer ARMs?
  adrp ip0, _libcuda_so_tramp_table+968
  ldr ip0, [ip0, #:lo12:_libcuda_so_tramp_table+968]
 
  cbz ip0, 2f

  // Fast path
  br ip0

2:
  // Slow path
  mov ip0, 121 & 0xffff
#if 121 > 0xffff
  movk ip0, 121 >> 16, lsl #16
#endif
  stp ip0, lr, [sp, #-16]!; .cfi_adjust_cfa_offset 16; .cfi_rel_offset lr, 8
  bl _libcuda_so_save_regs_and_resolve
  ldp xzr, lr, [sp], #16; .cfi_adjust_cfa_offset -16; .cfi_restore lr
  br ip0
  .cfi_endproc

/*
 * Copyright 2018-2025 Yury Gribov
 *
 * The MIT License (MIT)
 *
 * Use of this source code is governed by MIT license that can be
 * found in the LICENSE.txt file.
 */

  .globl cuFuncGetModule
  .p2align 4
  .type cuFuncGetModule, %function
#ifndef IMPLIB_EXPORT_SHIMS
  .hidden cuFuncGetModule
#endif
cuFuncGetModule:
  .cfi_startproc

1:
  // Load address
  // TODO: can we do this faster on newer ARMs?
  adrp ip0, _libcuda_so_tramp_table+976
  ldr ip0, [ip0, #:lo12:_libcuda_so_tramp_table+976]
 
  cbz ip0, 2f

  // Fast path
  br ip0

2:
  // Slow path
  mov ip0, 122 & 0xffff
#if 122 > 0xffff
  movk ip0, 122 >> 16, lsl #16
#endif
  stp ip0, lr, [sp, #-16]!; .cfi_adjust_cfa_offset 16; .cfi_rel_offset lr, 8
  bl _libcuda_so_save_regs_and_resolve
  ldp xzr, lr, [sp], #16; .cfi_adjust_cfa_offset -16; .cfi_restore lr
  br ip0
  .cfi_endproc

/*
 * Copyright 2018-2025 Yury Gribov
 *
 * The MIT License (MIT)
 *
 * Use of this source code is governed by MIT license that can be
 * found in the LICENSE.txt file.
 */

  .globl cuFuncGetName
  .p2align 4
  .type cuFuncGetName, %function
#ifndef IMPLIB_EXPORT_SHIMS
  .hidden cuFuncGetName
#endif
cuFuncGetName:
  .cfi_startproc

1:
  // Load address
  // TODO: can we do this faster on newer ARMs?
  adrp ip0, _libcuda_so_tramp_table+984
  ldr ip0, [ip0, #:lo12:_libcuda_so_tramp_table+984]
 
  cbz ip0, 2f

  // Fast path
  br ip0

2:
  // Slow path
  mov ip0, 123 & 0xffff
#if 123 > 0xffff
  movk ip0, 123 >> 16, lsl #16
#endif
  stp ip0, lr, [sp, #-16]!; .cfi_adjust_cfa_offset 16; .cfi_rel_offset lr, 8
  bl _libcuda_so_save_regs_and_resolve
  ldp xzr, lr, [sp], #16; .cfi_adjust_cfa_offset -16; .cfi_restore lr
  br ip0
  .cfi_endproc

/*
 * Copyright 2018-2025 Yury Gribov
 *
 * The MIT License (MIT)
 *
 * Use of this source code is governed by MIT license that can be
 * found in the LICENSE.txt file.
 */

  .globl cuFuncGetParamInfo
  .p2align 4
  .type cuFuncGetParamInfo, %function
#ifndef IMPLIB_EXPORT_SHIMS
  .hidden cuFuncGetParamInfo
#endif
cuFuncGetParamInfo:
  .cfi_startproc

1:
  // Load address
  // TODO: can we do this faster on newer ARMs?
  adrp ip0, _libcuda_so_tramp_table+992
  ldr ip0, [ip0, #:lo12:_libcuda_so_tramp_table+992]
 
  cbz ip0, 2f

  // Fast path
  br ip0

2:
  // Slow path
  mov ip0, 124 & 0xffff
#if 124 > 0xffff
  movk ip0, 124 >> 16, lsl #16
#endif
  stp ip0, lr, [sp, #-16]!; .cfi_adjust_cfa_offset 16; .cfi_rel_offset lr, 8
  bl _libcuda_so_save_regs_and_resolve
  ldp xzr, lr, [sp], #16; .cfi_adjust_cfa_offset -16; .cfi_restore lr
  br ip0
  .cfi_endproc

/*
 * Copyright 2018-2025 Yury Gribov
 *
 * The MIT License (MIT)
 *
 * Use of this source code is governed by MIT license that can be
 * found in the LICENSE.txt file.
 */

  .globl cuFuncIsLoaded
  .p2align 4
  .type cuFuncIsLoaded, %function
#ifndef IMPLIB_EXPORT_SHIMS
  .hidden cuFuncIsLoaded
#endif
cuFuncIsLoaded:
  .cfi_startproc

1:
  // Load address
  // TODO: can we do this faster on newer ARMs?
  adrp ip0, _libcuda_so_tramp_table+1000
  ldr ip0, [ip0, #:lo12:_libcuda_so_tramp_table+1000]
 
  cbz ip0, 2f

  // Fast path
  br ip0

2:
  // Slow path
  mov ip0, 125 & 0xffff
#if 125 > 0xffff
  movk ip0, 125 >> 16, lsl #16
#endif
  stp ip0, lr, [sp, #-16]!; .cfi_adjust_cfa_offset 16; .cfi_rel_offset lr, 8
  bl _libcuda_so_save_regs_and_resolve
  ldp xzr, lr, [sp], #16; .cfi_adjust_cfa_offset -16; .cfi_restore lr
  br ip0
  .cfi_endproc

/*
 * Copyright 2018-2025 Yury Gribov
 *
 * The MIT License (MIT)
 *
 * Use of this source code is governed by MIT license that can be
 * found in the LICENSE.txt file.
 */

  .globl cuFuncLoad
  .p2align 4
  .type cuFuncLoad, %function
#ifndef IMPLIB_EXPORT_SHIMS
  .hidden cuFuncLoad
#endif
cuFuncLoad:
  .cfi_startproc

1:
  // Load address
  // TODO: can we do this faster on newer ARMs?
  adrp ip0, _libcuda_so_tramp_table+1008
  ldr ip0, [ip0, #:lo12:_libcuda_so_tramp_table+1008]
 
  cbz ip0, 2f

  // Fast path
  br ip0

2:
  // Slow path
  mov ip0, 126 & 0xffff
#if 126 > 0xffff
  movk ip0, 126 >> 16, lsl #16
#endif
  stp ip0, lr, [sp, #-16]!; .cfi_adjust_cfa_offset 16; .cfi_rel_offset lr, 8
  bl _libcuda_so_save_regs_and_resolve
  ldp xzr, lr, [sp], #16; .cfi_adjust_cfa_offset -16; .cfi_restore lr
  br ip0
  .cfi_endproc

/*
 * Copyright 2018-2025 Yury Gribov
 *
 * The MIT License (MIT)
 *
 * Use of this source code is governed by MIT license that can be
 * found in the LICENSE.txt file.
 */

  .globl cuFuncSetAttribute
  .p2align 4
  .type cuFuncSetAttribute, %function
#ifndef IMPLIB_EXPORT_SHIMS
  .hidden cuFuncSetAttribute
#endif
cuFuncSetAttribute:
  .cfi_startproc

1:
  // Load address
  // TODO: can we do this faster on newer ARMs?
  adrp ip0, _libcuda_so_tramp_table+1016
  ldr ip0, [ip0, #:lo12:_libcuda_so_tramp_table+1016]
 
  cbz ip0, 2f

  // Fast path
  br ip0

2:
  // Slow path
  mov ip0, 127 & 0xffff
#if 127 > 0xffff
  movk ip0, 127 >> 16, lsl #16
#endif
  stp ip0, lr, [sp, #-16]!; .cfi_adjust_cfa_offset 16; .cfi_rel_offset lr, 8
  bl _libcuda_so_save_regs_and_resolve
  ldp xzr, lr, [sp], #16; .cfi_adjust_cfa_offset -16; .cfi_restore lr
  br ip0
  .cfi_endproc

/*
 * Copyright 2018-2025 Yury Gribov
 *
 * The MIT License (MIT)
 *
 * Use of this source code is governed by MIT license that can be
 * found in the LICENSE.txt file.
 */

  .globl cuFuncSetBlockShape
  .p2align 4
  .type cuFuncSetBlockShape, %function
#ifndef IMPLIB_EXPORT_SHIMS
  .hidden cuFuncSetBlockShape
#endif
cuFuncSetBlockShape:
  .cfi_startproc

1:
  // Load address
  // TODO: can we do this faster on newer ARMs?
  adrp ip0, _libcuda_so_tramp_table+1024
  ldr ip0, [ip0, #:lo12:_libcuda_so_tramp_table+1024]
 
  cbz ip0, 2f

  // Fast path
  br ip0

2:
  // Slow path
  mov ip0, 128 & 0xffff
#if 128 > 0xffff
  movk ip0, 128 >> 16, lsl #16
#endif
  stp ip0, lr, [sp, #-16]!; .cfi_adjust_cfa_offset 16; .cfi_rel_offset lr, 8
  bl _libcuda_so_save_regs_and_resolve
  ldp xzr, lr, [sp], #16; .cfi_adjust_cfa_offset -16; .cfi_restore lr
  br ip0
  .cfi_endproc

/*
 * Copyright 2018-2025 Yury Gribov
 *
 * The MIT License (MIT)
 *
 * Use of this source code is governed by MIT license that can be
 * found in the LICENSE.txt file.
 */

  .globl cuFuncSetCacheConfig
  .p2align 4
  .type cuFuncSetCacheConfig, %function
#ifndef IMPLIB_EXPORT_SHIMS
  .hidden cuFuncSetCacheConfig
#endif
cuFuncSetCacheConfig:
  .cfi_startproc

1:
  // Load address
  // TODO: can we do this faster on newer ARMs?
  adrp ip0, _libcuda_so_tramp_table+1032
  ldr ip0, [ip0, #:lo12:_libcuda_so_tramp_table+1032]
 
  cbz ip0, 2f

  // Fast path
  br ip0

2:
  // Slow path
  mov ip0, 129 & 0xffff
#if 129 > 0xffff
  movk ip0, 129 >> 16, lsl #16
#endif
  stp ip0, lr, [sp, #-16]!; .cfi_adjust_cfa_offset 16; .cfi_rel_offset lr, 8
  bl _libcuda_so_save_regs_and_resolve
  ldp xzr, lr, [sp], #16; .cfi_adjust_cfa_offset -16; .cfi_restore lr
  br ip0
  .cfi_endproc

/*
 * Copyright 2018-2025 Yury Gribov
 *
 * The MIT License (MIT)
 *
 * Use of this source code is governed by MIT license that can be
 * found in the LICENSE.txt file.
 */

  .globl cuFuncSetSharedMemConfig
  .p2align 4
  .type cuFuncSetSharedMemConfig, %function
#ifndef IMPLIB_EXPORT_SHIMS
  .hidden cuFuncSetSharedMemConfig
#endif
cuFuncSetSharedMemConfig:
  .cfi_startproc

1:
  // Load address
  // TODO: can we do this faster on newer ARMs?
  adrp ip0, _libcuda_so_tramp_table+1040
  ldr ip0, [ip0, #:lo12:_libcuda_so_tramp_table+1040]
 
  cbz ip0, 2f

  // Fast path
  br ip0

2:
  // Slow path
  mov ip0, 130 & 0xffff
#if 130 > 0xffff
  movk ip0, 130 >> 16, lsl #16
#endif
  stp ip0, lr, [sp, #-16]!; .cfi_adjust_cfa_offset 16; .cfi_rel_offset lr, 8
  bl _libcuda_so_save_regs_and_resolve
  ldp xzr, lr, [sp], #16; .cfi_adjust_cfa_offset -16; .cfi_restore lr
  br ip0
  .cfi_endproc

/*
 * Copyright 2018-2025 Yury Gribov
 *
 * The MIT License (MIT)
 *
 * Use of this source code is governed by MIT license that can be
 * found in the LICENSE.txt file.
 */

  .globl cuFuncSetSharedSize
  .p2align 4
  .type cuFuncSetSharedSize, %function
#ifndef IMPLIB_EXPORT_SHIMS
  .hidden cuFuncSetSharedSize
#endif
cuFuncSetSharedSize:
  .cfi_startproc

1:
  // Load address
  // TODO: can we do this faster on newer ARMs?
  adrp ip0, _libcuda_so_tramp_table+1048
  ldr ip0, [ip0, #:lo12:_libcuda_so_tramp_table+1048]
 
  cbz ip0, 2f

  // Fast path
  br ip0

2:
  // Slow path
  mov ip0, 131 & 0xffff
#if 131 > 0xffff
  movk ip0, 131 >> 16, lsl #16
#endif
  stp ip0, lr, [sp, #-16]!; .cfi_adjust_cfa_offset 16; .cfi_rel_offset lr, 8
  bl _libcuda_so_save_regs_and_resolve
  ldp xzr, lr, [sp], #16; .cfi_adjust_cfa_offset -16; .cfi_restore lr
  br ip0
  .cfi_endproc

/*
 * Copyright 2018-2025 Yury Gribov
 *
 * The MIT License (MIT)
 *
 * Use of this source code is governed by MIT license that can be
 * found in the LICENSE.txt file.
 */

  .globl cuGLCtxCreate
  .p2align 4
  .type cuGLCtxCreate, %function
#ifndef IMPLIB_EXPORT_SHIMS
  .hidden cuGLCtxCreate
#endif
cuGLCtxCreate:
  .cfi_startproc

1:
  // Load address
  // TODO: can we do this faster on newer ARMs?
  adrp ip0, _libcuda_so_tramp_table+1056
  ldr ip0, [ip0, #:lo12:_libcuda_so_tramp_table+1056]
 
  cbz ip0, 2f

  // Fast path
  br ip0

2:
  // Slow path
  mov ip0, 132 & 0xffff
#if 132 > 0xffff
  movk ip0, 132 >> 16, lsl #16
#endif
  stp ip0, lr, [sp, #-16]!; .cfi_adjust_cfa_offset 16; .cfi_rel_offset lr, 8
  bl _libcuda_so_save_regs_and_resolve
  ldp xzr, lr, [sp], #16; .cfi_adjust_cfa_offset -16; .cfi_restore lr
  br ip0
  .cfi_endproc

/*
 * Copyright 2018-2025 Yury Gribov
 *
 * The MIT License (MIT)
 *
 * Use of this source code is governed by MIT license that can be
 * found in the LICENSE.txt file.
 */

  .globl cuGLCtxCreate_v2
  .p2align 4
  .type cuGLCtxCreate_v2, %function
#ifndef IMPLIB_EXPORT_SHIMS
  .hidden cuGLCtxCreate_v2
#endif
cuGLCtxCreate_v2:
  .cfi_startproc

1:
  // Load address
  // TODO: can we do this faster on newer ARMs?
  adrp ip0, _libcuda_so_tramp_table+1064
  ldr ip0, [ip0, #:lo12:_libcuda_so_tramp_table+1064]
 
  cbz ip0, 2f

  // Fast path
  br ip0

2:
  // Slow path
  mov ip0, 133 & 0xffff
#if 133 > 0xffff
  movk ip0, 133 >> 16, lsl #16
#endif
  stp ip0, lr, [sp, #-16]!; .cfi_adjust_cfa_offset 16; .cfi_rel_offset lr, 8
  bl _libcuda_so_save_regs_and_resolve
  ldp xzr, lr, [sp], #16; .cfi_adjust_cfa_offset -16; .cfi_restore lr
  br ip0
  .cfi_endproc

/*
 * Copyright 2018-2025 Yury Gribov
 *
 * The MIT License (MIT)
 *
 * Use of this source code is governed by MIT license that can be
 * found in the LICENSE.txt file.
 */

  .globl cuGLGetDevices
  .p2align 4
  .type cuGLGetDevices, %function
#ifndef IMPLIB_EXPORT_SHIMS
  .hidden cuGLGetDevices
#endif
cuGLGetDevices:
  .cfi_startproc

1:
  // Load address
  // TODO: can we do this faster on newer ARMs?
  adrp ip0, _libcuda_so_tramp_table+1072
  ldr ip0, [ip0, #:lo12:_libcuda_so_tramp_table+1072]
 
  cbz ip0, 2f

  // Fast path
  br ip0

2:
  // Slow path
  mov ip0, 134 & 0xffff
#if 134 > 0xffff
  movk ip0, 134 >> 16, lsl #16
#endif
  stp ip0, lr, [sp, #-16]!; .cfi_adjust_cfa_offset 16; .cfi_rel_offset lr, 8
  bl _libcuda_so_save_regs_and_resolve
  ldp xzr, lr, [sp], #16; .cfi_adjust_cfa_offset -16; .cfi_restore lr
  br ip0
  .cfi_endproc

/*
 * Copyright 2018-2025 Yury Gribov
 *
 * The MIT License (MIT)
 *
 * Use of this source code is governed by MIT license that can be
 * found in the LICENSE.txt file.
 */

  .globl cuGLGetDevices_v2
  .p2align 4
  .type cuGLGetDevices_v2, %function
#ifndef IMPLIB_EXPORT_SHIMS
  .hidden cuGLGetDevices_v2
#endif
cuGLGetDevices_v2:
  .cfi_startproc

1:
  // Load address
  // TODO: can we do this faster on newer ARMs?
  adrp ip0, _libcuda_so_tramp_table+1080
  ldr ip0, [ip0, #:lo12:_libcuda_so_tramp_table+1080]
 
  cbz ip0, 2f

  // Fast path
  br ip0

2:
  // Slow path
  mov ip0, 135 & 0xffff
#if 135 > 0xffff
  movk ip0, 135 >> 16, lsl #16
#endif
  stp ip0, lr, [sp, #-16]!; .cfi_adjust_cfa_offset 16; .cfi_rel_offset lr, 8
  bl _libcuda_so_save_regs_and_resolve
  ldp xzr, lr, [sp], #16; .cfi_adjust_cfa_offset -16; .cfi_restore lr
  br ip0
  .cfi_endproc

/*
 * Copyright 2018-2025 Yury Gribov
 *
 * The MIT License (MIT)
 *
 * Use of this source code is governed by MIT license that can be
 * found in the LICENSE.txt file.
 */

  .globl cuGLInit
  .p2align 4
  .type cuGLInit, %function
#ifndef IMPLIB_EXPORT_SHIMS
  .hidden cuGLInit
#endif
cuGLInit:
  .cfi_startproc

1:
  // Load address
  // TODO: can we do this faster on newer ARMs?
  adrp ip0, _libcuda_so_tramp_table+1088
  ldr ip0, [ip0, #:lo12:_libcuda_so_tramp_table+1088]
 
  cbz ip0, 2f

  // Fast path
  br ip0

2:
  // Slow path
  mov ip0, 136 & 0xffff
#if 136 > 0xffff
  movk ip0, 136 >> 16, lsl #16
#endif
  stp ip0, lr, [sp, #-16]!; .cfi_adjust_cfa_offset 16; .cfi_rel_offset lr, 8
  bl _libcuda_so_save_regs_and_resolve
  ldp xzr, lr, [sp], #16; .cfi_adjust_cfa_offset -16; .cfi_restore lr
  br ip0
  .cfi_endproc

/*
 * Copyright 2018-2025 Yury Gribov
 *
 * The MIT License (MIT)
 *
 * Use of this source code is governed by MIT license that can be
 * found in the LICENSE.txt file.
 */

  .globl cuGLMapBufferObject
  .p2align 4
  .type cuGLMapBufferObject, %function
#ifndef IMPLIB_EXPORT_SHIMS
  .hidden cuGLMapBufferObject
#endif
cuGLMapBufferObject:
  .cfi_startproc

1:
  // Load address
  // TODO: can we do this faster on newer ARMs?
  adrp ip0, _libcuda_so_tramp_table+1096
  ldr ip0, [ip0, #:lo12:_libcuda_so_tramp_table+1096]
 
  cbz ip0, 2f

  // Fast path
  br ip0

2:
  // Slow path
  mov ip0, 137 & 0xffff
#if 137 > 0xffff
  movk ip0, 137 >> 16, lsl #16
#endif
  stp ip0, lr, [sp, #-16]!; .cfi_adjust_cfa_offset 16; .cfi_rel_offset lr, 8
  bl _libcuda_so_save_regs_and_resolve
  ldp xzr, lr, [sp], #16; .cfi_adjust_cfa_offset -16; .cfi_restore lr
  br ip0
  .cfi_endproc

/*
 * Copyright 2018-2025 Yury Gribov
 *
 * The MIT License (MIT)
 *
 * Use of this source code is governed by MIT license that can be
 * found in the LICENSE.txt file.
 */

  .globl cuGLMapBufferObjectAsync
  .p2align 4
  .type cuGLMapBufferObjectAsync, %function
#ifndef IMPLIB_EXPORT_SHIMS
  .hidden cuGLMapBufferObjectAsync
#endif
cuGLMapBufferObjectAsync:
  .cfi_startproc

1:
  // Load address
  // TODO: can we do this faster on newer ARMs?
  adrp ip0, _libcuda_so_tramp_table+1104
  ldr ip0, [ip0, #:lo12:_libcuda_so_tramp_table+1104]
 
  cbz ip0, 2f

  // Fast path
  br ip0

2:
  // Slow path
  mov ip0, 138 & 0xffff
#if 138 > 0xffff
  movk ip0, 138 >> 16, lsl #16
#endif
  stp ip0, lr, [sp, #-16]!; .cfi_adjust_cfa_offset 16; .cfi_rel_offset lr, 8
  bl _libcuda_so_save_regs_and_resolve
  ldp xzr, lr, [sp], #16; .cfi_adjust_cfa_offset -16; .cfi_restore lr
  br ip0
  .cfi_endproc

/*
 * Copyright 2018-2025 Yury Gribov
 *
 * The MIT License (MIT)
 *
 * Use of this source code is governed by MIT license that can be
 * found in the LICENSE.txt file.
 */

  .globl cuGLMapBufferObjectAsync_v2
  .p2align 4
  .type cuGLMapBufferObjectAsync_v2, %function
#ifndef IMPLIB_EXPORT_SHIMS
  .hidden cuGLMapBufferObjectAsync_v2
#endif
cuGLMapBufferObjectAsync_v2:
  .cfi_startproc

1:
  // Load address
  // TODO: can we do this faster on newer ARMs?
  adrp ip0, _libcuda_so_tramp_table+1112
  ldr ip0, [ip0, #:lo12:_libcuda_so_tramp_table+1112]
 
  cbz ip0, 2f

  // Fast path
  br ip0

2:
  // Slow path
  mov ip0, 139 & 0xffff
#if 139 > 0xffff
  movk ip0, 139 >> 16, lsl #16
#endif
  stp ip0, lr, [sp, #-16]!; .cfi_adjust_cfa_offset 16; .cfi_rel_offset lr, 8
  bl _libcuda_so_save_regs_and_resolve
  ldp xzr, lr, [sp], #16; .cfi_adjust_cfa_offset -16; .cfi_restore lr
  br ip0
  .cfi_endproc

/*
 * Copyright 2018-2025 Yury Gribov
 *
 * The MIT License (MIT)
 *
 * Use of this source code is governed by MIT license that can be
 * found in the LICENSE.txt file.
 */

  .globl cuGLMapBufferObjectAsync_v2_ptsz
  .p2align 4
  .type cuGLMapBufferObjectAsync_v2_ptsz, %function
#ifndef IMPLIB_EXPORT_SHIMS
  .hidden cuGLMapBufferObjectAsync_v2_ptsz
#endif
cuGLMapBufferObjectAsync_v2_ptsz:
  .cfi_startproc

1:
  // Load address
  // TODO: can we do this faster on newer ARMs?
  adrp ip0, _libcuda_so_tramp_table+1120
  ldr ip0, [ip0, #:lo12:_libcuda_so_tramp_table+1120]
 
  cbz ip0, 2f

  // Fast path
  br ip0

2:
  // Slow path
  mov ip0, 140 & 0xffff
#if 140 > 0xffff
  movk ip0, 140 >> 16, lsl #16
#endif
  stp ip0, lr, [sp, #-16]!; .cfi_adjust_cfa_offset 16; .cfi_rel_offset lr, 8
  bl _libcuda_so_save_regs_and_resolve
  ldp xzr, lr, [sp], #16; .cfi_adjust_cfa_offset -16; .cfi_restore lr
  br ip0
  .cfi_endproc

/*
 * Copyright 2018-2025 Yury Gribov
 *
 * The MIT License (MIT)
 *
 * Use of this source code is governed by MIT license that can be
 * found in the LICENSE.txt file.
 */

  .globl cuGLMapBufferObject_v2
  .p2align 4
  .type cuGLMapBufferObject_v2, %function
#ifndef IMPLIB_EXPORT_SHIMS
  .hidden cuGLMapBufferObject_v2
#endif
cuGLMapBufferObject_v2:
  .cfi_startproc

1:
  // Load address
  // TODO: can we do this faster on newer ARMs?
  adrp ip0, _libcuda_so_tramp_table+1128
  ldr ip0, [ip0, #:lo12:_libcuda_so_tramp_table+1128]
 
  cbz ip0, 2f

  // Fast path
  br ip0

2:
  // Slow path
  mov ip0, 141 & 0xffff
#if 141 > 0xffff
  movk ip0, 141 >> 16, lsl #16
#endif
  stp ip0, lr, [sp, #-16]!; .cfi_adjust_cfa_offset 16; .cfi_rel_offset lr, 8
  bl _libcuda_so_save_regs_and_resolve
  ldp xzr, lr, [sp], #16; .cfi_adjust_cfa_offset -16; .cfi_restore lr
  br ip0
  .cfi_endproc

/*
 * Copyright 2018-2025 Yury Gribov
 *
 * The MIT License (MIT)
 *
 * Use of this source code is governed by MIT license that can be
 * found in the LICENSE.txt file.
 */

  .globl cuGLMapBufferObject_v2_ptds
  .p2align 4
  .type cuGLMapBufferObject_v2_ptds, %function
#ifndef IMPLIB_EXPORT_SHIMS
  .hidden cuGLMapBufferObject_v2_ptds
#endif
cuGLMapBufferObject_v2_ptds:
  .cfi_startproc

1:
  // Load address
  // TODO: can we do this faster on newer ARMs?
  adrp ip0, _libcuda_so_tramp_table+1136
  ldr ip0, [ip0, #:lo12:_libcuda_so_tramp_table+1136]
 
  cbz ip0, 2f

  // Fast path
  br ip0

2:
  // Slow path
  mov ip0, 142 & 0xffff
#if 142 > 0xffff
  movk ip0, 142 >> 16, lsl #16
#endif
  stp ip0, lr, [sp, #-16]!; .cfi_adjust_cfa_offset 16; .cfi_rel_offset lr, 8
  bl _libcuda_so_save_regs_and_resolve
  ldp xzr, lr, [sp], #16; .cfi_adjust_cfa_offset -16; .cfi_restore lr
  br ip0
  .cfi_endproc

/*
 * Copyright 2018-2025 Yury Gribov
 *
 * The MIT License (MIT)
 *
 * Use of this source code is governed by MIT license that can be
 * found in the LICENSE.txt file.
 */

  .globl cuGLRegisterBufferObject
  .p2align 4
  .type cuGLRegisterBufferObject, %function
#ifndef IMPLIB_EXPORT_SHIMS
  .hidden cuGLRegisterBufferObject
#endif
cuGLRegisterBufferObject:
  .cfi_startproc

1:
  // Load address
  // TODO: can we do this faster on newer ARMs?
  adrp ip0, _libcuda_so_tramp_table+1144
  ldr ip0, [ip0, #:lo12:_libcuda_so_tramp_table+1144]
 
  cbz ip0, 2f

  // Fast path
  br ip0

2:
  // Slow path
  mov ip0, 143 & 0xffff
#if 143 > 0xffff
  movk ip0, 143 >> 16, lsl #16
#endif
  stp ip0, lr, [sp, #-16]!; .cfi_adjust_cfa_offset 16; .cfi_rel_offset lr, 8
  bl _libcuda_so_save_regs_and_resolve
  ldp xzr, lr, [sp], #16; .cfi_adjust_cfa_offset -16; .cfi_restore lr
  br ip0
  .cfi_endproc

/*
 * Copyright 2018-2025 Yury Gribov
 *
 * The MIT License (MIT)
 *
 * Use of this source code is governed by MIT license that can be
 * found in the LICENSE.txt file.
 */

  .globl cuGLSetBufferObjectMapFlags
  .p2align 4
  .type cuGLSetBufferObjectMapFlags, %function
#ifndef IMPLIB_EXPORT_SHIMS
  .hidden cuGLSetBufferObjectMapFlags
#endif
cuGLSetBufferObjectMapFlags:
  .cfi_startproc

1:
  // Load address
  // TODO: can we do this faster on newer ARMs?
  adrp ip0, _libcuda_so_tramp_table+1152
  ldr ip0, [ip0, #:lo12:_libcuda_so_tramp_table+1152]
 
  cbz ip0, 2f

  // Fast path
  br ip0

2:
  // Slow path
  mov ip0, 144 & 0xffff
#if 144 > 0xffff
  movk ip0, 144 >> 16, lsl #16
#endif
  stp ip0, lr, [sp, #-16]!; .cfi_adjust_cfa_offset 16; .cfi_rel_offset lr, 8
  bl _libcuda_so_save_regs_and_resolve
  ldp xzr, lr, [sp], #16; .cfi_adjust_cfa_offset -16; .cfi_restore lr
  br ip0
  .cfi_endproc

/*
 * Copyright 2018-2025 Yury Gribov
 *
 * The MIT License (MIT)
 *
 * Use of this source code is governed by MIT license that can be
 * found in the LICENSE.txt file.
 */

  .globl cuGLUnmapBufferObject
  .p2align 4
  .type cuGLUnmapBufferObject, %function
#ifndef IMPLIB_EXPORT_SHIMS
  .hidden cuGLUnmapBufferObject
#endif
cuGLUnmapBufferObject:
  .cfi_startproc

1:
  // Load address
  // TODO: can we do this faster on newer ARMs?
  adrp ip0, _libcuda_so_tramp_table+1160
  ldr ip0, [ip0, #:lo12:_libcuda_so_tramp_table+1160]
 
  cbz ip0, 2f

  // Fast path
  br ip0

2:
  // Slow path
  mov ip0, 145 & 0xffff
#if 145 > 0xffff
  movk ip0, 145 >> 16, lsl #16
#endif
  stp ip0, lr, [sp, #-16]!; .cfi_adjust_cfa_offset 16; .cfi_rel_offset lr, 8
  bl _libcuda_so_save_regs_and_resolve
  ldp xzr, lr, [sp], #16; .cfi_adjust_cfa_offset -16; .cfi_restore lr
  br ip0
  .cfi_endproc

/*
 * Copyright 2018-2025 Yury Gribov
 *
 * The MIT License (MIT)
 *
 * Use of this source code is governed by MIT license that can be
 * found in the LICENSE.txt file.
 */

  .globl cuGLUnmapBufferObjectAsync
  .p2align 4
  .type cuGLUnmapBufferObjectAsync, %function
#ifndef IMPLIB_EXPORT_SHIMS
  .hidden cuGLUnmapBufferObjectAsync
#endif
cuGLUnmapBufferObjectAsync:
  .cfi_startproc

1:
  // Load address
  // TODO: can we do this faster on newer ARMs?
  adrp ip0, _libcuda_so_tramp_table+1168
  ldr ip0, [ip0, #:lo12:_libcuda_so_tramp_table+1168]
 
  cbz ip0, 2f

  // Fast path
  br ip0

2:
  // Slow path
  mov ip0, 146 & 0xffff
#if 146 > 0xffff
  movk ip0, 146 >> 16, lsl #16
#endif
  stp ip0, lr, [sp, #-16]!; .cfi_adjust_cfa_offset 16; .cfi_rel_offset lr, 8
  bl _libcuda_so_save_regs_and_resolve
  ldp xzr, lr, [sp], #16; .cfi_adjust_cfa_offset -16; .cfi_restore lr
  br ip0
  .cfi_endproc

/*
 * Copyright 2018-2025 Yury Gribov
 *
 * The MIT License (MIT)
 *
 * Use of this source code is governed by MIT license that can be
 * found in the LICENSE.txt file.
 */

  .globl cuGLUnregisterBufferObject
  .p2align 4
  .type cuGLUnregisterBufferObject, %function
#ifndef IMPLIB_EXPORT_SHIMS
  .hidden cuGLUnregisterBufferObject
#endif
cuGLUnregisterBufferObject:
  .cfi_startproc

1:
  // Load address
  // TODO: can we do this faster on newer ARMs?
  adrp ip0, _libcuda_so_tramp_table+1176
  ldr ip0, [ip0, #:lo12:_libcuda_so_tramp_table+1176]
 
  cbz ip0, 2f

  // Fast path
  br ip0

2:
  // Slow path
  mov ip0, 147 & 0xffff
#if 147 > 0xffff
  movk ip0, 147 >> 16, lsl #16
#endif
  stp ip0, lr, [sp, #-16]!; .cfi_adjust_cfa_offset 16; .cfi_rel_offset lr, 8
  bl _libcuda_so_save_regs_and_resolve
  ldp xzr, lr, [sp], #16; .cfi_adjust_cfa_offset -16; .cfi_restore lr
  br ip0
  .cfi_endproc

/*
 * Copyright 2018-2025 Yury Gribov
 *
 * The MIT License (MIT)
 *
 * Use of this source code is governed by MIT license that can be
 * found in the LICENSE.txt file.
 */

  .globl cuGetErrorName
  .p2align 4
  .type cuGetErrorName, %function
#ifndef IMPLIB_EXPORT_SHIMS
  .hidden cuGetErrorName
#endif
cuGetErrorName:
  .cfi_startproc

1:
  // Load address
  // TODO: can we do this faster on newer ARMs?
  adrp ip0, _libcuda_so_tramp_table+1184
  ldr ip0, [ip0, #:lo12:_libcuda_so_tramp_table+1184]
 
  cbz ip0, 2f

  // Fast path
  br ip0

2:
  // Slow path
  mov ip0, 148 & 0xffff
#if 148 > 0xffff
  movk ip0, 148 >> 16, lsl #16
#endif
  stp ip0, lr, [sp, #-16]!; .cfi_adjust_cfa_offset 16; .cfi_rel_offset lr, 8
  bl _libcuda_so_save_regs_and_resolve
  ldp xzr, lr, [sp], #16; .cfi_adjust_cfa_offset -16; .cfi_restore lr
  br ip0
  .cfi_endproc

/*
 * Copyright 2018-2025 Yury Gribov
 *
 * The MIT License (MIT)
 *
 * Use of this source code is governed by MIT license that can be
 * found in the LICENSE.txt file.
 */

  .globl cuGetErrorString
  .p2align 4
  .type cuGetErrorString, %function
#ifndef IMPLIB_EXPORT_SHIMS
  .hidden cuGetErrorString
#endif
cuGetErrorString:
  .cfi_startproc

1:
  // Load address
  // TODO: can we do this faster on newer ARMs?
  adrp ip0, _libcuda_so_tramp_table+1192
  ldr ip0, [ip0, #:lo12:_libcuda_so_tramp_table+1192]
 
  cbz ip0, 2f

  // Fast path
  br ip0

2:
  // Slow path
  mov ip0, 149 & 0xffff
#if 149 > 0xffff
  movk ip0, 149 >> 16, lsl #16
#endif
  stp ip0, lr, [sp, #-16]!; .cfi_adjust_cfa_offset 16; .cfi_rel_offset lr, 8
  bl _libcuda_so_save_regs_and_resolve
  ldp xzr, lr, [sp], #16; .cfi_adjust_cfa_offset -16; .cfi_restore lr
  br ip0
  .cfi_endproc

/*
 * Copyright 2018-2025 Yury Gribov
 *
 * The MIT License (MIT)
 *
 * Use of this source code is governed by MIT license that can be
 * found in the LICENSE.txt file.
 */

  .globl cuGetExportTable
  .p2align 4
  .type cuGetExportTable, %function
#ifndef IMPLIB_EXPORT_SHIMS
  .hidden cuGetExportTable
#endif
cuGetExportTable:
  .cfi_startproc

1:
  // Load address
  // TODO: can we do this faster on newer ARMs?
  adrp ip0, _libcuda_so_tramp_table+1200
  ldr ip0, [ip0, #:lo12:_libcuda_so_tramp_table+1200]
 
  cbz ip0, 2f

  // Fast path
  br ip0

2:
  // Slow path
  mov ip0, 150 & 0xffff
#if 150 > 0xffff
  movk ip0, 150 >> 16, lsl #16
#endif
  stp ip0, lr, [sp, #-16]!; .cfi_adjust_cfa_offset 16; .cfi_rel_offset lr, 8
  bl _libcuda_so_save_regs_and_resolve
  ldp xzr, lr, [sp], #16; .cfi_adjust_cfa_offset -16; .cfi_restore lr
  br ip0
  .cfi_endproc

/*
 * Copyright 2018-2025 Yury Gribov
 *
 * The MIT License (MIT)
 *
 * Use of this source code is governed by MIT license that can be
 * found in the LICENSE.txt file.
 */

  .globl cuGetProcAddress
  .p2align 4
  .type cuGetProcAddress, %function
#ifndef IMPLIB_EXPORT_SHIMS
  .hidden cuGetProcAddress
#endif
cuGetProcAddress:
  .cfi_startproc

1:
  // Load address
  // TODO: can we do this faster on newer ARMs?
  adrp ip0, _libcuda_so_tramp_table+1208
  ldr ip0, [ip0, #:lo12:_libcuda_so_tramp_table+1208]
 
  cbz ip0, 2f

  // Fast path
  br ip0

2:
  // Slow path
  mov ip0, 151 & 0xffff
#if 151 > 0xffff
  movk ip0, 151 >> 16, lsl #16
#endif
  stp ip0, lr, [sp, #-16]!; .cfi_adjust_cfa_offset 16; .cfi_rel_offset lr, 8
  bl _libcuda_so_save_regs_and_resolve
  ldp xzr, lr, [sp], #16; .cfi_adjust_cfa_offset -16; .cfi_restore lr
  br ip0
  .cfi_endproc

/*
 * Copyright 2018-2025 Yury Gribov
 *
 * The MIT License (MIT)
 *
 * Use of this source code is governed by MIT license that can be
 * found in the LICENSE.txt file.
 */

  .globl cuGetProcAddress_v2
  .p2align 4
  .type cuGetProcAddress_v2, %function
#ifndef IMPLIB_EXPORT_SHIMS
  .hidden cuGetProcAddress_v2
#endif
cuGetProcAddress_v2:
  .cfi_startproc

1:
  // Load address
  // TODO: can we do this faster on newer ARMs?
  adrp ip0, _libcuda_so_tramp_table+1216
  ldr ip0, [ip0, #:lo12:_libcuda_so_tramp_table+1216]
 
  cbz ip0, 2f

  // Fast path
  br ip0

2:
  // Slow path
  mov ip0, 152 & 0xffff
#if 152 > 0xffff
  movk ip0, 152 >> 16, lsl #16
#endif
  stp ip0, lr, [sp, #-16]!; .cfi_adjust_cfa_offset 16; .cfi_rel_offset lr, 8
  bl _libcuda_so_save_regs_and_resolve
  ldp xzr, lr, [sp], #16; .cfi_adjust_cfa_offset -16; .cfi_restore lr
  br ip0
  .cfi_endproc

/*
 * Copyright 2018-2025 Yury Gribov
 *
 * The MIT License (MIT)
 *
 * Use of this source code is governed by MIT license that can be
 * found in the LICENSE.txt file.
 */

  .globl cuGraphAddBatchMemOpNode
  .p2align 4
  .type cuGraphAddBatchMemOpNode, %function
#ifndef IMPLIB_EXPORT_SHIMS
  .hidden cuGraphAddBatchMemOpNode
#endif
cuGraphAddBatchMemOpNode:
  .cfi_startproc

1:
  // Load address
  // TODO: can we do this faster on newer ARMs?
  adrp ip0, _libcuda_so_tramp_table+1224
  ldr ip0, [ip0, #:lo12:_libcuda_so_tramp_table+1224]
 
  cbz ip0, 2f

  // Fast path
  br ip0

2:
  // Slow path
  mov ip0, 153 & 0xffff
#if 153 > 0xffff
  movk ip0, 153 >> 16, lsl #16
#endif
  stp ip0, lr, [sp, #-16]!; .cfi_adjust_cfa_offset 16; .cfi_rel_offset lr, 8
  bl _libcuda_so_save_regs_and_resolve
  ldp xzr, lr, [sp], #16; .cfi_adjust_cfa_offset -16; .cfi_restore lr
  br ip0
  .cfi_endproc

/*
 * Copyright 2018-2025 Yury Gribov
 *
 * The MIT License (MIT)
 *
 * Use of this source code is governed by MIT license that can be
 * found in the LICENSE.txt file.
 */

  .globl cuGraphAddChildGraphNode
  .p2align 4
  .type cuGraphAddChildGraphNode, %function
#ifndef IMPLIB_EXPORT_SHIMS
  .hidden cuGraphAddChildGraphNode
#endif
cuGraphAddChildGraphNode:
  .cfi_startproc

1:
  // Load address
  // TODO: can we do this faster on newer ARMs?
  adrp ip0, _libcuda_so_tramp_table+1232
  ldr ip0, [ip0, #:lo12:_libcuda_so_tramp_table+1232]
 
  cbz ip0, 2f

  // Fast path
  br ip0

2:
  // Slow path
  mov ip0, 154 & 0xffff
#if 154 > 0xffff
  movk ip0, 154 >> 16, lsl #16
#endif
  stp ip0, lr, [sp, #-16]!; .cfi_adjust_cfa_offset 16; .cfi_rel_offset lr, 8
  bl _libcuda_so_save_regs_and_resolve
  ldp xzr, lr, [sp], #16; .cfi_adjust_cfa_offset -16; .cfi_restore lr
  br ip0
  .cfi_endproc

/*
 * Copyright 2018-2025 Yury Gribov
 *
 * The MIT License (MIT)
 *
 * Use of this source code is governed by MIT license that can be
 * found in the LICENSE.txt file.
 */

  .globl cuGraphAddDependencies
  .p2align 4
  .type cuGraphAddDependencies, %function
#ifndef IMPLIB_EXPORT_SHIMS
  .hidden cuGraphAddDependencies
#endif
cuGraphAddDependencies:
  .cfi_startproc

1:
  // Load address
  // TODO: can we do this faster on newer ARMs?
  adrp ip0, _libcuda_so_tramp_table+1240
  ldr ip0, [ip0, #:lo12:_libcuda_so_tramp_table+1240]
 
  cbz ip0, 2f

  // Fast path
  br ip0

2:
  // Slow path
  mov ip0, 155 & 0xffff
#if 155 > 0xffff
  movk ip0, 155 >> 16, lsl #16
#endif
  stp ip0, lr, [sp, #-16]!; .cfi_adjust_cfa_offset 16; .cfi_rel_offset lr, 8
  bl _libcuda_so_save_regs_and_resolve
  ldp xzr, lr, [sp], #16; .cfi_adjust_cfa_offset -16; .cfi_restore lr
  br ip0
  .cfi_endproc

/*
 * Copyright 2018-2025 Yury Gribov
 *
 * The MIT License (MIT)
 *
 * Use of this source code is governed by MIT license that can be
 * found in the LICENSE.txt file.
 */

  .globl cuGraphAddDependencies_v2
  .p2align 4
  .type cuGraphAddDependencies_v2, %function
#ifndef IMPLIB_EXPORT_SHIMS
  .hidden cuGraphAddDependencies_v2
#endif
cuGraphAddDependencies_v2:
  .cfi_startproc

1:
  // Load address
  // TODO: can we do this faster on newer ARMs?
  adrp ip0, _libcuda_so_tramp_table+1248
  ldr ip0, [ip0, #:lo12:_libcuda_so_tramp_table+1248]
 
  cbz ip0, 2f

  // Fast path
  br ip0

2:
  // Slow path
  mov ip0, 156 & 0xffff
#if 156 > 0xffff
  movk ip0, 156 >> 16, lsl #16
#endif
  stp ip0, lr, [sp, #-16]!; .cfi_adjust_cfa_offset 16; .cfi_rel_offset lr, 8
  bl _libcuda_so_save_regs_and_resolve
  ldp xzr, lr, [sp], #16; .cfi_adjust_cfa_offset -16; .cfi_restore lr
  br ip0
  .cfi_endproc

/*
 * Copyright 2018-2025 Yury Gribov
 *
 * The MIT License (MIT)
 *
 * Use of this source code is governed by MIT license that can be
 * found in the LICENSE.txt file.
 */

  .globl cuGraphAddEmptyNode
  .p2align 4
  .type cuGraphAddEmptyNode, %function
#ifndef IMPLIB_EXPORT_SHIMS
  .hidden cuGraphAddEmptyNode
#endif
cuGraphAddEmptyNode:
  .cfi_startproc

1:
  // Load address
  // TODO: can we do this faster on newer ARMs?
  adrp ip0, _libcuda_so_tramp_table+1256
  ldr ip0, [ip0, #:lo12:_libcuda_so_tramp_table+1256]
 
  cbz ip0, 2f

  // Fast path
  br ip0

2:
  // Slow path
  mov ip0, 157 & 0xffff
#if 157 > 0xffff
  movk ip0, 157 >> 16, lsl #16
#endif
  stp ip0, lr, [sp, #-16]!; .cfi_adjust_cfa_offset 16; .cfi_rel_offset lr, 8
  bl _libcuda_so_save_regs_and_resolve
  ldp xzr, lr, [sp], #16; .cfi_adjust_cfa_offset -16; .cfi_restore lr
  br ip0
  .cfi_endproc

/*
 * Copyright 2018-2025 Yury Gribov
 *
 * The MIT License (MIT)
 *
 * Use of this source code is governed by MIT license that can be
 * found in the LICENSE.txt file.
 */

  .globl cuGraphAddEventRecordNode
  .p2align 4
  .type cuGraphAddEventRecordNode, %function
#ifndef IMPLIB_EXPORT_SHIMS
  .hidden cuGraphAddEventRecordNode
#endif
cuGraphAddEventRecordNode:
  .cfi_startproc

1:
  // Load address
  // TODO: can we do this faster on newer ARMs?
  adrp ip0, _libcuda_so_tramp_table+1264
  ldr ip0, [ip0, #:lo12:_libcuda_so_tramp_table+1264]
 
  cbz ip0, 2f

  // Fast path
  br ip0

2:
  // Slow path
  mov ip0, 158 & 0xffff
#if 158 > 0xffff
  movk ip0, 158 >> 16, lsl #16
#endif
  stp ip0, lr, [sp, #-16]!; .cfi_adjust_cfa_offset 16; .cfi_rel_offset lr, 8
  bl _libcuda_so_save_regs_and_resolve
  ldp xzr, lr, [sp], #16; .cfi_adjust_cfa_offset -16; .cfi_restore lr
  br ip0
  .cfi_endproc

/*
 * Copyright 2018-2025 Yury Gribov
 *
 * The MIT License (MIT)
 *
 * Use of this source code is governed by MIT license that can be
 * found in the LICENSE.txt file.
 */

  .globl cuGraphAddEventWaitNode
  .p2align 4
  .type cuGraphAddEventWaitNode, %function
#ifndef IMPLIB_EXPORT_SHIMS
  .hidden cuGraphAddEventWaitNode
#endif
cuGraphAddEventWaitNode:
  .cfi_startproc

1:
  // Load address
  // TODO: can we do this faster on newer ARMs?
  adrp ip0, _libcuda_so_tramp_table+1272
  ldr ip0, [ip0, #:lo12:_libcuda_so_tramp_table+1272]
 
  cbz ip0, 2f

  // Fast path
  br ip0

2:
  // Slow path
  mov ip0, 159 & 0xffff
#if 159 > 0xffff
  movk ip0, 159 >> 16, lsl #16
#endif
  stp ip0, lr, [sp, #-16]!; .cfi_adjust_cfa_offset 16; .cfi_rel_offset lr, 8
  bl _libcuda_so_save_regs_and_resolve
  ldp xzr, lr, [sp], #16; .cfi_adjust_cfa_offset -16; .cfi_restore lr
  br ip0
  .cfi_endproc

/*
 * Copyright 2018-2025 Yury Gribov
 *
 * The MIT License (MIT)
 *
 * Use of this source code is governed by MIT license that can be
 * found in the LICENSE.txt file.
 */

  .globl cuGraphAddExternalSemaphoresSignalNode
  .p2align 4
  .type cuGraphAddExternalSemaphoresSignalNode, %function
#ifndef IMPLIB_EXPORT_SHIMS
  .hidden cuGraphAddExternalSemaphoresSignalNode
#endif
cuGraphAddExternalSemaphoresSignalNode:
  .cfi_startproc

1:
  // Load address
  // TODO: can we do this faster on newer ARMs?
  adrp ip0, _libcuda_so_tramp_table+1280
  ldr ip0, [ip0, #:lo12:_libcuda_so_tramp_table+1280]
 
  cbz ip0, 2f

  // Fast path
  br ip0

2:
  // Slow path
  mov ip0, 160 & 0xffff
#if 160 > 0xffff
  movk ip0, 160 >> 16, lsl #16
#endif
  stp ip0, lr, [sp, #-16]!; .cfi_adjust_cfa_offset 16; .cfi_rel_offset lr, 8
  bl _libcuda_so_save_regs_and_resolve
  ldp xzr, lr, [sp], #16; .cfi_adjust_cfa_offset -16; .cfi_restore lr
  br ip0
  .cfi_endproc

/*
 * Copyright 2018-2025 Yury Gribov
 *
 * The MIT License (MIT)
 *
 * Use of this source code is governed by MIT license that can be
 * found in the LICENSE.txt file.
 */

  .globl cuGraphAddExternalSemaphoresWaitNode
  .p2align 4
  .type cuGraphAddExternalSemaphoresWaitNode, %function
#ifndef IMPLIB_EXPORT_SHIMS
  .hidden cuGraphAddExternalSemaphoresWaitNode
#endif
cuGraphAddExternalSemaphoresWaitNode:
  .cfi_startproc

1:
  // Load address
  // TODO: can we do this faster on newer ARMs?
  adrp ip0, _libcuda_so_tramp_table+1288
  ldr ip0, [ip0, #:lo12:_libcuda_so_tramp_table+1288]
 
  cbz ip0, 2f

  // Fast path
  br ip0

2:
  // Slow path
  mov ip0, 161 & 0xffff
#if 161 > 0xffff
  movk ip0, 161 >> 16, lsl #16
#endif
  stp ip0, lr, [sp, #-16]!; .cfi_adjust_cfa_offset 16; .cfi_rel_offset lr, 8
  bl _libcuda_so_save_regs_and_resolve
  ldp xzr, lr, [sp], #16; .cfi_adjust_cfa_offset -16; .cfi_restore lr
  br ip0
  .cfi_endproc

/*
 * Copyright 2018-2025 Yury Gribov
 *
 * The MIT License (MIT)
 *
 * Use of this source code is governed by MIT license that can be
 * found in the LICENSE.txt file.
 */

  .globl cuGraphAddHostNode
  .p2align 4
  .type cuGraphAddHostNode, %function
#ifndef IMPLIB_EXPORT_SHIMS
  .hidden cuGraphAddHostNode
#endif
cuGraphAddHostNode:
  .cfi_startproc

1:
  // Load address
  // TODO: can we do this faster on newer ARMs?
  adrp ip0, _libcuda_so_tramp_table+1296
  ldr ip0, [ip0, #:lo12:_libcuda_so_tramp_table+1296]
 
  cbz ip0, 2f

  // Fast path
  br ip0

2:
  // Slow path
  mov ip0, 162 & 0xffff
#if 162 > 0xffff
  movk ip0, 162 >> 16, lsl #16
#endif
  stp ip0, lr, [sp, #-16]!; .cfi_adjust_cfa_offset 16; .cfi_rel_offset lr, 8
  bl _libcuda_so_save_regs_and_resolve
  ldp xzr, lr, [sp], #16; .cfi_adjust_cfa_offset -16; .cfi_restore lr
  br ip0
  .cfi_endproc

/*
 * Copyright 2018-2025 Yury Gribov
 *
 * The MIT License (MIT)
 *
 * Use of this source code is governed by MIT license that can be
 * found in the LICENSE.txt file.
 */

  .globl cuGraphAddKernelNode
  .p2align 4
  .type cuGraphAddKernelNode, %function
#ifndef IMPLIB_EXPORT_SHIMS
  .hidden cuGraphAddKernelNode
#endif
cuGraphAddKernelNode:
  .cfi_startproc

1:
  // Load address
  // TODO: can we do this faster on newer ARMs?
  adrp ip0, _libcuda_so_tramp_table+1304
  ldr ip0, [ip0, #:lo12:_libcuda_so_tramp_table+1304]
 
  cbz ip0, 2f

  // Fast path
  br ip0

2:
  // Slow path
  mov ip0, 163 & 0xffff
#if 163 > 0xffff
  movk ip0, 163 >> 16, lsl #16
#endif
  stp ip0, lr, [sp, #-16]!; .cfi_adjust_cfa_offset 16; .cfi_rel_offset lr, 8
  bl _libcuda_so_save_regs_and_resolve
  ldp xzr, lr, [sp], #16; .cfi_adjust_cfa_offset -16; .cfi_restore lr
  br ip0
  .cfi_endproc

/*
 * Copyright 2018-2025 Yury Gribov
 *
 * The MIT License (MIT)
 *
 * Use of this source code is governed by MIT license that can be
 * found in the LICENSE.txt file.
 */

  .globl cuGraphAddKernelNode_v2
  .p2align 4
  .type cuGraphAddKernelNode_v2, %function
#ifndef IMPLIB_EXPORT_SHIMS
  .hidden cuGraphAddKernelNode_v2
#endif
cuGraphAddKernelNode_v2:
  .cfi_startproc

1:
  // Load address
  // TODO: can we do this faster on newer ARMs?
  adrp ip0, _libcuda_so_tramp_table+1312
  ldr ip0, [ip0, #:lo12:_libcuda_so_tramp_table+1312]
 
  cbz ip0, 2f

  // Fast path
  br ip0

2:
  // Slow path
  mov ip0, 164 & 0xffff
#if 164 > 0xffff
  movk ip0, 164 >> 16, lsl #16
#endif
  stp ip0, lr, [sp, #-16]!; .cfi_adjust_cfa_offset 16; .cfi_rel_offset lr, 8
  bl _libcuda_so_save_regs_and_resolve
  ldp xzr, lr, [sp], #16; .cfi_adjust_cfa_offset -16; .cfi_restore lr
  br ip0
  .cfi_endproc

/*
 * Copyright 2018-2025 Yury Gribov
 *
 * The MIT License (MIT)
 *
 * Use of this source code is governed by MIT license that can be
 * found in the LICENSE.txt file.
 */

  .globl cuGraphAddMemAllocNode
  .p2align 4
  .type cuGraphAddMemAllocNode, %function
#ifndef IMPLIB_EXPORT_SHIMS
  .hidden cuGraphAddMemAllocNode
#endif
cuGraphAddMemAllocNode:
  .cfi_startproc

1:
  // Load address
  // TODO: can we do this faster on newer ARMs?
  adrp ip0, _libcuda_so_tramp_table+1320
  ldr ip0, [ip0, #:lo12:_libcuda_so_tramp_table+1320]
 
  cbz ip0, 2f

  // Fast path
  br ip0

2:
  // Slow path
  mov ip0, 165 & 0xffff
#if 165 > 0xffff
  movk ip0, 165 >> 16, lsl #16
#endif
  stp ip0, lr, [sp, #-16]!; .cfi_adjust_cfa_offset 16; .cfi_rel_offset lr, 8
  bl _libcuda_so_save_regs_and_resolve
  ldp xzr, lr, [sp], #16; .cfi_adjust_cfa_offset -16; .cfi_restore lr
  br ip0
  .cfi_endproc

/*
 * Copyright 2018-2025 Yury Gribov
 *
 * The MIT License (MIT)
 *
 * Use of this source code is governed by MIT license that can be
 * found in the LICENSE.txt file.
 */

  .globl cuGraphAddMemFreeNode
  .p2align 4
  .type cuGraphAddMemFreeNode, %function
#ifndef IMPLIB_EXPORT_SHIMS
  .hidden cuGraphAddMemFreeNode
#endif
cuGraphAddMemFreeNode:
  .cfi_startproc

1:
  // Load address
  // TODO: can we do this faster on newer ARMs?
  adrp ip0, _libcuda_so_tramp_table+1328
  ldr ip0, [ip0, #:lo12:_libcuda_so_tramp_table+1328]
 
  cbz ip0, 2f

  // Fast path
  br ip0

2:
  // Slow path
  mov ip0, 166 & 0xffff
#if 166 > 0xffff
  movk ip0, 166 >> 16, lsl #16
#endif
  stp ip0, lr, [sp, #-16]!; .cfi_adjust_cfa_offset 16; .cfi_rel_offset lr, 8
  bl _libcuda_so_save_regs_and_resolve
  ldp xzr, lr, [sp], #16; .cfi_adjust_cfa_offset -16; .cfi_restore lr
  br ip0
  .cfi_endproc

/*
 * Copyright 2018-2025 Yury Gribov
 *
 * The MIT License (MIT)
 *
 * Use of this source code is governed by MIT license that can be
 * found in the LICENSE.txt file.
 */

  .globl cuGraphAddMemcpyNode
  .p2align 4
  .type cuGraphAddMemcpyNode, %function
#ifndef IMPLIB_EXPORT_SHIMS
  .hidden cuGraphAddMemcpyNode
#endif
cuGraphAddMemcpyNode:
  .cfi_startproc

1:
  // Load address
  // TODO: can we do this faster on newer ARMs?
  adrp ip0, _libcuda_so_tramp_table+1336
  ldr ip0, [ip0, #:lo12:_libcuda_so_tramp_table+1336]
 
  cbz ip0, 2f

  // Fast path
  br ip0

2:
  // Slow path
  mov ip0, 167 & 0xffff
#if 167 > 0xffff
  movk ip0, 167 >> 16, lsl #16
#endif
  stp ip0, lr, [sp, #-16]!; .cfi_adjust_cfa_offset 16; .cfi_rel_offset lr, 8
  bl _libcuda_so_save_regs_and_resolve
  ldp xzr, lr, [sp], #16; .cfi_adjust_cfa_offset -16; .cfi_restore lr
  br ip0
  .cfi_endproc

/*
 * Copyright 2018-2025 Yury Gribov
 *
 * The MIT License (MIT)
 *
 * Use of this source code is governed by MIT license that can be
 * found in the LICENSE.txt file.
 */

  .globl cuGraphAddMemsetNode
  .p2align 4
  .type cuGraphAddMemsetNode, %function
#ifndef IMPLIB_EXPORT_SHIMS
  .hidden cuGraphAddMemsetNode
#endif
cuGraphAddMemsetNode:
  .cfi_startproc

1:
  // Load address
  // TODO: can we do this faster on newer ARMs?
  adrp ip0, _libcuda_so_tramp_table+1344
  ldr ip0, [ip0, #:lo12:_libcuda_so_tramp_table+1344]
 
  cbz ip0, 2f

  // Fast path
  br ip0

2:
  // Slow path
  mov ip0, 168 & 0xffff
#if 168 > 0xffff
  movk ip0, 168 >> 16, lsl #16
#endif
  stp ip0, lr, [sp, #-16]!; .cfi_adjust_cfa_offset 16; .cfi_rel_offset lr, 8
  bl _libcuda_so_save_regs_and_resolve
  ldp xzr, lr, [sp], #16; .cfi_adjust_cfa_offset -16; .cfi_restore lr
  br ip0
  .cfi_endproc

/*
 * Copyright 2018-2025 Yury Gribov
 *
 * The MIT License (MIT)
 *
 * Use of this source code is governed by MIT license that can be
 * found in the LICENSE.txt file.
 */

  .globl cuGraphAddNode
  .p2align 4
  .type cuGraphAddNode, %function
#ifndef IMPLIB_EXPORT_SHIMS
  .hidden cuGraphAddNode
#endif
cuGraphAddNode:
  .cfi_startproc

1:
  // Load address
  // TODO: can we do this faster on newer ARMs?
  adrp ip0, _libcuda_so_tramp_table+1352
  ldr ip0, [ip0, #:lo12:_libcuda_so_tramp_table+1352]
 
  cbz ip0, 2f

  // Fast path
  br ip0

2:
  // Slow path
  mov ip0, 169 & 0xffff
#if 169 > 0xffff
  movk ip0, 169 >> 16, lsl #16
#endif
  stp ip0, lr, [sp, #-16]!; .cfi_adjust_cfa_offset 16; .cfi_rel_offset lr, 8
  bl _libcuda_so_save_regs_and_resolve
  ldp xzr, lr, [sp], #16; .cfi_adjust_cfa_offset -16; .cfi_restore lr
  br ip0
  .cfi_endproc

/*
 * Copyright 2018-2025 Yury Gribov
 *
 * The MIT License (MIT)
 *
 * Use of this source code is governed by MIT license that can be
 * found in the LICENSE.txt file.
 */

  .globl cuGraphAddNode_v2
  .p2align 4
  .type cuGraphAddNode_v2, %function
#ifndef IMPLIB_EXPORT_SHIMS
  .hidden cuGraphAddNode_v2
#endif
cuGraphAddNode_v2:
  .cfi_startproc

1:
  // Load address
  // TODO: can we do this faster on newer ARMs?
  adrp ip0, _libcuda_so_tramp_table+1360
  ldr ip0, [ip0, #:lo12:_libcuda_so_tramp_table+1360]
 
  cbz ip0, 2f

  // Fast path
  br ip0

2:
  // Slow path
  mov ip0, 170 & 0xffff
#if 170 > 0xffff
  movk ip0, 170 >> 16, lsl #16
#endif
  stp ip0, lr, [sp, #-16]!; .cfi_adjust_cfa_offset 16; .cfi_rel_offset lr, 8
  bl _libcuda_so_save_regs_and_resolve
  ldp xzr, lr, [sp], #16; .cfi_adjust_cfa_offset -16; .cfi_restore lr
  br ip0
  .cfi_endproc

/*
 * Copyright 2018-2025 Yury Gribov
 *
 * The MIT License (MIT)
 *
 * Use of this source code is governed by MIT license that can be
 * found in the LICENSE.txt file.
 */

  .globl cuGraphBatchMemOpNodeGetParams
  .p2align 4
  .type cuGraphBatchMemOpNodeGetParams, %function
#ifndef IMPLIB_EXPORT_SHIMS
  .hidden cuGraphBatchMemOpNodeGetParams
#endif
cuGraphBatchMemOpNodeGetParams:
  .cfi_startproc

1:
  // Load address
  // TODO: can we do this faster on newer ARMs?
  adrp ip0, _libcuda_so_tramp_table+1368
  ldr ip0, [ip0, #:lo12:_libcuda_so_tramp_table+1368]
 
  cbz ip0, 2f

  // Fast path
  br ip0

2:
  // Slow path
  mov ip0, 171 & 0xffff
#if 171 > 0xffff
  movk ip0, 171 >> 16, lsl #16
#endif
  stp ip0, lr, [sp, #-16]!; .cfi_adjust_cfa_offset 16; .cfi_rel_offset lr, 8
  bl _libcuda_so_save_regs_and_resolve
  ldp xzr, lr, [sp], #16; .cfi_adjust_cfa_offset -16; .cfi_restore lr
  br ip0
  .cfi_endproc

/*
 * Copyright 2018-2025 Yury Gribov
 *
 * The MIT License (MIT)
 *
 * Use of this source code is governed by MIT license that can be
 * found in the LICENSE.txt file.
 */

  .globl cuGraphBatchMemOpNodeSetParams
  .p2align 4
  .type cuGraphBatchMemOpNodeSetParams, %function
#ifndef IMPLIB_EXPORT_SHIMS
  .hidden cuGraphBatchMemOpNodeSetParams
#endif
cuGraphBatchMemOpNodeSetParams:
  .cfi_startproc

1:
  // Load address
  // TODO: can we do this faster on newer ARMs?
  adrp ip0, _libcuda_so_tramp_table+1376
  ldr ip0, [ip0, #:lo12:_libcuda_so_tramp_table+1376]
 
  cbz ip0, 2f

  // Fast path
  br ip0

2:
  // Slow path
  mov ip0, 172 & 0xffff
#if 172 > 0xffff
  movk ip0, 172 >> 16, lsl #16
#endif
  stp ip0, lr, [sp, #-16]!; .cfi_adjust_cfa_offset 16; .cfi_rel_offset lr, 8
  bl _libcuda_so_save_regs_and_resolve
  ldp xzr, lr, [sp], #16; .cfi_adjust_cfa_offset -16; .cfi_restore lr
  br ip0
  .cfi_endproc

/*
 * Copyright 2018-2025 Yury Gribov
 *
 * The MIT License (MIT)
 *
 * Use of this source code is governed by MIT license that can be
 * found in the LICENSE.txt file.
 */

  .globl cuGraphChildGraphNodeGetGraph
  .p2align 4
  .type cuGraphChildGraphNodeGetGraph, %function
#ifndef IMPLIB_EXPORT_SHIMS
  .hidden cuGraphChildGraphNodeGetGraph
#endif
cuGraphChildGraphNodeGetGraph:
  .cfi_startproc

1:
  // Load address
  // TODO: can we do this faster on newer ARMs?
  adrp ip0, _libcuda_so_tramp_table+1384
  ldr ip0, [ip0, #:lo12:_libcuda_so_tramp_table+1384]
 
  cbz ip0, 2f

  // Fast path
  br ip0

2:
  // Slow path
  mov ip0, 173 & 0xffff
#if 173 > 0xffff
  movk ip0, 173 >> 16, lsl #16
#endif
  stp ip0, lr, [sp, #-16]!; .cfi_adjust_cfa_offset 16; .cfi_rel_offset lr, 8
  bl _libcuda_so_save_regs_and_resolve
  ldp xzr, lr, [sp], #16; .cfi_adjust_cfa_offset -16; .cfi_restore lr
  br ip0
  .cfi_endproc

/*
 * Copyright 2018-2025 Yury Gribov
 *
 * The MIT License (MIT)
 *
 * Use of this source code is governed by MIT license that can be
 * found in the LICENSE.txt file.
 */

  .globl cuGraphClone
  .p2align 4
  .type cuGraphClone, %function
#ifndef IMPLIB_EXPORT_SHIMS
  .hidden cuGraphClone
#endif
cuGraphClone:
  .cfi_startproc

1:
  // Load address
  // TODO: can we do this faster on newer ARMs?
  adrp ip0, _libcuda_so_tramp_table+1392
  ldr ip0, [ip0, #:lo12:_libcuda_so_tramp_table+1392]
 
  cbz ip0, 2f

  // Fast path
  br ip0

2:
  // Slow path
  mov ip0, 174 & 0xffff
#if 174 > 0xffff
  movk ip0, 174 >> 16, lsl #16
#endif
  stp ip0, lr, [sp, #-16]!; .cfi_adjust_cfa_offset 16; .cfi_rel_offset lr, 8
  bl _libcuda_so_save_regs_and_resolve
  ldp xzr, lr, [sp], #16; .cfi_adjust_cfa_offset -16; .cfi_restore lr
  br ip0
  .cfi_endproc

/*
 * Copyright 2018-2025 Yury Gribov
 *
 * The MIT License (MIT)
 *
 * Use of this source code is governed by MIT license that can be
 * found in the LICENSE.txt file.
 */

  .globl cuGraphConditionalHandleCreate
  .p2align 4
  .type cuGraphConditionalHandleCreate, %function
#ifndef IMPLIB_EXPORT_SHIMS
  .hidden cuGraphConditionalHandleCreate
#endif
cuGraphConditionalHandleCreate:
  .cfi_startproc

1:
  // Load address
  // TODO: can we do this faster on newer ARMs?
  adrp ip0, _libcuda_so_tramp_table+1400
  ldr ip0, [ip0, #:lo12:_libcuda_so_tramp_table+1400]
 
  cbz ip0, 2f

  // Fast path
  br ip0

2:
  // Slow path
  mov ip0, 175 & 0xffff
#if 175 > 0xffff
  movk ip0, 175 >> 16, lsl #16
#endif
  stp ip0, lr, [sp, #-16]!; .cfi_adjust_cfa_offset 16; .cfi_rel_offset lr, 8
  bl _libcuda_so_save_regs_and_resolve
  ldp xzr, lr, [sp], #16; .cfi_adjust_cfa_offset -16; .cfi_restore lr
  br ip0
  .cfi_endproc

/*
 * Copyright 2018-2025 Yury Gribov
 *
 * The MIT License (MIT)
 *
 * Use of this source code is governed by MIT license that can be
 * found in the LICENSE.txt file.
 */

  .globl cuGraphCreate
  .p2align 4
  .type cuGraphCreate, %function
#ifndef IMPLIB_EXPORT_SHIMS
  .hidden cuGraphCreate
#endif
cuGraphCreate:
  .cfi_startproc

1:
  // Load address
  // TODO: can we do this faster on newer ARMs?
  adrp ip0, _libcuda_so_tramp_table+1408
  ldr ip0, [ip0, #:lo12:_libcuda_so_tramp_table+1408]
 
  cbz ip0, 2f

  // Fast path
  br ip0

2:
  // Slow path
  mov ip0, 176 & 0xffff
#if 176 > 0xffff
  movk ip0, 176 >> 16, lsl #16
#endif
  stp ip0, lr, [sp, #-16]!; .cfi_adjust_cfa_offset 16; .cfi_rel_offset lr, 8
  bl _libcuda_so_save_regs_and_resolve
  ldp xzr, lr, [sp], #16; .cfi_adjust_cfa_offset -16; .cfi_restore lr
  br ip0
  .cfi_endproc

/*
 * Copyright 2018-2025 Yury Gribov
 *
 * The MIT License (MIT)
 *
 * Use of this source code is governed by MIT license that can be
 * found in the LICENSE.txt file.
 */

  .globl cuGraphDebugDotPrint
  .p2align 4
  .type cuGraphDebugDotPrint, %function
#ifndef IMPLIB_EXPORT_SHIMS
  .hidden cuGraphDebugDotPrint
#endif
cuGraphDebugDotPrint:
  .cfi_startproc

1:
  // Load address
  // TODO: can we do this faster on newer ARMs?
  adrp ip0, _libcuda_so_tramp_table+1416
  ldr ip0, [ip0, #:lo12:_libcuda_so_tramp_table+1416]
 
  cbz ip0, 2f

  // Fast path
  br ip0

2:
  // Slow path
  mov ip0, 177 & 0xffff
#if 177 > 0xffff
  movk ip0, 177 >> 16, lsl #16
#endif
  stp ip0, lr, [sp, #-16]!; .cfi_adjust_cfa_offset 16; .cfi_rel_offset lr, 8
  bl _libcuda_so_save_regs_and_resolve
  ldp xzr, lr, [sp], #16; .cfi_adjust_cfa_offset -16; .cfi_restore lr
  br ip0
  .cfi_endproc

/*
 * Copyright 2018-2025 Yury Gribov
 *
 * The MIT License (MIT)
 *
 * Use of this source code is governed by MIT license that can be
 * found in the LICENSE.txt file.
 */

  .globl cuGraphDestroy
  .p2align 4
  .type cuGraphDestroy, %function
#ifndef IMPLIB_EXPORT_SHIMS
  .hidden cuGraphDestroy
#endif
cuGraphDestroy:
  .cfi_startproc

1:
  // Load address
  // TODO: can we do this faster on newer ARMs?
  adrp ip0, _libcuda_so_tramp_table+1424
  ldr ip0, [ip0, #:lo12:_libcuda_so_tramp_table+1424]
 
  cbz ip0, 2f

  // Fast path
  br ip0

2:
  // Slow path
  mov ip0, 178 & 0xffff
#if 178 > 0xffff
  movk ip0, 178 >> 16, lsl #16
#endif
  stp ip0, lr, [sp, #-16]!; .cfi_adjust_cfa_offset 16; .cfi_rel_offset lr, 8
  bl _libcuda_so_save_regs_and_resolve
  ldp xzr, lr, [sp], #16; .cfi_adjust_cfa_offset -16; .cfi_restore lr
  br ip0
  .cfi_endproc

/*
 * Copyright 2018-2025 Yury Gribov
 *
 * The MIT License (MIT)
 *
 * Use of this source code is governed by MIT license that can be
 * found in the LICENSE.txt file.
 */

  .globl cuGraphDestroyNode
  .p2align 4
  .type cuGraphDestroyNode, %function
#ifndef IMPLIB_EXPORT_SHIMS
  .hidden cuGraphDestroyNode
#endif
cuGraphDestroyNode:
  .cfi_startproc

1:
  // Load address
  // TODO: can we do this faster on newer ARMs?
  adrp ip0, _libcuda_so_tramp_table+1432
  ldr ip0, [ip0, #:lo12:_libcuda_so_tramp_table+1432]
 
  cbz ip0, 2f

  // Fast path
  br ip0

2:
  // Slow path
  mov ip0, 179 & 0xffff
#if 179 > 0xffff
  movk ip0, 179 >> 16, lsl #16
#endif
  stp ip0, lr, [sp, #-16]!; .cfi_adjust_cfa_offset 16; .cfi_rel_offset lr, 8
  bl _libcuda_so_save_regs_and_resolve
  ldp xzr, lr, [sp], #16; .cfi_adjust_cfa_offset -16; .cfi_restore lr
  br ip0
  .cfi_endproc

/*
 * Copyright 2018-2025 Yury Gribov
 *
 * The MIT License (MIT)
 *
 * Use of this source code is governed by MIT license that can be
 * found in the LICENSE.txt file.
 */

  .globl cuGraphEventRecordNodeGetEvent
  .p2align 4
  .type cuGraphEventRecordNodeGetEvent, %function
#ifndef IMPLIB_EXPORT_SHIMS
  .hidden cuGraphEventRecordNodeGetEvent
#endif
cuGraphEventRecordNodeGetEvent:
  .cfi_startproc

1:
  // Load address
  // TODO: can we do this faster on newer ARMs?
  adrp ip0, _libcuda_so_tramp_table+1440
  ldr ip0, [ip0, #:lo12:_libcuda_so_tramp_table+1440]
 
  cbz ip0, 2f

  // Fast path
  br ip0

2:
  // Slow path
  mov ip0, 180 & 0xffff
#if 180 > 0xffff
  movk ip0, 180 >> 16, lsl #16
#endif
  stp ip0, lr, [sp, #-16]!; .cfi_adjust_cfa_offset 16; .cfi_rel_offset lr, 8
  bl _libcuda_so_save_regs_and_resolve
  ldp xzr, lr, [sp], #16; .cfi_adjust_cfa_offset -16; .cfi_restore lr
  br ip0
  .cfi_endproc

/*
 * Copyright 2018-2025 Yury Gribov
 *
 * The MIT License (MIT)
 *
 * Use of this source code is governed by MIT license that can be
 * found in the LICENSE.txt file.
 */

  .globl cuGraphEventRecordNodeSetEvent
  .p2align 4
  .type cuGraphEventRecordNodeSetEvent, %function
#ifndef IMPLIB_EXPORT_SHIMS
  .hidden cuGraphEventRecordNodeSetEvent
#endif
cuGraphEventRecordNodeSetEvent:
  .cfi_startproc

1:
  // Load address
  // TODO: can we do this faster on newer ARMs?
  adrp ip0, _libcuda_so_tramp_table+1448
  ldr ip0, [ip0, #:lo12:_libcuda_so_tramp_table+1448]
 
  cbz ip0, 2f

  // Fast path
  br ip0

2:
  // Slow path
  mov ip0, 181 & 0xffff
#if 181 > 0xffff
  movk ip0, 181 >> 16, lsl #16
#endif
  stp ip0, lr, [sp, #-16]!; .cfi_adjust_cfa_offset 16; .cfi_rel_offset lr, 8
  bl _libcuda_so_save_regs_and_resolve
  ldp xzr, lr, [sp], #16; .cfi_adjust_cfa_offset -16; .cfi_restore lr
  br ip0
  .cfi_endproc

/*
 * Copyright 2018-2025 Yury Gribov
 *
 * The MIT License (MIT)
 *
 * Use of this source code is governed by MIT license that can be
 * found in the LICENSE.txt file.
 */

  .globl cuGraphEventWaitNodeGetEvent
  .p2align 4
  .type cuGraphEventWaitNodeGetEvent, %function
#ifndef IMPLIB_EXPORT_SHIMS
  .hidden cuGraphEventWaitNodeGetEvent
#endif
cuGraphEventWaitNodeGetEvent:
  .cfi_startproc

1:
  // Load address
  // TODO: can we do this faster on newer ARMs?
  adrp ip0, _libcuda_so_tramp_table+1456
  ldr ip0, [ip0, #:lo12:_libcuda_so_tramp_table+1456]
 
  cbz ip0, 2f

  // Fast path
  br ip0

2:
  // Slow path
  mov ip0, 182 & 0xffff
#if 182 > 0xffff
  movk ip0, 182 >> 16, lsl #16
#endif
  stp ip0, lr, [sp, #-16]!; .cfi_adjust_cfa_offset 16; .cfi_rel_offset lr, 8
  bl _libcuda_so_save_regs_and_resolve
  ldp xzr, lr, [sp], #16; .cfi_adjust_cfa_offset -16; .cfi_restore lr
  br ip0
  .cfi_endproc

/*
 * Copyright 2018-2025 Yury Gribov
 *
 * The MIT License (MIT)
 *
 * Use of this source code is governed by MIT license that can be
 * found in the LICENSE.txt file.
 */

  .globl cuGraphEventWaitNodeSetEvent
  .p2align 4
  .type cuGraphEventWaitNodeSetEvent, %function
#ifndef IMPLIB_EXPORT_SHIMS
  .hidden cuGraphEventWaitNodeSetEvent
#endif
cuGraphEventWaitNodeSetEvent:
  .cfi_startproc

1:
  // Load address
  // TODO: can we do this faster on newer ARMs?
  adrp ip0, _libcuda_so_tramp_table+1464
  ldr ip0, [ip0, #:lo12:_libcuda_so_tramp_table+1464]
 
  cbz ip0, 2f

  // Fast path
  br ip0

2:
  // Slow path
  mov ip0, 183 & 0xffff
#if 183 > 0xffff
  movk ip0, 183 >> 16, lsl #16
#endif
  stp ip0, lr, [sp, #-16]!; .cfi_adjust_cfa_offset 16; .cfi_rel_offset lr, 8
  bl _libcuda_so_save_regs_and_resolve
  ldp xzr, lr, [sp], #16; .cfi_adjust_cfa_offset -16; .cfi_restore lr
  br ip0
  .cfi_endproc

/*
 * Copyright 2018-2025 Yury Gribov
 *
 * The MIT License (MIT)
 *
 * Use of this source code is governed by MIT license that can be
 * found in the LICENSE.txt file.
 */

  .globl cuGraphExecBatchMemOpNodeSetParams
  .p2align 4
  .type cuGraphExecBatchMemOpNodeSetParams, %function
#ifndef IMPLIB_EXPORT_SHIMS
  .hidden cuGraphExecBatchMemOpNodeSetParams
#endif
cuGraphExecBatchMemOpNodeSetParams:
  .cfi_startproc

1:
  // Load address
  // TODO: can we do this faster on newer ARMs?
  adrp ip0, _libcuda_so_tramp_table+1472
  ldr ip0, [ip0, #:lo12:_libcuda_so_tramp_table+1472]
 
  cbz ip0, 2f

  // Fast path
  br ip0

2:
  // Slow path
  mov ip0, 184 & 0xffff
#if 184 > 0xffff
  movk ip0, 184 >> 16, lsl #16
#endif
  stp ip0, lr, [sp, #-16]!; .cfi_adjust_cfa_offset 16; .cfi_rel_offset lr, 8
  bl _libcuda_so_save_regs_and_resolve
  ldp xzr, lr, [sp], #16; .cfi_adjust_cfa_offset -16; .cfi_restore lr
  br ip0
  .cfi_endproc

/*
 * Copyright 2018-2025 Yury Gribov
 *
 * The MIT License (MIT)
 *
 * Use of this source code is governed by MIT license that can be
 * found in the LICENSE.txt file.
 */

  .globl cuGraphExecChildGraphNodeSetParams
  .p2align 4
  .type cuGraphExecChildGraphNodeSetParams, %function
#ifndef IMPLIB_EXPORT_SHIMS
  .hidden cuGraphExecChildGraphNodeSetParams
#endif
cuGraphExecChildGraphNodeSetParams:
  .cfi_startproc

1:
  // Load address
  // TODO: can we do this faster on newer ARMs?
  adrp ip0, _libcuda_so_tramp_table+1480
  ldr ip0, [ip0, #:lo12:_libcuda_so_tramp_table+1480]
 
  cbz ip0, 2f

  // Fast path
  br ip0

2:
  // Slow path
  mov ip0, 185 & 0xffff
#if 185 > 0xffff
  movk ip0, 185 >> 16, lsl #16
#endif
  stp ip0, lr, [sp, #-16]!; .cfi_adjust_cfa_offset 16; .cfi_rel_offset lr, 8
  bl _libcuda_so_save_regs_and_resolve
  ldp xzr, lr, [sp], #16; .cfi_adjust_cfa_offset -16; .cfi_restore lr
  br ip0
  .cfi_endproc

/*
 * Copyright 2018-2025 Yury Gribov
 *
 * The MIT License (MIT)
 *
 * Use of this source code is governed by MIT license that can be
 * found in the LICENSE.txt file.
 */

  .globl cuGraphExecDestroy
  .p2align 4
  .type cuGraphExecDestroy, %function
#ifndef IMPLIB_EXPORT_SHIMS
  .hidden cuGraphExecDestroy
#endif
cuGraphExecDestroy:
  .cfi_startproc

1:
  // Load address
  // TODO: can we do this faster on newer ARMs?
  adrp ip0, _libcuda_so_tramp_table+1488
  ldr ip0, [ip0, #:lo12:_libcuda_so_tramp_table+1488]
 
  cbz ip0, 2f

  // Fast path
  br ip0

2:
  // Slow path
  mov ip0, 186 & 0xffff
#if 186 > 0xffff
  movk ip0, 186 >> 16, lsl #16
#endif
  stp ip0, lr, [sp, #-16]!; .cfi_adjust_cfa_offset 16; .cfi_rel_offset lr, 8
  bl _libcuda_so_save_regs_and_resolve
  ldp xzr, lr, [sp], #16; .cfi_adjust_cfa_offset -16; .cfi_restore lr
  br ip0
  .cfi_endproc

/*
 * Copyright 2018-2025 Yury Gribov
 *
 * The MIT License (MIT)
 *
 * Use of this source code is governed by MIT license that can be
 * found in the LICENSE.txt file.
 */

  .globl cuGraphExecEventRecordNodeSetEvent
  .p2align 4
  .type cuGraphExecEventRecordNodeSetEvent, %function
#ifndef IMPLIB_EXPORT_SHIMS
  .hidden cuGraphExecEventRecordNodeSetEvent
#endif
cuGraphExecEventRecordNodeSetEvent:
  .cfi_startproc

1:
  // Load address
  // TODO: can we do this faster on newer ARMs?
  adrp ip0, _libcuda_so_tramp_table+1496
  ldr ip0, [ip0, #:lo12:_libcuda_so_tramp_table+1496]
 
  cbz ip0, 2f

  // Fast path
  br ip0

2:
  // Slow path
  mov ip0, 187 & 0xffff
#if 187 > 0xffff
  movk ip0, 187 >> 16, lsl #16
#endif
  stp ip0, lr, [sp, #-16]!; .cfi_adjust_cfa_offset 16; .cfi_rel_offset lr, 8
  bl _libcuda_so_save_regs_and_resolve
  ldp xzr, lr, [sp], #16; .cfi_adjust_cfa_offset -16; .cfi_restore lr
  br ip0
  .cfi_endproc

/*
 * Copyright 2018-2025 Yury Gribov
 *
 * The MIT License (MIT)
 *
 * Use of this source code is governed by MIT license that can be
 * found in the LICENSE.txt file.
 */

  .globl cuGraphExecEventWaitNodeSetEvent
  .p2align 4
  .type cuGraphExecEventWaitNodeSetEvent, %function
#ifndef IMPLIB_EXPORT_SHIMS
  .hidden cuGraphExecEventWaitNodeSetEvent
#endif
cuGraphExecEventWaitNodeSetEvent:
  .cfi_startproc

1:
  // Load address
  // TODO: can we do this faster on newer ARMs?
  adrp ip0, _libcuda_so_tramp_table+1504
  ldr ip0, [ip0, #:lo12:_libcuda_so_tramp_table+1504]
 
  cbz ip0, 2f

  // Fast path
  br ip0

2:
  // Slow path
  mov ip0, 188 & 0xffff
#if 188 > 0xffff
  movk ip0, 188 >> 16, lsl #16
#endif
  stp ip0, lr, [sp, #-16]!; .cfi_adjust_cfa_offset 16; .cfi_rel_offset lr, 8
  bl _libcuda_so_save_regs_and_resolve
  ldp xzr, lr, [sp], #16; .cfi_adjust_cfa_offset -16; .cfi_restore lr
  br ip0
  .cfi_endproc

/*
 * Copyright 2018-2025 Yury Gribov
 *
 * The MIT License (MIT)
 *
 * Use of this source code is governed by MIT license that can be
 * found in the LICENSE.txt file.
 */

  .globl cuGraphExecExternalSemaphoresSignalNodeSetParams
  .p2align 4
  .type cuGraphExecExternalSemaphoresSignalNodeSetParams, %function
#ifndef IMPLIB_EXPORT_SHIMS
  .hidden cuGraphExecExternalSemaphoresSignalNodeSetParams
#endif
cuGraphExecExternalSemaphoresSignalNodeSetParams:
  .cfi_startproc

1:
  // Load address
  // TODO: can we do this faster on newer ARMs?
  adrp ip0, _libcuda_so_tramp_table+1512
  ldr ip0, [ip0, #:lo12:_libcuda_so_tramp_table+1512]
 
  cbz ip0, 2f

  // Fast path
  br ip0

2:
  // Slow path
  mov ip0, 189 & 0xffff
#if 189 > 0xffff
  movk ip0, 189 >> 16, lsl #16
#endif
  stp ip0, lr, [sp, #-16]!; .cfi_adjust_cfa_offset 16; .cfi_rel_offset lr, 8
  bl _libcuda_so_save_regs_and_resolve
  ldp xzr, lr, [sp], #16; .cfi_adjust_cfa_offset -16; .cfi_restore lr
  br ip0
  .cfi_endproc

/*
 * Copyright 2018-2025 Yury Gribov
 *
 * The MIT License (MIT)
 *
 * Use of this source code is governed by MIT license that can be
 * found in the LICENSE.txt file.
 */

  .globl cuGraphExecExternalSemaphoresWaitNodeSetParams
  .p2align 4
  .type cuGraphExecExternalSemaphoresWaitNodeSetParams, %function
#ifndef IMPLIB_EXPORT_SHIMS
  .hidden cuGraphExecExternalSemaphoresWaitNodeSetParams
#endif
cuGraphExecExternalSemaphoresWaitNodeSetParams:
  .cfi_startproc

1:
  // Load address
  // TODO: can we do this faster on newer ARMs?
  adrp ip0, _libcuda_so_tramp_table+1520
  ldr ip0, [ip0, #:lo12:_libcuda_so_tramp_table+1520]
 
  cbz ip0, 2f

  // Fast path
  br ip0

2:
  // Slow path
  mov ip0, 190 & 0xffff
#if 190 > 0xffff
  movk ip0, 190 >> 16, lsl #16
#endif
  stp ip0, lr, [sp, #-16]!; .cfi_adjust_cfa_offset 16; .cfi_rel_offset lr, 8
  bl _libcuda_so_save_regs_and_resolve
  ldp xzr, lr, [sp], #16; .cfi_adjust_cfa_offset -16; .cfi_restore lr
  br ip0
  .cfi_endproc

/*
 * Copyright 2018-2025 Yury Gribov
 *
 * The MIT License (MIT)
 *
 * Use of this source code is governed by MIT license that can be
 * found in the LICENSE.txt file.
 */

  .globl cuGraphExecGetFlags
  .p2align 4
  .type cuGraphExecGetFlags, %function
#ifndef IMPLIB_EXPORT_SHIMS
  .hidden cuGraphExecGetFlags
#endif
cuGraphExecGetFlags:
  .cfi_startproc

1:
  // Load address
  // TODO: can we do this faster on newer ARMs?
  adrp ip0, _libcuda_so_tramp_table+1528
  ldr ip0, [ip0, #:lo12:_libcuda_so_tramp_table+1528]
 
  cbz ip0, 2f

  // Fast path
  br ip0

2:
  // Slow path
  mov ip0, 191 & 0xffff
#if 191 > 0xffff
  movk ip0, 191 >> 16, lsl #16
#endif
  stp ip0, lr, [sp, #-16]!; .cfi_adjust_cfa_offset 16; .cfi_rel_offset lr, 8
  bl _libcuda_so_save_regs_and_resolve
  ldp xzr, lr, [sp], #16; .cfi_adjust_cfa_offset -16; .cfi_restore lr
  br ip0
  .cfi_endproc

/*
 * Copyright 2018-2025 Yury Gribov
 *
 * The MIT License (MIT)
 *
 * Use of this source code is governed by MIT license that can be
 * found in the LICENSE.txt file.
 */

  .globl cuGraphExecHostNodeSetParams
  .p2align 4
  .type cuGraphExecHostNodeSetParams, %function
#ifndef IMPLIB_EXPORT_SHIMS
  .hidden cuGraphExecHostNodeSetParams
#endif
cuGraphExecHostNodeSetParams:
  .cfi_startproc

1:
  // Load address
  // TODO: can we do this faster on newer ARMs?
  adrp ip0, _libcuda_so_tramp_table+1536
  ldr ip0, [ip0, #:lo12:_libcuda_so_tramp_table+1536]
 
  cbz ip0, 2f

  // Fast path
  br ip0

2:
  // Slow path
  mov ip0, 192 & 0xffff
#if 192 > 0xffff
  movk ip0, 192 >> 16, lsl #16
#endif
  stp ip0, lr, [sp, #-16]!; .cfi_adjust_cfa_offset 16; .cfi_rel_offset lr, 8
  bl _libcuda_so_save_regs_and_resolve
  ldp xzr, lr, [sp], #16; .cfi_adjust_cfa_offset -16; .cfi_restore lr
  br ip0
  .cfi_endproc

/*
 * Copyright 2018-2025 Yury Gribov
 *
 * The MIT License (MIT)
 *
 * Use of this source code is governed by MIT license that can be
 * found in the LICENSE.txt file.
 */

  .globl cuGraphExecKernelNodeSetParams
  .p2align 4
  .type cuGraphExecKernelNodeSetParams, %function
#ifndef IMPLIB_EXPORT_SHIMS
  .hidden cuGraphExecKernelNodeSetParams
#endif
cuGraphExecKernelNodeSetParams:
  .cfi_startproc

1:
  // Load address
  // TODO: can we do this faster on newer ARMs?
  adrp ip0, _libcuda_so_tramp_table+1544
  ldr ip0, [ip0, #:lo12:_libcuda_so_tramp_table+1544]
 
  cbz ip0, 2f

  // Fast path
  br ip0

2:
  // Slow path
  mov ip0, 193 & 0xffff
#if 193 > 0xffff
  movk ip0, 193 >> 16, lsl #16
#endif
  stp ip0, lr, [sp, #-16]!; .cfi_adjust_cfa_offset 16; .cfi_rel_offset lr, 8
  bl _libcuda_so_save_regs_and_resolve
  ldp xzr, lr, [sp], #16; .cfi_adjust_cfa_offset -16; .cfi_restore lr
  br ip0
  .cfi_endproc

/*
 * Copyright 2018-2025 Yury Gribov
 *
 * The MIT License (MIT)
 *
 * Use of this source code is governed by MIT license that can be
 * found in the LICENSE.txt file.
 */

  .globl cuGraphExecKernelNodeSetParams_v2
  .p2align 4
  .type cuGraphExecKernelNodeSetParams_v2, %function
#ifndef IMPLIB_EXPORT_SHIMS
  .hidden cuGraphExecKernelNodeSetParams_v2
#endif
cuGraphExecKernelNodeSetParams_v2:
  .cfi_startproc

1:
  // Load address
  // TODO: can we do this faster on newer ARMs?
  adrp ip0, _libcuda_so_tramp_table+1552
  ldr ip0, [ip0, #:lo12:_libcuda_so_tramp_table+1552]
 
  cbz ip0, 2f

  // Fast path
  br ip0

2:
  // Slow path
  mov ip0, 194 & 0xffff
#if 194 > 0xffff
  movk ip0, 194 >> 16, lsl #16
#endif
  stp ip0, lr, [sp, #-16]!; .cfi_adjust_cfa_offset 16; .cfi_rel_offset lr, 8
  bl _libcuda_so_save_regs_and_resolve
  ldp xzr, lr, [sp], #16; .cfi_adjust_cfa_offset -16; .cfi_restore lr
  br ip0
  .cfi_endproc

/*
 * Copyright 2018-2025 Yury Gribov
 *
 * The MIT License (MIT)
 *
 * Use of this source code is governed by MIT license that can be
 * found in the LICENSE.txt file.
 */

  .globl cuGraphExecMemcpyNodeSetParams
  .p2align 4
  .type cuGraphExecMemcpyNodeSetParams, %function
#ifndef IMPLIB_EXPORT_SHIMS
  .hidden cuGraphExecMemcpyNodeSetParams
#endif
cuGraphExecMemcpyNodeSetParams:
  .cfi_startproc

1:
  // Load address
  // TODO: can we do this faster on newer ARMs?
  adrp ip0, _libcuda_so_tramp_table+1560
  ldr ip0, [ip0, #:lo12:_libcuda_so_tramp_table+1560]
 
  cbz ip0, 2f

  // Fast path
  br ip0

2:
  // Slow path
  mov ip0, 195 & 0xffff
#if 195 > 0xffff
  movk ip0, 195 >> 16, lsl #16
#endif
  stp ip0, lr, [sp, #-16]!; .cfi_adjust_cfa_offset 16; .cfi_rel_offset lr, 8
  bl _libcuda_so_save_regs_and_resolve
  ldp xzr, lr, [sp], #16; .cfi_adjust_cfa_offset -16; .cfi_restore lr
  br ip0
  .cfi_endproc

/*
 * Copyright 2018-2025 Yury Gribov
 *
 * The MIT License (MIT)
 *
 * Use of this source code is governed by MIT license that can be
 * found in the LICENSE.txt file.
 */

  .globl cuGraphExecMemsetNodeSetParams
  .p2align 4
  .type cuGraphExecMemsetNodeSetParams, %function
#ifndef IMPLIB_EXPORT_SHIMS
  .hidden cuGraphExecMemsetNodeSetParams
#endif
cuGraphExecMemsetNodeSetParams:
  .cfi_startproc

1:
  // Load address
  // TODO: can we do this faster on newer ARMs?
  adrp ip0, _libcuda_so_tramp_table+1568
  ldr ip0, [ip0, #:lo12:_libcuda_so_tramp_table+1568]
 
  cbz ip0, 2f

  // Fast path
  br ip0

2:
  // Slow path
  mov ip0, 196 & 0xffff
#if 196 > 0xffff
  movk ip0, 196 >> 16, lsl #16
#endif
  stp ip0, lr, [sp, #-16]!; .cfi_adjust_cfa_offset 16; .cfi_rel_offset lr, 8
  bl _libcuda_so_save_regs_and_resolve
  ldp xzr, lr, [sp], #16; .cfi_adjust_cfa_offset -16; .cfi_restore lr
  br ip0
  .cfi_endproc

/*
 * Copyright 2018-2025 Yury Gribov
 *
 * The MIT License (MIT)
 *
 * Use of this source code is governed by MIT license that can be
 * found in the LICENSE.txt file.
 */

  .globl cuGraphExecNodeSetParams
  .p2align 4
  .type cuGraphExecNodeSetParams, %function
#ifndef IMPLIB_EXPORT_SHIMS
  .hidden cuGraphExecNodeSetParams
#endif
cuGraphExecNodeSetParams:
  .cfi_startproc

1:
  // Load address
  // TODO: can we do this faster on newer ARMs?
  adrp ip0, _libcuda_so_tramp_table+1576
  ldr ip0, [ip0, #:lo12:_libcuda_so_tramp_table+1576]
 
  cbz ip0, 2f

  // Fast path
  br ip0

2:
  // Slow path
  mov ip0, 197 & 0xffff
#if 197 > 0xffff
  movk ip0, 197 >> 16, lsl #16
#endif
  stp ip0, lr, [sp, #-16]!; .cfi_adjust_cfa_offset 16; .cfi_rel_offset lr, 8
  bl _libcuda_so_save_regs_and_resolve
  ldp xzr, lr, [sp], #16; .cfi_adjust_cfa_offset -16; .cfi_restore lr
  br ip0
  .cfi_endproc

/*
 * Copyright 2018-2025 Yury Gribov
 *
 * The MIT License (MIT)
 *
 * Use of this source code is governed by MIT license that can be
 * found in the LICENSE.txt file.
 */

  .globl cuGraphExecUpdate
  .p2align 4
  .type cuGraphExecUpdate, %function
#ifndef IMPLIB_EXPORT_SHIMS
  .hidden cuGraphExecUpdate
#endif
cuGraphExecUpdate:
  .cfi_startproc

1:
  // Load address
  // TODO: can we do this faster on newer ARMs?
  adrp ip0, _libcuda_so_tramp_table+1584
  ldr ip0, [ip0, #:lo12:_libcuda_so_tramp_table+1584]
 
  cbz ip0, 2f

  // Fast path
  br ip0

2:
  // Slow path
  mov ip0, 198 & 0xffff
#if 198 > 0xffff
  movk ip0, 198 >> 16, lsl #16
#endif
  stp ip0, lr, [sp, #-16]!; .cfi_adjust_cfa_offset 16; .cfi_rel_offset lr, 8
  bl _libcuda_so_save_regs_and_resolve
  ldp xzr, lr, [sp], #16; .cfi_adjust_cfa_offset -16; .cfi_restore lr
  br ip0
  .cfi_endproc

/*
 * Copyright 2018-2025 Yury Gribov
 *
 * The MIT License (MIT)
 *
 * Use of this source code is governed by MIT license that can be
 * found in the LICENSE.txt file.
 */

  .globl cuGraphExecUpdate_v2
  .p2align 4
  .type cuGraphExecUpdate_v2, %function
#ifndef IMPLIB_EXPORT_SHIMS
  .hidden cuGraphExecUpdate_v2
#endif
cuGraphExecUpdate_v2:
  .cfi_startproc

1:
  // Load address
  // TODO: can we do this faster on newer ARMs?
  adrp ip0, _libcuda_so_tramp_table+1592
  ldr ip0, [ip0, #:lo12:_libcuda_so_tramp_table+1592]
 
  cbz ip0, 2f

  // Fast path
  br ip0

2:
  // Slow path
  mov ip0, 199 & 0xffff
#if 199 > 0xffff
  movk ip0, 199 >> 16, lsl #16
#endif
  stp ip0, lr, [sp, #-16]!; .cfi_adjust_cfa_offset 16; .cfi_rel_offset lr, 8
  bl _libcuda_so_save_regs_and_resolve
  ldp xzr, lr, [sp], #16; .cfi_adjust_cfa_offset -16; .cfi_restore lr
  br ip0
  .cfi_endproc

/*
 * Copyright 2018-2025 Yury Gribov
 *
 * The MIT License (MIT)
 *
 * Use of this source code is governed by MIT license that can be
 * found in the LICENSE.txt file.
 */

  .globl cuGraphExternalSemaphoresSignalNodeGetParams
  .p2align 4
  .type cuGraphExternalSemaphoresSignalNodeGetParams, %function
#ifndef IMPLIB_EXPORT_SHIMS
  .hidden cuGraphExternalSemaphoresSignalNodeGetParams
#endif
cuGraphExternalSemaphoresSignalNodeGetParams:
  .cfi_startproc

1:
  // Load address
  // TODO: can we do this faster on newer ARMs?
  adrp ip0, _libcuda_so_tramp_table+1600
  ldr ip0, [ip0, #:lo12:_libcuda_so_tramp_table+1600]
 
  cbz ip0, 2f

  // Fast path
  br ip0

2:
  // Slow path
  mov ip0, 200 & 0xffff
#if 200 > 0xffff
  movk ip0, 200 >> 16, lsl #16
#endif
  stp ip0, lr, [sp, #-16]!; .cfi_adjust_cfa_offset 16; .cfi_rel_offset lr, 8
  bl _libcuda_so_save_regs_and_resolve
  ldp xzr, lr, [sp], #16; .cfi_adjust_cfa_offset -16; .cfi_restore lr
  br ip0
  .cfi_endproc

/*
 * Copyright 2018-2025 Yury Gribov
 *
 * The MIT License (MIT)
 *
 * Use of this source code is governed by MIT license that can be
 * found in the LICENSE.txt file.
 */

  .globl cuGraphExternalSemaphoresSignalNodeSetParams
  .p2align 4
  .type cuGraphExternalSemaphoresSignalNodeSetParams, %function
#ifndef IMPLIB_EXPORT_SHIMS
  .hidden cuGraphExternalSemaphoresSignalNodeSetParams
#endif
cuGraphExternalSemaphoresSignalNodeSetParams:
  .cfi_startproc

1:
  // Load address
  // TODO: can we do this faster on newer ARMs?
  adrp ip0, _libcuda_so_tramp_table+1608
  ldr ip0, [ip0, #:lo12:_libcuda_so_tramp_table+1608]
 
  cbz ip0, 2f

  // Fast path
  br ip0

2:
  // Slow path
  mov ip0, 201 & 0xffff
#if 201 > 0xffff
  movk ip0, 201 >> 16, lsl #16
#endif
  stp ip0, lr, [sp, #-16]!; .cfi_adjust_cfa_offset 16; .cfi_rel_offset lr, 8
  bl _libcuda_so_save_regs_and_resolve
  ldp xzr, lr, [sp], #16; .cfi_adjust_cfa_offset -16; .cfi_restore lr
  br ip0
  .cfi_endproc

/*
 * Copyright 2018-2025 Yury Gribov
 *
 * The MIT License (MIT)
 *
 * Use of this source code is governed by MIT license that can be
 * found in the LICENSE.txt file.
 */

  .globl cuGraphExternalSemaphoresWaitNodeGetParams
  .p2align 4
  .type cuGraphExternalSemaphoresWaitNodeGetParams, %function
#ifndef IMPLIB_EXPORT_SHIMS
  .hidden cuGraphExternalSemaphoresWaitNodeGetParams
#endif
cuGraphExternalSemaphoresWaitNodeGetParams:
  .cfi_startproc

1:
  // Load address
  // TODO: can we do this faster on newer ARMs?
  adrp ip0, _libcuda_so_tramp_table+1616
  ldr ip0, [ip0, #:lo12:_libcuda_so_tramp_table+1616]
 
  cbz ip0, 2f

  // Fast path
  br ip0

2:
  // Slow path
  mov ip0, 202 & 0xffff
#if 202 > 0xffff
  movk ip0, 202 >> 16, lsl #16
#endif
  stp ip0, lr, [sp, #-16]!; .cfi_adjust_cfa_offset 16; .cfi_rel_offset lr, 8
  bl _libcuda_so_save_regs_and_resolve
  ldp xzr, lr, [sp], #16; .cfi_adjust_cfa_offset -16; .cfi_restore lr
  br ip0
  .cfi_endproc

/*
 * Copyright 2018-2025 Yury Gribov
 *
 * The MIT License (MIT)
 *
 * Use of this source code is governed by MIT license that can be
 * found in the LICENSE.txt file.
 */

  .globl cuGraphExternalSemaphoresWaitNodeSetParams
  .p2align 4
  .type cuGraphExternalSemaphoresWaitNodeSetParams, %function
#ifndef IMPLIB_EXPORT_SHIMS
  .hidden cuGraphExternalSemaphoresWaitNodeSetParams
#endif
cuGraphExternalSemaphoresWaitNodeSetParams:
  .cfi_startproc

1:
  // Load address
  // TODO: can we do this faster on newer ARMs?
  adrp ip0, _libcuda_so_tramp_table+1624
  ldr ip0, [ip0, #:lo12:_libcuda_so_tramp_table+1624]
 
  cbz ip0, 2f

  // Fast path
  br ip0

2:
  // Slow path
  mov ip0, 203 & 0xffff
#if 203 > 0xffff
  movk ip0, 203 >> 16, lsl #16
#endif
  stp ip0, lr, [sp, #-16]!; .cfi_adjust_cfa_offset 16; .cfi_rel_offset lr, 8
  bl _libcuda_so_save_regs_and_resolve
  ldp xzr, lr, [sp], #16; .cfi_adjust_cfa_offset -16; .cfi_restore lr
  br ip0
  .cfi_endproc

/*
 * Copyright 2018-2025 Yury Gribov
 *
 * The MIT License (MIT)
 *
 * Use of this source code is governed by MIT license that can be
 * found in the LICENSE.txt file.
 */

  .globl cuGraphGetEdges
  .p2align 4
  .type cuGraphGetEdges, %function
#ifndef IMPLIB_EXPORT_SHIMS
  .hidden cuGraphGetEdges
#endif
cuGraphGetEdges:
  .cfi_startproc

1:
  // Load address
  // TODO: can we do this faster on newer ARMs?
  adrp ip0, _libcuda_so_tramp_table+1632
  ldr ip0, [ip0, #:lo12:_libcuda_so_tramp_table+1632]
 
  cbz ip0, 2f

  // Fast path
  br ip0

2:
  // Slow path
  mov ip0, 204 & 0xffff
#if 204 > 0xffff
  movk ip0, 204 >> 16, lsl #16
#endif
  stp ip0, lr, [sp, #-16]!; .cfi_adjust_cfa_offset 16; .cfi_rel_offset lr, 8
  bl _libcuda_so_save_regs_and_resolve
  ldp xzr, lr, [sp], #16; .cfi_adjust_cfa_offset -16; .cfi_restore lr
  br ip0
  .cfi_endproc

/*
 * Copyright 2018-2025 Yury Gribov
 *
 * The MIT License (MIT)
 *
 * Use of this source code is governed by MIT license that can be
 * found in the LICENSE.txt file.
 */

  .globl cuGraphGetEdges_v2
  .p2align 4
  .type cuGraphGetEdges_v2, %function
#ifndef IMPLIB_EXPORT_SHIMS
  .hidden cuGraphGetEdges_v2
#endif
cuGraphGetEdges_v2:
  .cfi_startproc

1:
  // Load address
  // TODO: can we do this faster on newer ARMs?
  adrp ip0, _libcuda_so_tramp_table+1640
  ldr ip0, [ip0, #:lo12:_libcuda_so_tramp_table+1640]
 
  cbz ip0, 2f

  // Fast path
  br ip0

2:
  // Slow path
  mov ip0, 205 & 0xffff
#if 205 > 0xffff
  movk ip0, 205 >> 16, lsl #16
#endif
  stp ip0, lr, [sp, #-16]!; .cfi_adjust_cfa_offset 16; .cfi_rel_offset lr, 8
  bl _libcuda_so_save_regs_and_resolve
  ldp xzr, lr, [sp], #16; .cfi_adjust_cfa_offset -16; .cfi_restore lr
  br ip0
  .cfi_endproc

/*
 * Copyright 2018-2025 Yury Gribov
 *
 * The MIT License (MIT)
 *
 * Use of this source code is governed by MIT license that can be
 * found in the LICENSE.txt file.
 */

  .globl cuGraphGetNodes
  .p2align 4
  .type cuGraphGetNodes, %function
#ifndef IMPLIB_EXPORT_SHIMS
  .hidden cuGraphGetNodes
#endif
cuGraphGetNodes:
  .cfi_startproc

1:
  // Load address
  // TODO: can we do this faster on newer ARMs?
  adrp ip0, _libcuda_so_tramp_table+1648
  ldr ip0, [ip0, #:lo12:_libcuda_so_tramp_table+1648]
 
  cbz ip0, 2f

  // Fast path
  br ip0

2:
  // Slow path
  mov ip0, 206 & 0xffff
#if 206 > 0xffff
  movk ip0, 206 >> 16, lsl #16
#endif
  stp ip0, lr, [sp, #-16]!; .cfi_adjust_cfa_offset 16; .cfi_rel_offset lr, 8
  bl _libcuda_so_save_regs_and_resolve
  ldp xzr, lr, [sp], #16; .cfi_adjust_cfa_offset -16; .cfi_restore lr
  br ip0
  .cfi_endproc

/*
 * Copyright 2018-2025 Yury Gribov
 *
 * The MIT License (MIT)
 *
 * Use of this source code is governed by MIT license that can be
 * found in the LICENSE.txt file.
 */

  .globl cuGraphGetRootNodes
  .p2align 4
  .type cuGraphGetRootNodes, %function
#ifndef IMPLIB_EXPORT_SHIMS
  .hidden cuGraphGetRootNodes
#endif
cuGraphGetRootNodes:
  .cfi_startproc

1:
  // Load address
  // TODO: can we do this faster on newer ARMs?
  adrp ip0, _libcuda_so_tramp_table+1656
  ldr ip0, [ip0, #:lo12:_libcuda_so_tramp_table+1656]
 
  cbz ip0, 2f

  // Fast path
  br ip0

2:
  // Slow path
  mov ip0, 207 & 0xffff
#if 207 > 0xffff
  movk ip0, 207 >> 16, lsl #16
#endif
  stp ip0, lr, [sp, #-16]!; .cfi_adjust_cfa_offset 16; .cfi_rel_offset lr, 8
  bl _libcuda_so_save_regs_and_resolve
  ldp xzr, lr, [sp], #16; .cfi_adjust_cfa_offset -16; .cfi_restore lr
  br ip0
  .cfi_endproc

/*
 * Copyright 2018-2025 Yury Gribov
 *
 * The MIT License (MIT)
 *
 * Use of this source code is governed by MIT license that can be
 * found in the LICENSE.txt file.
 */

  .globl cuGraphHostNodeGetParams
  .p2align 4
  .type cuGraphHostNodeGetParams, %function
#ifndef IMPLIB_EXPORT_SHIMS
  .hidden cuGraphHostNodeGetParams
#endif
cuGraphHostNodeGetParams:
  .cfi_startproc

1:
  // Load address
  // TODO: can we do this faster on newer ARMs?
  adrp ip0, _libcuda_so_tramp_table+1664
  ldr ip0, [ip0, #:lo12:_libcuda_so_tramp_table+1664]
 
  cbz ip0, 2f

  // Fast path
  br ip0

2:
  // Slow path
  mov ip0, 208 & 0xffff
#if 208 > 0xffff
  movk ip0, 208 >> 16, lsl #16
#endif
  stp ip0, lr, [sp, #-16]!; .cfi_adjust_cfa_offset 16; .cfi_rel_offset lr, 8
  bl _libcuda_so_save_regs_and_resolve
  ldp xzr, lr, [sp], #16; .cfi_adjust_cfa_offset -16; .cfi_restore lr
  br ip0
  .cfi_endproc

/*
 * Copyright 2018-2025 Yury Gribov
 *
 * The MIT License (MIT)
 *
 * Use of this source code is governed by MIT license that can be
 * found in the LICENSE.txt file.
 */

  .globl cuGraphHostNodeSetParams
  .p2align 4
  .type cuGraphHostNodeSetParams, %function
#ifndef IMPLIB_EXPORT_SHIMS
  .hidden cuGraphHostNodeSetParams
#endif
cuGraphHostNodeSetParams:
  .cfi_startproc

1:
  // Load address
  // TODO: can we do this faster on newer ARMs?
  adrp ip0, _libcuda_so_tramp_table+1672
  ldr ip0, [ip0, #:lo12:_libcuda_so_tramp_table+1672]
 
  cbz ip0, 2f

  // Fast path
  br ip0

2:
  // Slow path
  mov ip0, 209 & 0xffff
#if 209 > 0xffff
  movk ip0, 209 >> 16, lsl #16
#endif
  stp ip0, lr, [sp, #-16]!; .cfi_adjust_cfa_offset 16; .cfi_rel_offset lr, 8
  bl _libcuda_so_save_regs_and_resolve
  ldp xzr, lr, [sp], #16; .cfi_adjust_cfa_offset -16; .cfi_restore lr
  br ip0
  .cfi_endproc

/*
 * Copyright 2018-2025 Yury Gribov
 *
 * The MIT License (MIT)
 *
 * Use of this source code is governed by MIT license that can be
 * found in the LICENSE.txt file.
 */

  .globl cuGraphInstantiate
  .p2align 4
  .type cuGraphInstantiate, %function
#ifndef IMPLIB_EXPORT_SHIMS
  .hidden cuGraphInstantiate
#endif
cuGraphInstantiate:
  .cfi_startproc

1:
  // Load address
  // TODO: can we do this faster on newer ARMs?
  adrp ip0, _libcuda_so_tramp_table+1680
  ldr ip0, [ip0, #:lo12:_libcuda_so_tramp_table+1680]
 
  cbz ip0, 2f

  // Fast path
  br ip0

2:
  // Slow path
  mov ip0, 210 & 0xffff
#if 210 > 0xffff
  movk ip0, 210 >> 16, lsl #16
#endif
  stp ip0, lr, [sp, #-16]!; .cfi_adjust_cfa_offset 16; .cfi_rel_offset lr, 8
  bl _libcuda_so_save_regs_and_resolve
  ldp xzr, lr, [sp], #16; .cfi_adjust_cfa_offset -16; .cfi_restore lr
  br ip0
  .cfi_endproc

/*
 * Copyright 2018-2025 Yury Gribov
 *
 * The MIT License (MIT)
 *
 * Use of this source code is governed by MIT license that can be
 * found in the LICENSE.txt file.
 */

  .globl cuGraphInstantiateWithFlags
  .p2align 4
  .type cuGraphInstantiateWithFlags, %function
#ifndef IMPLIB_EXPORT_SHIMS
  .hidden cuGraphInstantiateWithFlags
#endif
cuGraphInstantiateWithFlags:
  .cfi_startproc

1:
  // Load address
  // TODO: can we do this faster on newer ARMs?
  adrp ip0, _libcuda_so_tramp_table+1688
  ldr ip0, [ip0, #:lo12:_libcuda_so_tramp_table+1688]
 
  cbz ip0, 2f

  // Fast path
  br ip0

2:
  // Slow path
  mov ip0, 211 & 0xffff
#if 211 > 0xffff
  movk ip0, 211 >> 16, lsl #16
#endif
  stp ip0, lr, [sp, #-16]!; .cfi_adjust_cfa_offset 16; .cfi_rel_offset lr, 8
  bl _libcuda_so_save_regs_and_resolve
  ldp xzr, lr, [sp], #16; .cfi_adjust_cfa_offset -16; .cfi_restore lr
  br ip0
  .cfi_endproc

/*
 * Copyright 2018-2025 Yury Gribov
 *
 * The MIT License (MIT)
 *
 * Use of this source code is governed by MIT license that can be
 * found in the LICENSE.txt file.
 */

  .globl cuGraphInstantiateWithParams
  .p2align 4
  .type cuGraphInstantiateWithParams, %function
#ifndef IMPLIB_EXPORT_SHIMS
  .hidden cuGraphInstantiateWithParams
#endif
cuGraphInstantiateWithParams:
  .cfi_startproc

1:
  // Load address
  // TODO: can we do this faster on newer ARMs?
  adrp ip0, _libcuda_so_tramp_table+1696
  ldr ip0, [ip0, #:lo12:_libcuda_so_tramp_table+1696]
 
  cbz ip0, 2f

  // Fast path
  br ip0

2:
  // Slow path
  mov ip0, 212 & 0xffff
#if 212 > 0xffff
  movk ip0, 212 >> 16, lsl #16
#endif
  stp ip0, lr, [sp, #-16]!; .cfi_adjust_cfa_offset 16; .cfi_rel_offset lr, 8
  bl _libcuda_so_save_regs_and_resolve
  ldp xzr, lr, [sp], #16; .cfi_adjust_cfa_offset -16; .cfi_restore lr
  br ip0
  .cfi_endproc

/*
 * Copyright 2018-2025 Yury Gribov
 *
 * The MIT License (MIT)
 *
 * Use of this source code is governed by MIT license that can be
 * found in the LICENSE.txt file.
 */

  .globl cuGraphInstantiateWithParams_ptsz
  .p2align 4
  .type cuGraphInstantiateWithParams_ptsz, %function
#ifndef IMPLIB_EXPORT_SHIMS
  .hidden cuGraphInstantiateWithParams_ptsz
#endif
cuGraphInstantiateWithParams_ptsz:
  .cfi_startproc

1:
  // Load address
  // TODO: can we do this faster on newer ARMs?
  adrp ip0, _libcuda_so_tramp_table+1704
  ldr ip0, [ip0, #:lo12:_libcuda_so_tramp_table+1704]
 
  cbz ip0, 2f

  // Fast path
  br ip0

2:
  // Slow path
  mov ip0, 213 & 0xffff
#if 213 > 0xffff
  movk ip0, 213 >> 16, lsl #16
#endif
  stp ip0, lr, [sp, #-16]!; .cfi_adjust_cfa_offset 16; .cfi_rel_offset lr, 8
  bl _libcuda_so_save_regs_and_resolve
  ldp xzr, lr, [sp], #16; .cfi_adjust_cfa_offset -16; .cfi_restore lr
  br ip0
  .cfi_endproc

/*
 * Copyright 2018-2025 Yury Gribov
 *
 * The MIT License (MIT)
 *
 * Use of this source code is governed by MIT license that can be
 * found in the LICENSE.txt file.
 */

  .globl cuGraphInstantiate_v2
  .p2align 4
  .type cuGraphInstantiate_v2, %function
#ifndef IMPLIB_EXPORT_SHIMS
  .hidden cuGraphInstantiate_v2
#endif
cuGraphInstantiate_v2:
  .cfi_startproc

1:
  // Load address
  // TODO: can we do this faster on newer ARMs?
  adrp ip0, _libcuda_so_tramp_table+1712
  ldr ip0, [ip0, #:lo12:_libcuda_so_tramp_table+1712]
 
  cbz ip0, 2f

  // Fast path
  br ip0

2:
  // Slow path
  mov ip0, 214 & 0xffff
#if 214 > 0xffff
  movk ip0, 214 >> 16, lsl #16
#endif
  stp ip0, lr, [sp, #-16]!; .cfi_adjust_cfa_offset 16; .cfi_rel_offset lr, 8
  bl _libcuda_so_save_regs_and_resolve
  ldp xzr, lr, [sp], #16; .cfi_adjust_cfa_offset -16; .cfi_restore lr
  br ip0
  .cfi_endproc

/*
 * Copyright 2018-2025 Yury Gribov
 *
 * The MIT License (MIT)
 *
 * Use of this source code is governed by MIT license that can be
 * found in the LICENSE.txt file.
 */

  .globl cuGraphKernelNodeCopyAttributes
  .p2align 4
  .type cuGraphKernelNodeCopyAttributes, %function
#ifndef IMPLIB_EXPORT_SHIMS
  .hidden cuGraphKernelNodeCopyAttributes
#endif
cuGraphKernelNodeCopyAttributes:
  .cfi_startproc

1:
  // Load address
  // TODO: can we do this faster on newer ARMs?
  adrp ip0, _libcuda_so_tramp_table+1720
  ldr ip0, [ip0, #:lo12:_libcuda_so_tramp_table+1720]
 
  cbz ip0, 2f

  // Fast path
  br ip0

2:
  // Slow path
  mov ip0, 215 & 0xffff
#if 215 > 0xffff
  movk ip0, 215 >> 16, lsl #16
#endif
  stp ip0, lr, [sp, #-16]!; .cfi_adjust_cfa_offset 16; .cfi_rel_offset lr, 8
  bl _libcuda_so_save_regs_and_resolve
  ldp xzr, lr, [sp], #16; .cfi_adjust_cfa_offset -16; .cfi_restore lr
  br ip0
  .cfi_endproc

/*
 * Copyright 2018-2025 Yury Gribov
 *
 * The MIT License (MIT)
 *
 * Use of this source code is governed by MIT license that can be
 * found in the LICENSE.txt file.
 */

  .globl cuGraphKernelNodeGetAttribute
  .p2align 4
  .type cuGraphKernelNodeGetAttribute, %function
#ifndef IMPLIB_EXPORT_SHIMS
  .hidden cuGraphKernelNodeGetAttribute
#endif
cuGraphKernelNodeGetAttribute:
  .cfi_startproc

1:
  // Load address
  // TODO: can we do this faster on newer ARMs?
  adrp ip0, _libcuda_so_tramp_table+1728
  ldr ip0, [ip0, #:lo12:_libcuda_so_tramp_table+1728]
 
  cbz ip0, 2f

  // Fast path
  br ip0

2:
  // Slow path
  mov ip0, 216 & 0xffff
#if 216 > 0xffff
  movk ip0, 216 >> 16, lsl #16
#endif
  stp ip0, lr, [sp, #-16]!; .cfi_adjust_cfa_offset 16; .cfi_rel_offset lr, 8
  bl _libcuda_so_save_regs_and_resolve
  ldp xzr, lr, [sp], #16; .cfi_adjust_cfa_offset -16; .cfi_restore lr
  br ip0
  .cfi_endproc

/*
 * Copyright 2018-2025 Yury Gribov
 *
 * The MIT License (MIT)
 *
 * Use of this source code is governed by MIT license that can be
 * found in the LICENSE.txt file.
 */

  .globl cuGraphKernelNodeGetParams
  .p2align 4
  .type cuGraphKernelNodeGetParams, %function
#ifndef IMPLIB_EXPORT_SHIMS
  .hidden cuGraphKernelNodeGetParams
#endif
cuGraphKernelNodeGetParams:
  .cfi_startproc

1:
  // Load address
  // TODO: can we do this faster on newer ARMs?
  adrp ip0, _libcuda_so_tramp_table+1736
  ldr ip0, [ip0, #:lo12:_libcuda_so_tramp_table+1736]
 
  cbz ip0, 2f

  // Fast path
  br ip0

2:
  // Slow path
  mov ip0, 217 & 0xffff
#if 217 > 0xffff
  movk ip0, 217 >> 16, lsl #16
#endif
  stp ip0, lr, [sp, #-16]!; .cfi_adjust_cfa_offset 16; .cfi_rel_offset lr, 8
  bl _libcuda_so_save_regs_and_resolve
  ldp xzr, lr, [sp], #16; .cfi_adjust_cfa_offset -16; .cfi_restore lr
  br ip0
  .cfi_endproc

/*
 * Copyright 2018-2025 Yury Gribov
 *
 * The MIT License (MIT)
 *
 * Use of this source code is governed by MIT license that can be
 * found in the LICENSE.txt file.
 */

  .globl cuGraphKernelNodeGetParams_v2
  .p2align 4
  .type cuGraphKernelNodeGetParams_v2, %function
#ifndef IMPLIB_EXPORT_SHIMS
  .hidden cuGraphKernelNodeGetParams_v2
#endif
cuGraphKernelNodeGetParams_v2:
  .cfi_startproc

1:
  // Load address
  // TODO: can we do this faster on newer ARMs?
  adrp ip0, _libcuda_so_tramp_table+1744
  ldr ip0, [ip0, #:lo12:_libcuda_so_tramp_table+1744]
 
  cbz ip0, 2f

  // Fast path
  br ip0

2:
  // Slow path
  mov ip0, 218 & 0xffff
#if 218 > 0xffff
  movk ip0, 218 >> 16, lsl #16
#endif
  stp ip0, lr, [sp, #-16]!; .cfi_adjust_cfa_offset 16; .cfi_rel_offset lr, 8
  bl _libcuda_so_save_regs_and_resolve
  ldp xzr, lr, [sp], #16; .cfi_adjust_cfa_offset -16; .cfi_restore lr
  br ip0
  .cfi_endproc

/*
 * Copyright 2018-2025 Yury Gribov
 *
 * The MIT License (MIT)
 *
 * Use of this source code is governed by MIT license that can be
 * found in the LICENSE.txt file.
 */

  .globl cuGraphKernelNodeSetAttribute
  .p2align 4
  .type cuGraphKernelNodeSetAttribute, %function
#ifndef IMPLIB_EXPORT_SHIMS
  .hidden cuGraphKernelNodeSetAttribute
#endif
cuGraphKernelNodeSetAttribute:
  .cfi_startproc

1:
  // Load address
  // TODO: can we do this faster on newer ARMs?
  adrp ip0, _libcuda_so_tramp_table+1752
  ldr ip0, [ip0, #:lo12:_libcuda_so_tramp_table+1752]
 
  cbz ip0, 2f

  // Fast path
  br ip0

2:
  // Slow path
  mov ip0, 219 & 0xffff
#if 219 > 0xffff
  movk ip0, 219 >> 16, lsl #16
#endif
  stp ip0, lr, [sp, #-16]!; .cfi_adjust_cfa_offset 16; .cfi_rel_offset lr, 8
  bl _libcuda_so_save_regs_and_resolve
  ldp xzr, lr, [sp], #16; .cfi_adjust_cfa_offset -16; .cfi_restore lr
  br ip0
  .cfi_endproc

/*
 * Copyright 2018-2025 Yury Gribov
 *
 * The MIT License (MIT)
 *
 * Use of this source code is governed by MIT license that can be
 * found in the LICENSE.txt file.
 */

  .globl cuGraphKernelNodeSetParams
  .p2align 4
  .type cuGraphKernelNodeSetParams, %function
#ifndef IMPLIB_EXPORT_SHIMS
  .hidden cuGraphKernelNodeSetParams
#endif
cuGraphKernelNodeSetParams:
  .cfi_startproc

1:
  // Load address
  // TODO: can we do this faster on newer ARMs?
  adrp ip0, _libcuda_so_tramp_table+1760
  ldr ip0, [ip0, #:lo12:_libcuda_so_tramp_table+1760]
 
  cbz ip0, 2f

  // Fast path
  br ip0

2:
  // Slow path
  mov ip0, 220 & 0xffff
#if 220 > 0xffff
  movk ip0, 220 >> 16, lsl #16
#endif
  stp ip0, lr, [sp, #-16]!; .cfi_adjust_cfa_offset 16; .cfi_rel_offset lr, 8
  bl _libcuda_so_save_regs_and_resolve
  ldp xzr, lr, [sp], #16; .cfi_adjust_cfa_offset -16; .cfi_restore lr
  br ip0
  .cfi_endproc

/*
 * Copyright 2018-2025 Yury Gribov
 *
 * The MIT License (MIT)
 *
 * Use of this source code is governed by MIT license that can be
 * found in the LICENSE.txt file.
 */

  .globl cuGraphKernelNodeSetParams_v2
  .p2align 4
  .type cuGraphKernelNodeSetParams_v2, %function
#ifndef IMPLIB_EXPORT_SHIMS
  .hidden cuGraphKernelNodeSetParams_v2
#endif
cuGraphKernelNodeSetParams_v2:
  .cfi_startproc

1:
  // Load address
  // TODO: can we do this faster on newer ARMs?
  adrp ip0, _libcuda_so_tramp_table+1768
  ldr ip0, [ip0, #:lo12:_libcuda_so_tramp_table+1768]
 
  cbz ip0, 2f

  // Fast path
  br ip0

2:
  // Slow path
  mov ip0, 221 & 0xffff
#if 221 > 0xffff
  movk ip0, 221 >> 16, lsl #16
#endif
  stp ip0, lr, [sp, #-16]!; .cfi_adjust_cfa_offset 16; .cfi_rel_offset lr, 8
  bl _libcuda_so_save_regs_and_resolve
  ldp xzr, lr, [sp], #16; .cfi_adjust_cfa_offset -16; .cfi_restore lr
  br ip0
  .cfi_endproc

/*
 * Copyright 2018-2025 Yury Gribov
 *
 * The MIT License (MIT)
 *
 * Use of this source code is governed by MIT license that can be
 * found in the LICENSE.txt file.
 */

  .globl cuGraphLaunch
  .p2align 4
  .type cuGraphLaunch, %function
#ifndef IMPLIB_EXPORT_SHIMS
  .hidden cuGraphLaunch
#endif
cuGraphLaunch:
  .cfi_startproc

1:
  // Load address
  // TODO: can we do this faster on newer ARMs?
  adrp ip0, _libcuda_so_tramp_table+1776
  ldr ip0, [ip0, #:lo12:_libcuda_so_tramp_table+1776]
 
  cbz ip0, 2f

  // Fast path
  br ip0

2:
  // Slow path
  mov ip0, 222 & 0xffff
#if 222 > 0xffff
  movk ip0, 222 >> 16, lsl #16
#endif
  stp ip0, lr, [sp, #-16]!; .cfi_adjust_cfa_offset 16; .cfi_rel_offset lr, 8
  bl _libcuda_so_save_regs_and_resolve
  ldp xzr, lr, [sp], #16; .cfi_adjust_cfa_offset -16; .cfi_restore lr
  br ip0
  .cfi_endproc

/*
 * Copyright 2018-2025 Yury Gribov
 *
 * The MIT License (MIT)
 *
 * Use of this source code is governed by MIT license that can be
 * found in the LICENSE.txt file.
 */

  .globl cuGraphLaunch_ptsz
  .p2align 4
  .type cuGraphLaunch_ptsz, %function
#ifndef IMPLIB_EXPORT_SHIMS
  .hidden cuGraphLaunch_ptsz
#endif
cuGraphLaunch_ptsz:
  .cfi_startproc

1:
  // Load address
  // TODO: can we do this faster on newer ARMs?
  adrp ip0, _libcuda_so_tramp_table+1784
  ldr ip0, [ip0, #:lo12:_libcuda_so_tramp_table+1784]
 
  cbz ip0, 2f

  // Fast path
  br ip0

2:
  // Slow path
  mov ip0, 223 & 0xffff
#if 223 > 0xffff
  movk ip0, 223 >> 16, lsl #16
#endif
  stp ip0, lr, [sp, #-16]!; .cfi_adjust_cfa_offset 16; .cfi_rel_offset lr, 8
  bl _libcuda_so_save_regs_and_resolve
  ldp xzr, lr, [sp], #16; .cfi_adjust_cfa_offset -16; .cfi_restore lr
  br ip0
  .cfi_endproc

/*
 * Copyright 2018-2025 Yury Gribov
 *
 * The MIT License (MIT)
 *
 * Use of this source code is governed by MIT license that can be
 * found in the LICENSE.txt file.
 */

  .globl cuGraphMemAllocNodeGetParams
  .p2align 4
  .type cuGraphMemAllocNodeGetParams, %function
#ifndef IMPLIB_EXPORT_SHIMS
  .hidden cuGraphMemAllocNodeGetParams
#endif
cuGraphMemAllocNodeGetParams:
  .cfi_startproc

1:
  // Load address
  // TODO: can we do this faster on newer ARMs?
  adrp ip0, _libcuda_so_tramp_table+1792
  ldr ip0, [ip0, #:lo12:_libcuda_so_tramp_table+1792]
 
  cbz ip0, 2f

  // Fast path
  br ip0

2:
  // Slow path
  mov ip0, 224 & 0xffff
#if 224 > 0xffff
  movk ip0, 224 >> 16, lsl #16
#endif
  stp ip0, lr, [sp, #-16]!; .cfi_adjust_cfa_offset 16; .cfi_rel_offset lr, 8
  bl _libcuda_so_save_regs_and_resolve
  ldp xzr, lr, [sp], #16; .cfi_adjust_cfa_offset -16; .cfi_restore lr
  br ip0
  .cfi_endproc

/*
 * Copyright 2018-2025 Yury Gribov
 *
 * The MIT License (MIT)
 *
 * Use of this source code is governed by MIT license that can be
 * found in the LICENSE.txt file.
 */

  .globl cuGraphMemFreeNodeGetParams
  .p2align 4
  .type cuGraphMemFreeNodeGetParams, %function
#ifndef IMPLIB_EXPORT_SHIMS
  .hidden cuGraphMemFreeNodeGetParams
#endif
cuGraphMemFreeNodeGetParams:
  .cfi_startproc

1:
  // Load address
  // TODO: can we do this faster on newer ARMs?
  adrp ip0, _libcuda_so_tramp_table+1800
  ldr ip0, [ip0, #:lo12:_libcuda_so_tramp_table+1800]
 
  cbz ip0, 2f

  // Fast path
  br ip0

2:
  // Slow path
  mov ip0, 225 & 0xffff
#if 225 > 0xffff
  movk ip0, 225 >> 16, lsl #16
#endif
  stp ip0, lr, [sp, #-16]!; .cfi_adjust_cfa_offset 16; .cfi_rel_offset lr, 8
  bl _libcuda_so_save_regs_and_resolve
  ldp xzr, lr, [sp], #16; .cfi_adjust_cfa_offset -16; .cfi_restore lr
  br ip0
  .cfi_endproc

/*
 * Copyright 2018-2025 Yury Gribov
 *
 * The MIT License (MIT)
 *
 * Use of this source code is governed by MIT license that can be
 * found in the LICENSE.txt file.
 */

  .globl cuGraphMemcpyNodeGetParams
  .p2align 4
  .type cuGraphMemcpyNodeGetParams, %function
#ifndef IMPLIB_EXPORT_SHIMS
  .hidden cuGraphMemcpyNodeGetParams
#endif
cuGraphMemcpyNodeGetParams:
  .cfi_startproc

1:
  // Load address
  // TODO: can we do this faster on newer ARMs?
  adrp ip0, _libcuda_so_tramp_table+1808
  ldr ip0, [ip0, #:lo12:_libcuda_so_tramp_table+1808]
 
  cbz ip0, 2f

  // Fast path
  br ip0

2:
  // Slow path
  mov ip0, 226 & 0xffff
#if 226 > 0xffff
  movk ip0, 226 >> 16, lsl #16
#endif
  stp ip0, lr, [sp, #-16]!; .cfi_adjust_cfa_offset 16; .cfi_rel_offset lr, 8
  bl _libcuda_so_save_regs_and_resolve
  ldp xzr, lr, [sp], #16; .cfi_adjust_cfa_offset -16; .cfi_restore lr
  br ip0
  .cfi_endproc

/*
 * Copyright 2018-2025 Yury Gribov
 *
 * The MIT License (MIT)
 *
 * Use of this source code is governed by MIT license that can be
 * found in the LICENSE.txt file.
 */

  .globl cuGraphMemcpyNodeSetParams
  .p2align 4
  .type cuGraphMemcpyNodeSetParams, %function
#ifndef IMPLIB_EXPORT_SHIMS
  .hidden cuGraphMemcpyNodeSetParams
#endif
cuGraphMemcpyNodeSetParams:
  .cfi_startproc

1:
  // Load address
  // TODO: can we do this faster on newer ARMs?
  adrp ip0, _libcuda_so_tramp_table+1816
  ldr ip0, [ip0, #:lo12:_libcuda_so_tramp_table+1816]
 
  cbz ip0, 2f

  // Fast path
  br ip0

2:
  // Slow path
  mov ip0, 227 & 0xffff
#if 227 > 0xffff
  movk ip0, 227 >> 16, lsl #16
#endif
  stp ip0, lr, [sp, #-16]!; .cfi_adjust_cfa_offset 16; .cfi_rel_offset lr, 8
  bl _libcuda_so_save_regs_and_resolve
  ldp xzr, lr, [sp], #16; .cfi_adjust_cfa_offset -16; .cfi_restore lr
  br ip0
  .cfi_endproc

/*
 * Copyright 2018-2025 Yury Gribov
 *
 * The MIT License (MIT)
 *
 * Use of this source code is governed by MIT license that can be
 * found in the LICENSE.txt file.
 */

  .globl cuGraphMemsetNodeGetParams
  .p2align 4
  .type cuGraphMemsetNodeGetParams, %function
#ifndef IMPLIB_EXPORT_SHIMS
  .hidden cuGraphMemsetNodeGetParams
#endif
cuGraphMemsetNodeGetParams:
  .cfi_startproc

1:
  // Load address
  // TODO: can we do this faster on newer ARMs?
  adrp ip0, _libcuda_so_tramp_table+1824
  ldr ip0, [ip0, #:lo12:_libcuda_so_tramp_table+1824]
 
  cbz ip0, 2f

  // Fast path
  br ip0

2:
  // Slow path
  mov ip0, 228 & 0xffff
#if 228 > 0xffff
  movk ip0, 228 >> 16, lsl #16
#endif
  stp ip0, lr, [sp, #-16]!; .cfi_adjust_cfa_offset 16; .cfi_rel_offset lr, 8
  bl _libcuda_so_save_regs_and_resolve
  ldp xzr, lr, [sp], #16; .cfi_adjust_cfa_offset -16; .cfi_restore lr
  br ip0
  .cfi_endproc

/*
 * Copyright 2018-2025 Yury Gribov
 *
 * The MIT License (MIT)
 *
 * Use of this source code is governed by MIT license that can be
 * found in the LICENSE.txt file.
 */

  .globl cuGraphMemsetNodeSetParams
  .p2align 4
  .type cuGraphMemsetNodeSetParams, %function
#ifndef IMPLIB_EXPORT_SHIMS
  .hidden cuGraphMemsetNodeSetParams
#endif
cuGraphMemsetNodeSetParams:
  .cfi_startproc

1:
  // Load address
  // TODO: can we do this faster on newer ARMs?
  adrp ip0, _libcuda_so_tramp_table+1832
  ldr ip0, [ip0, #:lo12:_libcuda_so_tramp_table+1832]
 
  cbz ip0, 2f

  // Fast path
  br ip0

2:
  // Slow path
  mov ip0, 229 & 0xffff
#if 229 > 0xffff
  movk ip0, 229 >> 16, lsl #16
#endif
  stp ip0, lr, [sp, #-16]!; .cfi_adjust_cfa_offset 16; .cfi_rel_offset lr, 8
  bl _libcuda_so_save_regs_and_resolve
  ldp xzr, lr, [sp], #16; .cfi_adjust_cfa_offset -16; .cfi_restore lr
  br ip0
  .cfi_endproc

/*
 * Copyright 2018-2025 Yury Gribov
 *
 * The MIT License (MIT)
 *
 * Use of this source code is governed by MIT license that can be
 * found in the LICENSE.txt file.
 */

  .globl cuGraphNodeFindInClone
  .p2align 4
  .type cuGraphNodeFindInClone, %function
#ifndef IMPLIB_EXPORT_SHIMS
  .hidden cuGraphNodeFindInClone
#endif
cuGraphNodeFindInClone:
  .cfi_startproc

1:
  // Load address
  // TODO: can we do this faster on newer ARMs?
  adrp ip0, _libcuda_so_tramp_table+1840
  ldr ip0, [ip0, #:lo12:_libcuda_so_tramp_table+1840]
 
  cbz ip0, 2f

  // Fast path
  br ip0

2:
  // Slow path
  mov ip0, 230 & 0xffff
#if 230 > 0xffff
  movk ip0, 230 >> 16, lsl #16
#endif
  stp ip0, lr, [sp, #-16]!; .cfi_adjust_cfa_offset 16; .cfi_rel_offset lr, 8
  bl _libcuda_so_save_regs_and_resolve
  ldp xzr, lr, [sp], #16; .cfi_adjust_cfa_offset -16; .cfi_restore lr
  br ip0
  .cfi_endproc

/*
 * Copyright 2018-2025 Yury Gribov
 *
 * The MIT License (MIT)
 *
 * Use of this source code is governed by MIT license that can be
 * found in the LICENSE.txt file.
 */

  .globl cuGraphNodeGetDependencies
  .p2align 4
  .type cuGraphNodeGetDependencies, %function
#ifndef IMPLIB_EXPORT_SHIMS
  .hidden cuGraphNodeGetDependencies
#endif
cuGraphNodeGetDependencies:
  .cfi_startproc

1:
  // Load address
  // TODO: can we do this faster on newer ARMs?
  adrp ip0, _libcuda_so_tramp_table+1848
  ldr ip0, [ip0, #:lo12:_libcuda_so_tramp_table+1848]
 
  cbz ip0, 2f

  // Fast path
  br ip0

2:
  // Slow path
  mov ip0, 231 & 0xffff
#if 231 > 0xffff
  movk ip0, 231 >> 16, lsl #16
#endif
  stp ip0, lr, [sp, #-16]!; .cfi_adjust_cfa_offset 16; .cfi_rel_offset lr, 8
  bl _libcuda_so_save_regs_and_resolve
  ldp xzr, lr, [sp], #16; .cfi_adjust_cfa_offset -16; .cfi_restore lr
  br ip0
  .cfi_endproc

/*
 * Copyright 2018-2025 Yury Gribov
 *
 * The MIT License (MIT)
 *
 * Use of this source code is governed by MIT license that can be
 * found in the LICENSE.txt file.
 */

  .globl cuGraphNodeGetDependencies_v2
  .p2align 4
  .type cuGraphNodeGetDependencies_v2, %function
#ifndef IMPLIB_EXPORT_SHIMS
  .hidden cuGraphNodeGetDependencies_v2
#endif
cuGraphNodeGetDependencies_v2:
  .cfi_startproc

1:
  // Load address
  // TODO: can we do this faster on newer ARMs?
  adrp ip0, _libcuda_so_tramp_table+1856
  ldr ip0, [ip0, #:lo12:_libcuda_so_tramp_table+1856]
 
  cbz ip0, 2f

  // Fast path
  br ip0

2:
  // Slow path
  mov ip0, 232 & 0xffff
#if 232 > 0xffff
  movk ip0, 232 >> 16, lsl #16
#endif
  stp ip0, lr, [sp, #-16]!; .cfi_adjust_cfa_offset 16; .cfi_rel_offset lr, 8
  bl _libcuda_so_save_regs_and_resolve
  ldp xzr, lr, [sp], #16; .cfi_adjust_cfa_offset -16; .cfi_restore lr
  br ip0
  .cfi_endproc

/*
 * Copyright 2018-2025 Yury Gribov
 *
 * The MIT License (MIT)
 *
 * Use of this source code is governed by MIT license that can be
 * found in the LICENSE.txt file.
 */

  .globl cuGraphNodeGetDependentNodes
  .p2align 4
  .type cuGraphNodeGetDependentNodes, %function
#ifndef IMPLIB_EXPORT_SHIMS
  .hidden cuGraphNodeGetDependentNodes
#endif
cuGraphNodeGetDependentNodes:
  .cfi_startproc

1:
  // Load address
  // TODO: can we do this faster on newer ARMs?
  adrp ip0, _libcuda_so_tramp_table+1864
  ldr ip0, [ip0, #:lo12:_libcuda_so_tramp_table+1864]
 
  cbz ip0, 2f

  // Fast path
  br ip0

2:
  // Slow path
  mov ip0, 233 & 0xffff
#if 233 > 0xffff
  movk ip0, 233 >> 16, lsl #16
#endif
  stp ip0, lr, [sp, #-16]!; .cfi_adjust_cfa_offset 16; .cfi_rel_offset lr, 8
  bl _libcuda_so_save_regs_and_resolve
  ldp xzr, lr, [sp], #16; .cfi_adjust_cfa_offset -16; .cfi_restore lr
  br ip0
  .cfi_endproc

/*
 * Copyright 2018-2025 Yury Gribov
 *
 * The MIT License (MIT)
 *
 * Use of this source code is governed by MIT license that can be
 * found in the LICENSE.txt file.
 */

  .globl cuGraphNodeGetDependentNodes_v2
  .p2align 4
  .type cuGraphNodeGetDependentNodes_v2, %function
#ifndef IMPLIB_EXPORT_SHIMS
  .hidden cuGraphNodeGetDependentNodes_v2
#endif
cuGraphNodeGetDependentNodes_v2:
  .cfi_startproc

1:
  // Load address
  // TODO: can we do this faster on newer ARMs?
  adrp ip0, _libcuda_so_tramp_table+1872
  ldr ip0, [ip0, #:lo12:_libcuda_so_tramp_table+1872]
 
  cbz ip0, 2f

  // Fast path
  br ip0

2:
  // Slow path
  mov ip0, 234 & 0xffff
#if 234 > 0xffff
  movk ip0, 234 >> 16, lsl #16
#endif
  stp ip0, lr, [sp, #-16]!; .cfi_adjust_cfa_offset 16; .cfi_rel_offset lr, 8
  bl _libcuda_so_save_regs_and_resolve
  ldp xzr, lr, [sp], #16; .cfi_adjust_cfa_offset -16; .cfi_restore lr
  br ip0
  .cfi_endproc

/*
 * Copyright 2018-2025 Yury Gribov
 *
 * The MIT License (MIT)
 *
 * Use of this source code is governed by MIT license that can be
 * found in the LICENSE.txt file.
 */

  .globl cuGraphNodeGetEnabled
  .p2align 4
  .type cuGraphNodeGetEnabled, %function
#ifndef IMPLIB_EXPORT_SHIMS
  .hidden cuGraphNodeGetEnabled
#endif
cuGraphNodeGetEnabled:
  .cfi_startproc

1:
  // Load address
  // TODO: can we do this faster on newer ARMs?
  adrp ip0, _libcuda_so_tramp_table+1880
  ldr ip0, [ip0, #:lo12:_libcuda_so_tramp_table+1880]
 
  cbz ip0, 2f

  // Fast path
  br ip0

2:
  // Slow path
  mov ip0, 235 & 0xffff
#if 235 > 0xffff
  movk ip0, 235 >> 16, lsl #16
#endif
  stp ip0, lr, [sp, #-16]!; .cfi_adjust_cfa_offset 16; .cfi_rel_offset lr, 8
  bl _libcuda_so_save_regs_and_resolve
  ldp xzr, lr, [sp], #16; .cfi_adjust_cfa_offset -16; .cfi_restore lr
  br ip0
  .cfi_endproc

/*
 * Copyright 2018-2025 Yury Gribov
 *
 * The MIT License (MIT)
 *
 * Use of this source code is governed by MIT license that can be
 * found in the LICENSE.txt file.
 */

  .globl cuGraphNodeGetType
  .p2align 4
  .type cuGraphNodeGetType, %function
#ifndef IMPLIB_EXPORT_SHIMS
  .hidden cuGraphNodeGetType
#endif
cuGraphNodeGetType:
  .cfi_startproc

1:
  // Load address
  // TODO: can we do this faster on newer ARMs?
  adrp ip0, _libcuda_so_tramp_table+1888
  ldr ip0, [ip0, #:lo12:_libcuda_so_tramp_table+1888]
 
  cbz ip0, 2f

  // Fast path
  br ip0

2:
  // Slow path
  mov ip0, 236 & 0xffff
#if 236 > 0xffff
  movk ip0, 236 >> 16, lsl #16
#endif
  stp ip0, lr, [sp, #-16]!; .cfi_adjust_cfa_offset 16; .cfi_rel_offset lr, 8
  bl _libcuda_so_save_regs_and_resolve
  ldp xzr, lr, [sp], #16; .cfi_adjust_cfa_offset -16; .cfi_restore lr
  br ip0
  .cfi_endproc

/*
 * Copyright 2018-2025 Yury Gribov
 *
 * The MIT License (MIT)
 *
 * Use of this source code is governed by MIT license that can be
 * found in the LICENSE.txt file.
 */

  .globl cuGraphNodeSetEnabled
  .p2align 4
  .type cuGraphNodeSetEnabled, %function
#ifndef IMPLIB_EXPORT_SHIMS
  .hidden cuGraphNodeSetEnabled
#endif
cuGraphNodeSetEnabled:
  .cfi_startproc

1:
  // Load address
  // TODO: can we do this faster on newer ARMs?
  adrp ip0, _libcuda_so_tramp_table+1896
  ldr ip0, [ip0, #:lo12:_libcuda_so_tramp_table+1896]
 
  cbz ip0, 2f

  // Fast path
  br ip0

2:
  // Slow path
  mov ip0, 237 & 0xffff
#if 237 > 0xffff
  movk ip0, 237 >> 16, lsl #16
#endif
  stp ip0, lr, [sp, #-16]!; .cfi_adjust_cfa_offset 16; .cfi_rel_offset lr, 8
  bl _libcuda_so_save_regs_and_resolve
  ldp xzr, lr, [sp], #16; .cfi_adjust_cfa_offset -16; .cfi_restore lr
  br ip0
  .cfi_endproc

/*
 * Copyright 2018-2025 Yury Gribov
 *
 * The MIT License (MIT)
 *
 * Use of this source code is governed by MIT license that can be
 * found in the LICENSE.txt file.
 */

  .globl cuGraphNodeSetParams
  .p2align 4
  .type cuGraphNodeSetParams, %function
#ifndef IMPLIB_EXPORT_SHIMS
  .hidden cuGraphNodeSetParams
#endif
cuGraphNodeSetParams:
  .cfi_startproc

1:
  // Load address
  // TODO: can we do this faster on newer ARMs?
  adrp ip0, _libcuda_so_tramp_table+1904
  ldr ip0, [ip0, #:lo12:_libcuda_so_tramp_table+1904]
 
  cbz ip0, 2f

  // Fast path
  br ip0

2:
  // Slow path
  mov ip0, 238 & 0xffff
#if 238 > 0xffff
  movk ip0, 238 >> 16, lsl #16
#endif
  stp ip0, lr, [sp, #-16]!; .cfi_adjust_cfa_offset 16; .cfi_rel_offset lr, 8
  bl _libcuda_so_save_regs_and_resolve
  ldp xzr, lr, [sp], #16; .cfi_adjust_cfa_offset -16; .cfi_restore lr
  br ip0
  .cfi_endproc

/*
 * Copyright 2018-2025 Yury Gribov
 *
 * The MIT License (MIT)
 *
 * Use of this source code is governed by MIT license that can be
 * found in the LICENSE.txt file.
 */

  .globl cuGraphReleaseUserObject
  .p2align 4
  .type cuGraphReleaseUserObject, %function
#ifndef IMPLIB_EXPORT_SHIMS
  .hidden cuGraphReleaseUserObject
#endif
cuGraphReleaseUserObject:
  .cfi_startproc

1:
  // Load address
  // TODO: can we do this faster on newer ARMs?
  adrp ip0, _libcuda_so_tramp_table+1912
  ldr ip0, [ip0, #:lo12:_libcuda_so_tramp_table+1912]
 
  cbz ip0, 2f

  // Fast path
  br ip0

2:
  // Slow path
  mov ip0, 239 & 0xffff
#if 239 > 0xffff
  movk ip0, 239 >> 16, lsl #16
#endif
  stp ip0, lr, [sp, #-16]!; .cfi_adjust_cfa_offset 16; .cfi_rel_offset lr, 8
  bl _libcuda_so_save_regs_and_resolve
  ldp xzr, lr, [sp], #16; .cfi_adjust_cfa_offset -16; .cfi_restore lr
  br ip0
  .cfi_endproc

/*
 * Copyright 2018-2025 Yury Gribov
 *
 * The MIT License (MIT)
 *
 * Use of this source code is governed by MIT license that can be
 * found in the LICENSE.txt file.
 */

  .globl cuGraphRemoveDependencies
  .p2align 4
  .type cuGraphRemoveDependencies, %function
#ifndef IMPLIB_EXPORT_SHIMS
  .hidden cuGraphRemoveDependencies
#endif
cuGraphRemoveDependencies:
  .cfi_startproc

1:
  // Load address
  // TODO: can we do this faster on newer ARMs?
  adrp ip0, _libcuda_so_tramp_table+1920
  ldr ip0, [ip0, #:lo12:_libcuda_so_tramp_table+1920]
 
  cbz ip0, 2f

  // Fast path
  br ip0

2:
  // Slow path
  mov ip0, 240 & 0xffff
#if 240 > 0xffff
  movk ip0, 240 >> 16, lsl #16
#endif
  stp ip0, lr, [sp, #-16]!; .cfi_adjust_cfa_offset 16; .cfi_rel_offset lr, 8
  bl _libcuda_so_save_regs_and_resolve
  ldp xzr, lr, [sp], #16; .cfi_adjust_cfa_offset -16; .cfi_restore lr
  br ip0
  .cfi_endproc

/*
 * Copyright 2018-2025 Yury Gribov
 *
 * The MIT License (MIT)
 *
 * Use of this source code is governed by MIT license that can be
 * found in the LICENSE.txt file.
 */

  .globl cuGraphRemoveDependencies_v2
  .p2align 4
  .type cuGraphRemoveDependencies_v2, %function
#ifndef IMPLIB_EXPORT_SHIMS
  .hidden cuGraphRemoveDependencies_v2
#endif
cuGraphRemoveDependencies_v2:
  .cfi_startproc

1:
  // Load address
  // TODO: can we do this faster on newer ARMs?
  adrp ip0, _libcuda_so_tramp_table+1928
  ldr ip0, [ip0, #:lo12:_libcuda_so_tramp_table+1928]
 
  cbz ip0, 2f

  // Fast path
  br ip0

2:
  // Slow path
  mov ip0, 241 & 0xffff
#if 241 > 0xffff
  movk ip0, 241 >> 16, lsl #16
#endif
  stp ip0, lr, [sp, #-16]!; .cfi_adjust_cfa_offset 16; .cfi_rel_offset lr, 8
  bl _libcuda_so_save_regs_and_resolve
  ldp xzr, lr, [sp], #16; .cfi_adjust_cfa_offset -16; .cfi_restore lr
  br ip0
  .cfi_endproc

/*
 * Copyright 2018-2025 Yury Gribov
 *
 * The MIT License (MIT)
 *
 * Use of this source code is governed by MIT license that can be
 * found in the LICENSE.txt file.
 */

  .globl cuGraphRetainUserObject
  .p2align 4
  .type cuGraphRetainUserObject, %function
#ifndef IMPLIB_EXPORT_SHIMS
  .hidden cuGraphRetainUserObject
#endif
cuGraphRetainUserObject:
  .cfi_startproc

1:
  // Load address
  // TODO: can we do this faster on newer ARMs?
  adrp ip0, _libcuda_so_tramp_table+1936
  ldr ip0, [ip0, #:lo12:_libcuda_so_tramp_table+1936]
 
  cbz ip0, 2f

  // Fast path
  br ip0

2:
  // Slow path
  mov ip0, 242 & 0xffff
#if 242 > 0xffff
  movk ip0, 242 >> 16, lsl #16
#endif
  stp ip0, lr, [sp, #-16]!; .cfi_adjust_cfa_offset 16; .cfi_rel_offset lr, 8
  bl _libcuda_so_save_regs_and_resolve
  ldp xzr, lr, [sp], #16; .cfi_adjust_cfa_offset -16; .cfi_restore lr
  br ip0
  .cfi_endproc

/*
 * Copyright 2018-2025 Yury Gribov
 *
 * The MIT License (MIT)
 *
 * Use of this source code is governed by MIT license that can be
 * found in the LICENSE.txt file.
 */

  .globl cuGraphUpload
  .p2align 4
  .type cuGraphUpload, %function
#ifndef IMPLIB_EXPORT_SHIMS
  .hidden cuGraphUpload
#endif
cuGraphUpload:
  .cfi_startproc

1:
  // Load address
  // TODO: can we do this faster on newer ARMs?
  adrp ip0, _libcuda_so_tramp_table+1944
  ldr ip0, [ip0, #:lo12:_libcuda_so_tramp_table+1944]
 
  cbz ip0, 2f

  // Fast path
  br ip0

2:
  // Slow path
  mov ip0, 243 & 0xffff
#if 243 > 0xffff
  movk ip0, 243 >> 16, lsl #16
#endif
  stp ip0, lr, [sp, #-16]!; .cfi_adjust_cfa_offset 16; .cfi_rel_offset lr, 8
  bl _libcuda_so_save_regs_and_resolve
  ldp xzr, lr, [sp], #16; .cfi_adjust_cfa_offset -16; .cfi_restore lr
  br ip0
  .cfi_endproc

/*
 * Copyright 2018-2025 Yury Gribov
 *
 * The MIT License (MIT)
 *
 * Use of this source code is governed by MIT license that can be
 * found in the LICENSE.txt file.
 */

  .globl cuGraphUpload_ptsz
  .p2align 4
  .type cuGraphUpload_ptsz, %function
#ifndef IMPLIB_EXPORT_SHIMS
  .hidden cuGraphUpload_ptsz
#endif
cuGraphUpload_ptsz:
  .cfi_startproc

1:
  // Load address
  // TODO: can we do this faster on newer ARMs?
  adrp ip0, _libcuda_so_tramp_table+1952
  ldr ip0, [ip0, #:lo12:_libcuda_so_tramp_table+1952]
 
  cbz ip0, 2f

  // Fast path
  br ip0

2:
  // Slow path
  mov ip0, 244 & 0xffff
#if 244 > 0xffff
  movk ip0, 244 >> 16, lsl #16
#endif
  stp ip0, lr, [sp, #-16]!; .cfi_adjust_cfa_offset 16; .cfi_rel_offset lr, 8
  bl _libcuda_so_save_regs_and_resolve
  ldp xzr, lr, [sp], #16; .cfi_adjust_cfa_offset -16; .cfi_restore lr
  br ip0
  .cfi_endproc

/*
 * Copyright 2018-2025 Yury Gribov
 *
 * The MIT License (MIT)
 *
 * Use of this source code is governed by MIT license that can be
 * found in the LICENSE.txt file.
 */

  .globl cuGraphicsEGLRegisterImage
  .p2align 4
  .type cuGraphicsEGLRegisterImage, %function
#ifndef IMPLIB_EXPORT_SHIMS
  .hidden cuGraphicsEGLRegisterImage
#endif
cuGraphicsEGLRegisterImage:
  .cfi_startproc

1:
  // Load address
  // TODO: can we do this faster on newer ARMs?
  adrp ip0, _libcuda_so_tramp_table+1960
  ldr ip0, [ip0, #:lo12:_libcuda_so_tramp_table+1960]
 
  cbz ip0, 2f

  // Fast path
  br ip0

2:
  // Slow path
  mov ip0, 245 & 0xffff
#if 245 > 0xffff
  movk ip0, 245 >> 16, lsl #16
#endif
  stp ip0, lr, [sp, #-16]!; .cfi_adjust_cfa_offset 16; .cfi_rel_offset lr, 8
  bl _libcuda_so_save_regs_and_resolve
  ldp xzr, lr, [sp], #16; .cfi_adjust_cfa_offset -16; .cfi_restore lr
  br ip0
  .cfi_endproc

/*
 * Copyright 2018-2025 Yury Gribov
 *
 * The MIT License (MIT)
 *
 * Use of this source code is governed by MIT license that can be
 * found in the LICENSE.txt file.
 */

  .globl cuGraphicsGLRegisterBuffer
  .p2align 4
  .type cuGraphicsGLRegisterBuffer, %function
#ifndef IMPLIB_EXPORT_SHIMS
  .hidden cuGraphicsGLRegisterBuffer
#endif
cuGraphicsGLRegisterBuffer:
  .cfi_startproc

1:
  // Load address
  // TODO: can we do this faster on newer ARMs?
  adrp ip0, _libcuda_so_tramp_table+1968
  ldr ip0, [ip0, #:lo12:_libcuda_so_tramp_table+1968]
 
  cbz ip0, 2f

  // Fast path
  br ip0

2:
  // Slow path
  mov ip0, 246 & 0xffff
#if 246 > 0xffff
  movk ip0, 246 >> 16, lsl #16
#endif
  stp ip0, lr, [sp, #-16]!; .cfi_adjust_cfa_offset 16; .cfi_rel_offset lr, 8
  bl _libcuda_so_save_regs_and_resolve
  ldp xzr, lr, [sp], #16; .cfi_adjust_cfa_offset -16; .cfi_restore lr
  br ip0
  .cfi_endproc

/*
 * Copyright 2018-2025 Yury Gribov
 *
 * The MIT License (MIT)
 *
 * Use of this source code is governed by MIT license that can be
 * found in the LICENSE.txt file.
 */

  .globl cuGraphicsGLRegisterImage
  .p2align 4
  .type cuGraphicsGLRegisterImage, %function
#ifndef IMPLIB_EXPORT_SHIMS
  .hidden cuGraphicsGLRegisterImage
#endif
cuGraphicsGLRegisterImage:
  .cfi_startproc

1:
  // Load address
  // TODO: can we do this faster on newer ARMs?
  adrp ip0, _libcuda_so_tramp_table+1976
  ldr ip0, [ip0, #:lo12:_libcuda_so_tramp_table+1976]
 
  cbz ip0, 2f

  // Fast path
  br ip0

2:
  // Slow path
  mov ip0, 247 & 0xffff
#if 247 > 0xffff
  movk ip0, 247 >> 16, lsl #16
#endif
  stp ip0, lr, [sp, #-16]!; .cfi_adjust_cfa_offset 16; .cfi_rel_offset lr, 8
  bl _libcuda_so_save_regs_and_resolve
  ldp xzr, lr, [sp], #16; .cfi_adjust_cfa_offset -16; .cfi_restore lr
  br ip0
  .cfi_endproc

/*
 * Copyright 2018-2025 Yury Gribov
 *
 * The MIT License (MIT)
 *
 * Use of this source code is governed by MIT license that can be
 * found in the LICENSE.txt file.
 */

  .globl cuGraphicsMapResources
  .p2align 4
  .type cuGraphicsMapResources, %function
#ifndef IMPLIB_EXPORT_SHIMS
  .hidden cuGraphicsMapResources
#endif
cuGraphicsMapResources:
  .cfi_startproc

1:
  // Load address
  // TODO: can we do this faster on newer ARMs?
  adrp ip0, _libcuda_so_tramp_table+1984
  ldr ip0, [ip0, #:lo12:_libcuda_so_tramp_table+1984]
 
  cbz ip0, 2f

  // Fast path
  br ip0

2:
  // Slow path
  mov ip0, 248 & 0xffff
#if 248 > 0xffff
  movk ip0, 248 >> 16, lsl #16
#endif
  stp ip0, lr, [sp, #-16]!; .cfi_adjust_cfa_offset 16; .cfi_rel_offset lr, 8
  bl _libcuda_so_save_regs_and_resolve
  ldp xzr, lr, [sp], #16; .cfi_adjust_cfa_offset -16; .cfi_restore lr
  br ip0
  .cfi_endproc

/*
 * Copyright 2018-2025 Yury Gribov
 *
 * The MIT License (MIT)
 *
 * Use of this source code is governed by MIT license that can be
 * found in the LICENSE.txt file.
 */

  .globl cuGraphicsMapResources_ptsz
  .p2align 4
  .type cuGraphicsMapResources_ptsz, %function
#ifndef IMPLIB_EXPORT_SHIMS
  .hidden cuGraphicsMapResources_ptsz
#endif
cuGraphicsMapResources_ptsz:
  .cfi_startproc

1:
  // Load address
  // TODO: can we do this faster on newer ARMs?
  adrp ip0, _libcuda_so_tramp_table+1992
  ldr ip0, [ip0, #:lo12:_libcuda_so_tramp_table+1992]
 
  cbz ip0, 2f

  // Fast path
  br ip0

2:
  // Slow path
  mov ip0, 249 & 0xffff
#if 249 > 0xffff
  movk ip0, 249 >> 16, lsl #16
#endif
  stp ip0, lr, [sp, #-16]!; .cfi_adjust_cfa_offset 16; .cfi_rel_offset lr, 8
  bl _libcuda_so_save_regs_and_resolve
  ldp xzr, lr, [sp], #16; .cfi_adjust_cfa_offset -16; .cfi_restore lr
  br ip0
  .cfi_endproc

/*
 * Copyright 2018-2025 Yury Gribov
 *
 * The MIT License (MIT)
 *
 * Use of this source code is governed by MIT license that can be
 * found in the LICENSE.txt file.
 */

  .globl cuGraphicsResourceGetMappedEglFrame
  .p2align 4
  .type cuGraphicsResourceGetMappedEglFrame, %function
#ifndef IMPLIB_EXPORT_SHIMS
  .hidden cuGraphicsResourceGetMappedEglFrame
#endif
cuGraphicsResourceGetMappedEglFrame:
  .cfi_startproc

1:
  // Load address
  // TODO: can we do this faster on newer ARMs?
  adrp ip0, _libcuda_so_tramp_table+2000
  ldr ip0, [ip0, #:lo12:_libcuda_so_tramp_table+2000]
 
  cbz ip0, 2f

  // Fast path
  br ip0

2:
  // Slow path
  mov ip0, 250 & 0xffff
#if 250 > 0xffff
  movk ip0, 250 >> 16, lsl #16
#endif
  stp ip0, lr, [sp, #-16]!; .cfi_adjust_cfa_offset 16; .cfi_rel_offset lr, 8
  bl _libcuda_so_save_regs_and_resolve
  ldp xzr, lr, [sp], #16; .cfi_adjust_cfa_offset -16; .cfi_restore lr
  br ip0
  .cfi_endproc

/*
 * Copyright 2018-2025 Yury Gribov
 *
 * The MIT License (MIT)
 *
 * Use of this source code is governed by MIT license that can be
 * found in the LICENSE.txt file.
 */

  .globl cuGraphicsResourceGetMappedMipmappedArray
  .p2align 4
  .type cuGraphicsResourceGetMappedMipmappedArray, %function
#ifndef IMPLIB_EXPORT_SHIMS
  .hidden cuGraphicsResourceGetMappedMipmappedArray
#endif
cuGraphicsResourceGetMappedMipmappedArray:
  .cfi_startproc

1:
  // Load address
  // TODO: can we do this faster on newer ARMs?
  adrp ip0, _libcuda_so_tramp_table+2008
  ldr ip0, [ip0, #:lo12:_libcuda_so_tramp_table+2008]
 
  cbz ip0, 2f

  // Fast path
  br ip0

2:
  // Slow path
  mov ip0, 251 & 0xffff
#if 251 > 0xffff
  movk ip0, 251 >> 16, lsl #16
#endif
  stp ip0, lr, [sp, #-16]!; .cfi_adjust_cfa_offset 16; .cfi_rel_offset lr, 8
  bl _libcuda_so_save_regs_and_resolve
  ldp xzr, lr, [sp], #16; .cfi_adjust_cfa_offset -16; .cfi_restore lr
  br ip0
  .cfi_endproc

/*
 * Copyright 2018-2025 Yury Gribov
 *
 * The MIT License (MIT)
 *
 * Use of this source code is governed by MIT license that can be
 * found in the LICENSE.txt file.
 */

  .globl cuGraphicsResourceGetMappedPointer
  .p2align 4
  .type cuGraphicsResourceGetMappedPointer, %function
#ifndef IMPLIB_EXPORT_SHIMS
  .hidden cuGraphicsResourceGetMappedPointer
#endif
cuGraphicsResourceGetMappedPointer:
  .cfi_startproc

1:
  // Load address
  // TODO: can we do this faster on newer ARMs?
  adrp ip0, _libcuda_so_tramp_table+2016
  ldr ip0, [ip0, #:lo12:_libcuda_so_tramp_table+2016]
 
  cbz ip0, 2f

  // Fast path
  br ip0

2:
  // Slow path
  mov ip0, 252 & 0xffff
#if 252 > 0xffff
  movk ip0, 252 >> 16, lsl #16
#endif
  stp ip0, lr, [sp, #-16]!; .cfi_adjust_cfa_offset 16; .cfi_rel_offset lr, 8
  bl _libcuda_so_save_regs_and_resolve
  ldp xzr, lr, [sp], #16; .cfi_adjust_cfa_offset -16; .cfi_restore lr
  br ip0
  .cfi_endproc

/*
 * Copyright 2018-2025 Yury Gribov
 *
 * The MIT License (MIT)
 *
 * Use of this source code is governed by MIT license that can be
 * found in the LICENSE.txt file.
 */

  .globl cuGraphicsResourceGetMappedPointer_v2
  .p2align 4
  .type cuGraphicsResourceGetMappedPointer_v2, %function
#ifndef IMPLIB_EXPORT_SHIMS
  .hidden cuGraphicsResourceGetMappedPointer_v2
#endif
cuGraphicsResourceGetMappedPointer_v2:
  .cfi_startproc

1:
  // Load address
  // TODO: can we do this faster on newer ARMs?
  adrp ip0, _libcuda_so_tramp_table+2024
  ldr ip0, [ip0, #:lo12:_libcuda_so_tramp_table+2024]
 
  cbz ip0, 2f

  // Fast path
  br ip0

2:
  // Slow path
  mov ip0, 253 & 0xffff
#if 253 > 0xffff
  movk ip0, 253 >> 16, lsl #16
#endif
  stp ip0, lr, [sp, #-16]!; .cfi_adjust_cfa_offset 16; .cfi_rel_offset lr, 8
  bl _libcuda_so_save_regs_and_resolve
  ldp xzr, lr, [sp], #16; .cfi_adjust_cfa_offset -16; .cfi_restore lr
  br ip0
  .cfi_endproc

/*
 * Copyright 2018-2025 Yury Gribov
 *
 * The MIT License (MIT)
 *
 * Use of this source code is governed by MIT license that can be
 * found in the LICENSE.txt file.
 */

  .globl cuGraphicsResourceSetMapFlags
  .p2align 4
  .type cuGraphicsResourceSetMapFlags, %function
#ifndef IMPLIB_EXPORT_SHIMS
  .hidden cuGraphicsResourceSetMapFlags
#endif
cuGraphicsResourceSetMapFlags:
  .cfi_startproc

1:
  // Load address
  // TODO: can we do this faster on newer ARMs?
  adrp ip0, _libcuda_so_tramp_table+2032
  ldr ip0, [ip0, #:lo12:_libcuda_so_tramp_table+2032]
 
  cbz ip0, 2f

  // Fast path
  br ip0

2:
  // Slow path
  mov ip0, 254 & 0xffff
#if 254 > 0xffff
  movk ip0, 254 >> 16, lsl #16
#endif
  stp ip0, lr, [sp, #-16]!; .cfi_adjust_cfa_offset 16; .cfi_rel_offset lr, 8
  bl _libcuda_so_save_regs_and_resolve
  ldp xzr, lr, [sp], #16; .cfi_adjust_cfa_offset -16; .cfi_restore lr
  br ip0
  .cfi_endproc

/*
 * Copyright 2018-2025 Yury Gribov
 *
 * The MIT License (MIT)
 *
 * Use of this source code is governed by MIT license that can be
 * found in the LICENSE.txt file.
 */

  .globl cuGraphicsResourceSetMapFlags_v2
  .p2align 4
  .type cuGraphicsResourceSetMapFlags_v2, %function
#ifndef IMPLIB_EXPORT_SHIMS
  .hidden cuGraphicsResourceSetMapFlags_v2
#endif
cuGraphicsResourceSetMapFlags_v2:
  .cfi_startproc

1:
  // Load address
  // TODO: can we do this faster on newer ARMs?
  adrp ip0, _libcuda_so_tramp_table+2040
  ldr ip0, [ip0, #:lo12:_libcuda_so_tramp_table+2040]
 
  cbz ip0, 2f

  // Fast path
  br ip0

2:
  // Slow path
  mov ip0, 255 & 0xffff
#if 255 > 0xffff
  movk ip0, 255 >> 16, lsl #16
#endif
  stp ip0, lr, [sp, #-16]!; .cfi_adjust_cfa_offset 16; .cfi_rel_offset lr, 8
  bl _libcuda_so_save_regs_and_resolve
  ldp xzr, lr, [sp], #16; .cfi_adjust_cfa_offset -16; .cfi_restore lr
  br ip0
  .cfi_endproc

/*
 * Copyright 2018-2025 Yury Gribov
 *
 * The MIT License (MIT)
 *
 * Use of this source code is governed by MIT license that can be
 * found in the LICENSE.txt file.
 */

  .globl cuGraphicsSubResourceGetMappedArray
  .p2align 4
  .type cuGraphicsSubResourceGetMappedArray, %function
#ifndef IMPLIB_EXPORT_SHIMS
  .hidden cuGraphicsSubResourceGetMappedArray
#endif
cuGraphicsSubResourceGetMappedArray:
  .cfi_startproc

1:
  // Load address
  // TODO: can we do this faster on newer ARMs?
  adrp ip0, _libcuda_so_tramp_table+2048
  ldr ip0, [ip0, #:lo12:_libcuda_so_tramp_table+2048]
 
  cbz ip0, 2f

  // Fast path
  br ip0

2:
  // Slow path
  mov ip0, 256 & 0xffff
#if 256 > 0xffff
  movk ip0, 256 >> 16, lsl #16
#endif
  stp ip0, lr, [sp, #-16]!; .cfi_adjust_cfa_offset 16; .cfi_rel_offset lr, 8
  bl _libcuda_so_save_regs_and_resolve
  ldp xzr, lr, [sp], #16; .cfi_adjust_cfa_offset -16; .cfi_restore lr
  br ip0
  .cfi_endproc

/*
 * Copyright 2018-2025 Yury Gribov
 *
 * The MIT License (MIT)
 *
 * Use of this source code is governed by MIT license that can be
 * found in the LICENSE.txt file.
 */

  .globl cuGraphicsUnmapResources
  .p2align 4
  .type cuGraphicsUnmapResources, %function
#ifndef IMPLIB_EXPORT_SHIMS
  .hidden cuGraphicsUnmapResources
#endif
cuGraphicsUnmapResources:
  .cfi_startproc

1:
  // Load address
  // TODO: can we do this faster on newer ARMs?
  adrp ip0, _libcuda_so_tramp_table+2056
  ldr ip0, [ip0, #:lo12:_libcuda_so_tramp_table+2056]
 
  cbz ip0, 2f

  // Fast path
  br ip0

2:
  // Slow path
  mov ip0, 257 & 0xffff
#if 257 > 0xffff
  movk ip0, 257 >> 16, lsl #16
#endif
  stp ip0, lr, [sp, #-16]!; .cfi_adjust_cfa_offset 16; .cfi_rel_offset lr, 8
  bl _libcuda_so_save_regs_and_resolve
  ldp xzr, lr, [sp], #16; .cfi_adjust_cfa_offset -16; .cfi_restore lr
  br ip0
  .cfi_endproc

/*
 * Copyright 2018-2025 Yury Gribov
 *
 * The MIT License (MIT)
 *
 * Use of this source code is governed by MIT license that can be
 * found in the LICENSE.txt file.
 */

  .globl cuGraphicsUnmapResources_ptsz
  .p2align 4
  .type cuGraphicsUnmapResources_ptsz, %function
#ifndef IMPLIB_EXPORT_SHIMS
  .hidden cuGraphicsUnmapResources_ptsz
#endif
cuGraphicsUnmapResources_ptsz:
  .cfi_startproc

1:
  // Load address
  // TODO: can we do this faster on newer ARMs?
  adrp ip0, _libcuda_so_tramp_table+2064
  ldr ip0, [ip0, #:lo12:_libcuda_so_tramp_table+2064]
 
  cbz ip0, 2f

  // Fast path
  br ip0

2:
  // Slow path
  mov ip0, 258 & 0xffff
#if 258 > 0xffff
  movk ip0, 258 >> 16, lsl #16
#endif
  stp ip0, lr, [sp, #-16]!; .cfi_adjust_cfa_offset 16; .cfi_rel_offset lr, 8
  bl _libcuda_so_save_regs_and_resolve
  ldp xzr, lr, [sp], #16; .cfi_adjust_cfa_offset -16; .cfi_restore lr
  br ip0
  .cfi_endproc

/*
 * Copyright 2018-2025 Yury Gribov
 *
 * The MIT License (MIT)
 *
 * Use of this source code is governed by MIT license that can be
 * found in the LICENSE.txt file.
 */

  .globl cuGraphicsUnregisterResource
  .p2align 4
  .type cuGraphicsUnregisterResource, %function
#ifndef IMPLIB_EXPORT_SHIMS
  .hidden cuGraphicsUnregisterResource
#endif
cuGraphicsUnregisterResource:
  .cfi_startproc

1:
  // Load address
  // TODO: can we do this faster on newer ARMs?
  adrp ip0, _libcuda_so_tramp_table+2072
  ldr ip0, [ip0, #:lo12:_libcuda_so_tramp_table+2072]
 
  cbz ip0, 2f

  // Fast path
  br ip0

2:
  // Slow path
  mov ip0, 259 & 0xffff
#if 259 > 0xffff
  movk ip0, 259 >> 16, lsl #16
#endif
  stp ip0, lr, [sp, #-16]!; .cfi_adjust_cfa_offset 16; .cfi_rel_offset lr, 8
  bl _libcuda_so_save_regs_and_resolve
  ldp xzr, lr, [sp], #16; .cfi_adjust_cfa_offset -16; .cfi_restore lr
  br ip0
  .cfi_endproc

/*
 * Copyright 2018-2025 Yury Gribov
 *
 * The MIT License (MIT)
 *
 * Use of this source code is governed by MIT license that can be
 * found in the LICENSE.txt file.
 */

  .globl cuGraphicsVDPAURegisterOutputSurface
  .p2align 4
  .type cuGraphicsVDPAURegisterOutputSurface, %function
#ifndef IMPLIB_EXPORT_SHIMS
  .hidden cuGraphicsVDPAURegisterOutputSurface
#endif
cuGraphicsVDPAURegisterOutputSurface:
  .cfi_startproc

1:
  // Load address
  // TODO: can we do this faster on newer ARMs?
  adrp ip0, _libcuda_so_tramp_table+2080
  ldr ip0, [ip0, #:lo12:_libcuda_so_tramp_table+2080]
 
  cbz ip0, 2f

  // Fast path
  br ip0

2:
  // Slow path
  mov ip0, 260 & 0xffff
#if 260 > 0xffff
  movk ip0, 260 >> 16, lsl #16
#endif
  stp ip0, lr, [sp, #-16]!; .cfi_adjust_cfa_offset 16; .cfi_rel_offset lr, 8
  bl _libcuda_so_save_regs_and_resolve
  ldp xzr, lr, [sp], #16; .cfi_adjust_cfa_offset -16; .cfi_restore lr
  br ip0
  .cfi_endproc

/*
 * Copyright 2018-2025 Yury Gribov
 *
 * The MIT License (MIT)
 *
 * Use of this source code is governed by MIT license that can be
 * found in the LICENSE.txt file.
 */

  .globl cuGraphicsVDPAURegisterVideoSurface
  .p2align 4
  .type cuGraphicsVDPAURegisterVideoSurface, %function
#ifndef IMPLIB_EXPORT_SHIMS
  .hidden cuGraphicsVDPAURegisterVideoSurface
#endif
cuGraphicsVDPAURegisterVideoSurface:
  .cfi_startproc

1:
  // Load address
  // TODO: can we do this faster on newer ARMs?
  adrp ip0, _libcuda_so_tramp_table+2088
  ldr ip0, [ip0, #:lo12:_libcuda_so_tramp_table+2088]
 
  cbz ip0, 2f

  // Fast path
  br ip0

2:
  // Slow path
  mov ip0, 261 & 0xffff
#if 261 > 0xffff
  movk ip0, 261 >> 16, lsl #16
#endif
  stp ip0, lr, [sp, #-16]!; .cfi_adjust_cfa_offset 16; .cfi_rel_offset lr, 8
  bl _libcuda_so_save_regs_and_resolve
  ldp xzr, lr, [sp], #16; .cfi_adjust_cfa_offset -16; .cfi_restore lr
  br ip0
  .cfi_endproc

/*
 * Copyright 2018-2025 Yury Gribov
 *
 * The MIT License (MIT)
 *
 * Use of this source code is governed by MIT license that can be
 * found in the LICENSE.txt file.
 */

  .globl cuGreenCtxCreate
  .p2align 4
  .type cuGreenCtxCreate, %function
#ifndef IMPLIB_EXPORT_SHIMS
  .hidden cuGreenCtxCreate
#endif
cuGreenCtxCreate:
  .cfi_startproc

1:
  // Load address
  // TODO: can we do this faster on newer ARMs?
  adrp ip0, _libcuda_so_tramp_table+2096
  ldr ip0, [ip0, #:lo12:_libcuda_so_tramp_table+2096]
 
  cbz ip0, 2f

  // Fast path
  br ip0

2:
  // Slow path
  mov ip0, 262 & 0xffff
#if 262 > 0xffff
  movk ip0, 262 >> 16, lsl #16
#endif
  stp ip0, lr, [sp, #-16]!; .cfi_adjust_cfa_offset 16; .cfi_rel_offset lr, 8
  bl _libcuda_so_save_regs_and_resolve
  ldp xzr, lr, [sp], #16; .cfi_adjust_cfa_offset -16; .cfi_restore lr
  br ip0
  .cfi_endproc

/*
 * Copyright 2018-2025 Yury Gribov
 *
 * The MIT License (MIT)
 *
 * Use of this source code is governed by MIT license that can be
 * found in the LICENSE.txt file.
 */

  .globl cuGreenCtxDestroy
  .p2align 4
  .type cuGreenCtxDestroy, %function
#ifndef IMPLIB_EXPORT_SHIMS
  .hidden cuGreenCtxDestroy
#endif
cuGreenCtxDestroy:
  .cfi_startproc

1:
  // Load address
  // TODO: can we do this faster on newer ARMs?
  adrp ip0, _libcuda_so_tramp_table+2104
  ldr ip0, [ip0, #:lo12:_libcuda_so_tramp_table+2104]
 
  cbz ip0, 2f

  // Fast path
  br ip0

2:
  // Slow path
  mov ip0, 263 & 0xffff
#if 263 > 0xffff
  movk ip0, 263 >> 16, lsl #16
#endif
  stp ip0, lr, [sp, #-16]!; .cfi_adjust_cfa_offset 16; .cfi_rel_offset lr, 8
  bl _libcuda_so_save_regs_and_resolve
  ldp xzr, lr, [sp], #16; .cfi_adjust_cfa_offset -16; .cfi_restore lr
  br ip0
  .cfi_endproc

/*
 * Copyright 2018-2025 Yury Gribov
 *
 * The MIT License (MIT)
 *
 * Use of this source code is governed by MIT license that can be
 * found in the LICENSE.txt file.
 */

  .globl cuGreenCtxGetDevResource
  .p2align 4
  .type cuGreenCtxGetDevResource, %function
#ifndef IMPLIB_EXPORT_SHIMS
  .hidden cuGreenCtxGetDevResource
#endif
cuGreenCtxGetDevResource:
  .cfi_startproc

1:
  // Load address
  // TODO: can we do this faster on newer ARMs?
  adrp ip0, _libcuda_so_tramp_table+2112
  ldr ip0, [ip0, #:lo12:_libcuda_so_tramp_table+2112]
 
  cbz ip0, 2f

  // Fast path
  br ip0

2:
  // Slow path
  mov ip0, 264 & 0xffff
#if 264 > 0xffff
  movk ip0, 264 >> 16, lsl #16
#endif
  stp ip0, lr, [sp, #-16]!; .cfi_adjust_cfa_offset 16; .cfi_rel_offset lr, 8
  bl _libcuda_so_save_regs_and_resolve
  ldp xzr, lr, [sp], #16; .cfi_adjust_cfa_offset -16; .cfi_restore lr
  br ip0
  .cfi_endproc

/*
 * Copyright 2018-2025 Yury Gribov
 *
 * The MIT License (MIT)
 *
 * Use of this source code is governed by MIT license that can be
 * found in the LICENSE.txt file.
 */

  .globl cuGreenCtxRecordEvent
  .p2align 4
  .type cuGreenCtxRecordEvent, %function
#ifndef IMPLIB_EXPORT_SHIMS
  .hidden cuGreenCtxRecordEvent
#endif
cuGreenCtxRecordEvent:
  .cfi_startproc

1:
  // Load address
  // TODO: can we do this faster on newer ARMs?
  adrp ip0, _libcuda_so_tramp_table+2120
  ldr ip0, [ip0, #:lo12:_libcuda_so_tramp_table+2120]
 
  cbz ip0, 2f

  // Fast path
  br ip0

2:
  // Slow path
  mov ip0, 265 & 0xffff
#if 265 > 0xffff
  movk ip0, 265 >> 16, lsl #16
#endif
  stp ip0, lr, [sp, #-16]!; .cfi_adjust_cfa_offset 16; .cfi_rel_offset lr, 8
  bl _libcuda_so_save_regs_and_resolve
  ldp xzr, lr, [sp], #16; .cfi_adjust_cfa_offset -16; .cfi_restore lr
  br ip0
  .cfi_endproc

/*
 * Copyright 2018-2025 Yury Gribov
 *
 * The MIT License (MIT)
 *
 * Use of this source code is governed by MIT license that can be
 * found in the LICENSE.txt file.
 */

  .globl cuGreenCtxStreamCreate
  .p2align 4
  .type cuGreenCtxStreamCreate, %function
#ifndef IMPLIB_EXPORT_SHIMS
  .hidden cuGreenCtxStreamCreate
#endif
cuGreenCtxStreamCreate:
  .cfi_startproc

1:
  // Load address
  // TODO: can we do this faster on newer ARMs?
  adrp ip0, _libcuda_so_tramp_table+2128
  ldr ip0, [ip0, #:lo12:_libcuda_so_tramp_table+2128]
 
  cbz ip0, 2f

  // Fast path
  br ip0

2:
  // Slow path
  mov ip0, 266 & 0xffff
#if 266 > 0xffff
  movk ip0, 266 >> 16, lsl #16
#endif
  stp ip0, lr, [sp, #-16]!; .cfi_adjust_cfa_offset 16; .cfi_rel_offset lr, 8
  bl _libcuda_so_save_regs_and_resolve
  ldp xzr, lr, [sp], #16; .cfi_adjust_cfa_offset -16; .cfi_restore lr
  br ip0
  .cfi_endproc

/*
 * Copyright 2018-2025 Yury Gribov
 *
 * The MIT License (MIT)
 *
 * Use of this source code is governed by MIT license that can be
 * found in the LICENSE.txt file.
 */

  .globl cuGreenCtxWaitEvent
  .p2align 4
  .type cuGreenCtxWaitEvent, %function
#ifndef IMPLIB_EXPORT_SHIMS
  .hidden cuGreenCtxWaitEvent
#endif
cuGreenCtxWaitEvent:
  .cfi_startproc

1:
  // Load address
  // TODO: can we do this faster on newer ARMs?
  adrp ip0, _libcuda_so_tramp_table+2136
  ldr ip0, [ip0, #:lo12:_libcuda_so_tramp_table+2136]
 
  cbz ip0, 2f

  // Fast path
  br ip0

2:
  // Slow path
  mov ip0, 267 & 0xffff
#if 267 > 0xffff
  movk ip0, 267 >> 16, lsl #16
#endif
  stp ip0, lr, [sp, #-16]!; .cfi_adjust_cfa_offset 16; .cfi_rel_offset lr, 8
  bl _libcuda_so_save_regs_and_resolve
  ldp xzr, lr, [sp], #16; .cfi_adjust_cfa_offset -16; .cfi_restore lr
  br ip0
  .cfi_endproc

/*
 * Copyright 2018-2025 Yury Gribov
 *
 * The MIT License (MIT)
 *
 * Use of this source code is governed by MIT license that can be
 * found in the LICENSE.txt file.
 */

  .globl cuImportExternalMemory
  .p2align 4
  .type cuImportExternalMemory, %function
#ifndef IMPLIB_EXPORT_SHIMS
  .hidden cuImportExternalMemory
#endif
cuImportExternalMemory:
  .cfi_startproc

1:
  // Load address
  // TODO: can we do this faster on newer ARMs?
  adrp ip0, _libcuda_so_tramp_table+2144
  ldr ip0, [ip0, #:lo12:_libcuda_so_tramp_table+2144]
 
  cbz ip0, 2f

  // Fast path
  br ip0

2:
  // Slow path
  mov ip0, 268 & 0xffff
#if 268 > 0xffff
  movk ip0, 268 >> 16, lsl #16
#endif
  stp ip0, lr, [sp, #-16]!; .cfi_adjust_cfa_offset 16; .cfi_rel_offset lr, 8
  bl _libcuda_so_save_regs_and_resolve
  ldp xzr, lr, [sp], #16; .cfi_adjust_cfa_offset -16; .cfi_restore lr
  br ip0
  .cfi_endproc

/*
 * Copyright 2018-2025 Yury Gribov
 *
 * The MIT License (MIT)
 *
 * Use of this source code is governed by MIT license that can be
 * found in the LICENSE.txt file.
 */

  .globl cuImportExternalSemaphore
  .p2align 4
  .type cuImportExternalSemaphore, %function
#ifndef IMPLIB_EXPORT_SHIMS
  .hidden cuImportExternalSemaphore
#endif
cuImportExternalSemaphore:
  .cfi_startproc

1:
  // Load address
  // TODO: can we do this faster on newer ARMs?
  adrp ip0, _libcuda_so_tramp_table+2152
  ldr ip0, [ip0, #:lo12:_libcuda_so_tramp_table+2152]
 
  cbz ip0, 2f

  // Fast path
  br ip0

2:
  // Slow path
  mov ip0, 269 & 0xffff
#if 269 > 0xffff
  movk ip0, 269 >> 16, lsl #16
#endif
  stp ip0, lr, [sp, #-16]!; .cfi_adjust_cfa_offset 16; .cfi_rel_offset lr, 8
  bl _libcuda_so_save_regs_and_resolve
  ldp xzr, lr, [sp], #16; .cfi_adjust_cfa_offset -16; .cfi_restore lr
  br ip0
  .cfi_endproc

/*
 * Copyright 2018-2025 Yury Gribov
 *
 * The MIT License (MIT)
 *
 * Use of this source code is governed by MIT license that can be
 * found in the LICENSE.txt file.
 */

  .globl cuInit
  .p2align 4
  .type cuInit, %function
#ifndef IMPLIB_EXPORT_SHIMS
  .hidden cuInit
#endif
cuInit:
  .cfi_startproc

1:
  // Load address
  // TODO: can we do this faster on newer ARMs?
  adrp ip0, _libcuda_so_tramp_table+2160
  ldr ip0, [ip0, #:lo12:_libcuda_so_tramp_table+2160]
 
  cbz ip0, 2f

  // Fast path
  br ip0

2:
  // Slow path
  mov ip0, 270 & 0xffff
#if 270 > 0xffff
  movk ip0, 270 >> 16, lsl #16
#endif
  stp ip0, lr, [sp, #-16]!; .cfi_adjust_cfa_offset 16; .cfi_rel_offset lr, 8
  bl _libcuda_so_save_regs_and_resolve
  ldp xzr, lr, [sp], #16; .cfi_adjust_cfa_offset -16; .cfi_restore lr
  br ip0
  .cfi_endproc

/*
 * Copyright 2018-2025 Yury Gribov
 *
 * The MIT License (MIT)
 *
 * Use of this source code is governed by MIT license that can be
 * found in the LICENSE.txt file.
 */

  .globl cuIpcCloseMemHandle
  .p2align 4
  .type cuIpcCloseMemHandle, %function
#ifndef IMPLIB_EXPORT_SHIMS
  .hidden cuIpcCloseMemHandle
#endif
cuIpcCloseMemHandle:
  .cfi_startproc

1:
  // Load address
  // TODO: can we do this faster on newer ARMs?
  adrp ip0, _libcuda_so_tramp_table+2168
  ldr ip0, [ip0, #:lo12:_libcuda_so_tramp_table+2168]
 
  cbz ip0, 2f

  // Fast path
  br ip0

2:
  // Slow path
  mov ip0, 271 & 0xffff
#if 271 > 0xffff
  movk ip0, 271 >> 16, lsl #16
#endif
  stp ip0, lr, [sp, #-16]!; .cfi_adjust_cfa_offset 16; .cfi_rel_offset lr, 8
  bl _libcuda_so_save_regs_and_resolve
  ldp xzr, lr, [sp], #16; .cfi_adjust_cfa_offset -16; .cfi_restore lr
  br ip0
  .cfi_endproc

/*
 * Copyright 2018-2025 Yury Gribov
 *
 * The MIT License (MIT)
 *
 * Use of this source code is governed by MIT license that can be
 * found in the LICENSE.txt file.
 */

  .globl cuIpcGetEventHandle
  .p2align 4
  .type cuIpcGetEventHandle, %function
#ifndef IMPLIB_EXPORT_SHIMS
  .hidden cuIpcGetEventHandle
#endif
cuIpcGetEventHandle:
  .cfi_startproc

1:
  // Load address
  // TODO: can we do this faster on newer ARMs?
  adrp ip0, _libcuda_so_tramp_table+2176
  ldr ip0, [ip0, #:lo12:_libcuda_so_tramp_table+2176]
 
  cbz ip0, 2f

  // Fast path
  br ip0

2:
  // Slow path
  mov ip0, 272 & 0xffff
#if 272 > 0xffff
  movk ip0, 272 >> 16, lsl #16
#endif
  stp ip0, lr, [sp, #-16]!; .cfi_adjust_cfa_offset 16; .cfi_rel_offset lr, 8
  bl _libcuda_so_save_regs_and_resolve
  ldp xzr, lr, [sp], #16; .cfi_adjust_cfa_offset -16; .cfi_restore lr
  br ip0
  .cfi_endproc

/*
 * Copyright 2018-2025 Yury Gribov
 *
 * The MIT License (MIT)
 *
 * Use of this source code is governed by MIT license that can be
 * found in the LICENSE.txt file.
 */

  .globl cuIpcGetMemHandle
  .p2align 4
  .type cuIpcGetMemHandle, %function
#ifndef IMPLIB_EXPORT_SHIMS
  .hidden cuIpcGetMemHandle
#endif
cuIpcGetMemHandle:
  .cfi_startproc

1:
  // Load address
  // TODO: can we do this faster on newer ARMs?
  adrp ip0, _libcuda_so_tramp_table+2184
  ldr ip0, [ip0, #:lo12:_libcuda_so_tramp_table+2184]
 
  cbz ip0, 2f

  // Fast path
  br ip0

2:
  // Slow path
  mov ip0, 273 & 0xffff
#if 273 > 0xffff
  movk ip0, 273 >> 16, lsl #16
#endif
  stp ip0, lr, [sp, #-16]!; .cfi_adjust_cfa_offset 16; .cfi_rel_offset lr, 8
  bl _libcuda_so_save_regs_and_resolve
  ldp xzr, lr, [sp], #16; .cfi_adjust_cfa_offset -16; .cfi_restore lr
  br ip0
  .cfi_endproc

/*
 * Copyright 2018-2025 Yury Gribov
 *
 * The MIT License (MIT)
 *
 * Use of this source code is governed by MIT license that can be
 * found in the LICENSE.txt file.
 */

  .globl cuIpcOpenEventHandle
  .p2align 4
  .type cuIpcOpenEventHandle, %function
#ifndef IMPLIB_EXPORT_SHIMS
  .hidden cuIpcOpenEventHandle
#endif
cuIpcOpenEventHandle:
  .cfi_startproc

1:
  // Load address
  // TODO: can we do this faster on newer ARMs?
  adrp ip0, _libcuda_so_tramp_table+2192
  ldr ip0, [ip0, #:lo12:_libcuda_so_tramp_table+2192]
 
  cbz ip0, 2f

  // Fast path
  br ip0

2:
  // Slow path
  mov ip0, 274 & 0xffff
#if 274 > 0xffff
  movk ip0, 274 >> 16, lsl #16
#endif
  stp ip0, lr, [sp, #-16]!; .cfi_adjust_cfa_offset 16; .cfi_rel_offset lr, 8
  bl _libcuda_so_save_regs_and_resolve
  ldp xzr, lr, [sp], #16; .cfi_adjust_cfa_offset -16; .cfi_restore lr
  br ip0
  .cfi_endproc

/*
 * Copyright 2018-2025 Yury Gribov
 *
 * The MIT License (MIT)
 *
 * Use of this source code is governed by MIT license that can be
 * found in the LICENSE.txt file.
 */

  .globl cuIpcOpenMemHandle
  .p2align 4
  .type cuIpcOpenMemHandle, %function
#ifndef IMPLIB_EXPORT_SHIMS
  .hidden cuIpcOpenMemHandle
#endif
cuIpcOpenMemHandle:
  .cfi_startproc

1:
  // Load address
  // TODO: can we do this faster on newer ARMs?
  adrp ip0, _libcuda_so_tramp_table+2200
  ldr ip0, [ip0, #:lo12:_libcuda_so_tramp_table+2200]
 
  cbz ip0, 2f

  // Fast path
  br ip0

2:
  // Slow path
  mov ip0, 275 & 0xffff
#if 275 > 0xffff
  movk ip0, 275 >> 16, lsl #16
#endif
  stp ip0, lr, [sp, #-16]!; .cfi_adjust_cfa_offset 16; .cfi_rel_offset lr, 8
  bl _libcuda_so_save_regs_and_resolve
  ldp xzr, lr, [sp], #16; .cfi_adjust_cfa_offset -16; .cfi_restore lr
  br ip0
  .cfi_endproc

/*
 * Copyright 2018-2025 Yury Gribov
 *
 * The MIT License (MIT)
 *
 * Use of this source code is governed by MIT license that can be
 * found in the LICENSE.txt file.
 */

  .globl cuIpcOpenMemHandle_v2
  .p2align 4
  .type cuIpcOpenMemHandle_v2, %function
#ifndef IMPLIB_EXPORT_SHIMS
  .hidden cuIpcOpenMemHandle_v2
#endif
cuIpcOpenMemHandle_v2:
  .cfi_startproc

1:
  // Load address
  // TODO: can we do this faster on newer ARMs?
  adrp ip0, _libcuda_so_tramp_table+2208
  ldr ip0, [ip0, #:lo12:_libcuda_so_tramp_table+2208]
 
  cbz ip0, 2f

  // Fast path
  br ip0

2:
  // Slow path
  mov ip0, 276 & 0xffff
#if 276 > 0xffff
  movk ip0, 276 >> 16, lsl #16
#endif
  stp ip0, lr, [sp, #-16]!; .cfi_adjust_cfa_offset 16; .cfi_rel_offset lr, 8
  bl _libcuda_so_save_regs_and_resolve
  ldp xzr, lr, [sp], #16; .cfi_adjust_cfa_offset -16; .cfi_restore lr
  br ip0
  .cfi_endproc

/*
 * Copyright 2018-2025 Yury Gribov
 *
 * The MIT License (MIT)
 *
 * Use of this source code is governed by MIT license that can be
 * found in the LICENSE.txt file.
 */

  .globl cuKernelGetAttribute
  .p2align 4
  .type cuKernelGetAttribute, %function
#ifndef IMPLIB_EXPORT_SHIMS
  .hidden cuKernelGetAttribute
#endif
cuKernelGetAttribute:
  .cfi_startproc

1:
  // Load address
  // TODO: can we do this faster on newer ARMs?
  adrp ip0, _libcuda_so_tramp_table+2216
  ldr ip0, [ip0, #:lo12:_libcuda_so_tramp_table+2216]
 
  cbz ip0, 2f

  // Fast path
  br ip0

2:
  // Slow path
  mov ip0, 277 & 0xffff
#if 277 > 0xffff
  movk ip0, 277 >> 16, lsl #16
#endif
  stp ip0, lr, [sp, #-16]!; .cfi_adjust_cfa_offset 16; .cfi_rel_offset lr, 8
  bl _libcuda_so_save_regs_and_resolve
  ldp xzr, lr, [sp], #16; .cfi_adjust_cfa_offset -16; .cfi_restore lr
  br ip0
  .cfi_endproc

/*
 * Copyright 2018-2025 Yury Gribov
 *
 * The MIT License (MIT)
 *
 * Use of this source code is governed by MIT license that can be
 * found in the LICENSE.txt file.
 */

  .globl cuKernelGetFunction
  .p2align 4
  .type cuKernelGetFunction, %function
#ifndef IMPLIB_EXPORT_SHIMS
  .hidden cuKernelGetFunction
#endif
cuKernelGetFunction:
  .cfi_startproc

1:
  // Load address
  // TODO: can we do this faster on newer ARMs?
  adrp ip0, _libcuda_so_tramp_table+2224
  ldr ip0, [ip0, #:lo12:_libcuda_so_tramp_table+2224]
 
  cbz ip0, 2f

  // Fast path
  br ip0

2:
  // Slow path
  mov ip0, 278 & 0xffff
#if 278 > 0xffff
  movk ip0, 278 >> 16, lsl #16
#endif
  stp ip0, lr, [sp, #-16]!; .cfi_adjust_cfa_offset 16; .cfi_rel_offset lr, 8
  bl _libcuda_so_save_regs_and_resolve
  ldp xzr, lr, [sp], #16; .cfi_adjust_cfa_offset -16; .cfi_restore lr
  br ip0
  .cfi_endproc

/*
 * Copyright 2018-2025 Yury Gribov
 *
 * The MIT License (MIT)
 *
 * Use of this source code is governed by MIT license that can be
 * found in the LICENSE.txt file.
 */

  .globl cuKernelGetLibrary
  .p2align 4
  .type cuKernelGetLibrary, %function
#ifndef IMPLIB_EXPORT_SHIMS
  .hidden cuKernelGetLibrary
#endif
cuKernelGetLibrary:
  .cfi_startproc

1:
  // Load address
  // TODO: can we do this faster on newer ARMs?
  adrp ip0, _libcuda_so_tramp_table+2232
  ldr ip0, [ip0, #:lo12:_libcuda_so_tramp_table+2232]
 
  cbz ip0, 2f

  // Fast path
  br ip0

2:
  // Slow path
  mov ip0, 279 & 0xffff
#if 279 > 0xffff
  movk ip0, 279 >> 16, lsl #16
#endif
